ARM GAS  /tmp/cc5swW8S.s 			page 1


   1              		.syntax unified
   2              		.cpu cortex-m4
   3              		.eabi_attribute 27, 3
   4              		.eabi_attribute 28, 1
   5              		.fpu fpv4-sp-d16
   6              		.eabi_attribute 20, 1
   7              		.eabi_attribute 21, 1
   8              		.eabi_attribute 23, 3
   9              		.eabi_attribute 24, 1
  10              		.eabi_attribute 25, 1
  11              		.eabi_attribute 26, 1
  12              		.eabi_attribute 30, 2
  13              		.eabi_attribute 34, 1
  14              		.eabi_attribute 18, 4
  15              		.thumb
  16              		.file	"chcore_v7m.c"
  17              		.text
  18              	.Ltext0:
  19              		.cfi_sections	.debug_frame
  20              		.section	.text._port_switch_from_isr,"ax",%progbits
  21              		.align	2
  22              		.p2align 4,,15
  23              		.global	_port_switch_from_isr
  24              		.thumb
  25              		.thumb_func
  26              		.type	_port_switch_from_isr, %function
  27              	_port_switch_from_isr:
  28              	.LFB11:
  29              		.file 1 "/home/wicker/tools/ChibiOS_2.6.3/os/ports/GCC/ARMCMx/chcore_v7m.c"
  30              		.loc 1 207 0
  31              		.cfi_startproc
  32              		@ Naked Function: prologue and epilogue provided by programmer.
  33              		@ args = 0, pretend = 0, frame = 0
  34              		@ frame_needed = 0, uses_anonymous_args = 0
  35              		.loc 1 210 0
  36 0000 FFF7FEFF 		bl	chSchDoReschedule
  37              	.LVL0:
  38              		.loc 1 212 0
  39              	@ 212 "/home/wicker/tools/ChibiOS_2.6.3/os/ports/GCC/ARMCMx/chcore_v7m.c" 1
  40              		_port_exit_from_isr:
  41              	@ 0 "" 2
  42              		.loc 1 214 0
  43              	@ 214 "/home/wicker/tools/ChibiOS_2.6.3/os/ports/GCC/ARMCMx/chcore_v7m.c" 1
  44 0004 00DF     		svc     #0
  45              	@ 0 "" 2
  46              		.loc 1 221 0
  47              		.thumb
  48              		.cfi_endproc
  49              	.LFE11:
  50              		.size	_port_switch_from_isr, .-_port_switch_from_isr
  51 0006 00BFAFF3 		.section	.text.SVCallVector,"ax",%progbits
  51      0080AFF3 
  51      0080
  52              		.align	2
  53              		.p2align 4,,15
  54              		.global	SVCallVector
  55              		.thumb
ARM GAS  /tmp/cc5swW8S.s 			page 2


  56              		.thumb_func
  57              		.type	SVCallVector, %function
  58              	SVCallVector:
  59              	.LFB8:
  60              		.loc 1 65 0
  61              		.cfi_startproc
  62              		@ args = 0, pretend = 0, frame = 0
  63              		@ frame_needed = 0, uses_anonymous_args = 0
  64              		@ link register save eliminated.
  65              		.loc 1 69 0
  66              	@ 69 "/home/wicker/tools/ChibiOS_2.6.3/os/ports/GCC/ARMCMx/chcore_v7m.c" 1
  67 0000 EFF30983 		mrs     r3, PSP
  68              	@ 0 "" 2
  69              	.LVL1:
  70              		.loc 1 73 0
  71              		.thumb
  72 0004 2033     		adds	r3, r3, #32
  73              	.LVL2:
  74              		.loc 1 80 0
  75              	@ 80 "/home/wicker/tools/ChibiOS_2.6.3/os/ports/GCC/ARMCMx/chcore_v7m.c" 1
  76 0006 83F30988 		msr     PSP, r3
  77              	@ 0 "" 2
  78              		.thumb
  79              	.LBB2:
  80              		.loc 1 81 0
  81 000a 0023     		movs	r3, #0
  82              	.LVL3:
  83              	@ 81 "/home/wicker/tools/ChibiOS_2.6.3/os/ports/GCC/ARMCMx/chcore_v7m.c" 1
  84 000c 83F31188 		msr     BASEPRI, r3
  85              	@ 0 "" 2
  86              	.LVL4:
  87              		.thumb
  88 0010 7047     		bx	lr
  89              	.LBE2:
  90              		.cfi_endproc
  91              	.LFE8:
  92              		.size	SVCallVector, .-SVCallVector
  93 0012 00BFAFF3 		.section	.text._port_init,"ax",%progbits
  93      0080AFF3 
  93      0080AFF3 
  93      0080
  94              		.align	2
  95              		.p2align 4,,15
  96              		.global	_port_init
  97              		.thumb
  98              		.thumb_func
  99              		.type	_port_init, %function
 100              	_port_init:
 101              	.LFB9:
 102              		.loc 1 118 0
 103              		.cfi_startproc
 104              		@ args = 0, pretend = 0, frame = 0
 105              		@ frame_needed = 0, uses_anonymous_args = 0
 106 0000 08B5     		push	{r3, lr}
 107              	.LCFI0:
 108              		.cfi_def_cfa_offset 8
 109              		.cfi_offset 3, -8
ARM GAS  /tmp/cc5swW8S.s 			page 3


 110              		.cfi_offset 14, -4
 111              		.loc 1 121 0
 112 0002 4FF46D43 		mov	r3, #60672
 113 0006 CEF20003 		movt	r3, 57344
 114              		.loc 1 122 0
 115 000a 4FF44072 		mov	r2, #768
 116 000e C0F2FA52 		movt	r2, 1530
 117              		.loc 1 121 0
 118 0012 0021     		movs	r1, #0
 119 0014 9960     		str	r1, [r3, #8]
 120              		.loc 1 125 0
 121 0016 0720     		movs	r0, #7
 122 0018 1021     		movs	r1, #16
 123              		.loc 1 122 0
 124 001a DA60     		str	r2, [r3, #12]
 125              		.loc 1 125 0
 126 001c FFF7FEFF 		bl	nvicSetSystemHandlerPriority
 127              	.LVL5:
 128              		.loc 1 127 0
 129 0020 0A20     		movs	r0, #10
 130 0022 2021     		movs	r1, #32
 131 0024 FFF7FEFF 		bl	nvicSetSystemHandlerPriority
 132              	.LVL6:
 133              		.loc 1 129 0
 134 0028 0B20     		movs	r0, #11
 135 002a 8021     		movs	r1, #128
 136              		.loc 1 131 0
 137 002c BDE80840 		pop	{r3, lr}
 138              		.loc 1 129 0
 139 0030 FFF7FEBF 		b	nvicSetSystemHandlerPriority
 140              	.LVL7:
 141              		.cfi_endproc
 142              	.LFE9:
 143              		.size	_port_init, .-_port_init
 144 0034 AFF30080 		.section	.text._port_irq_epilogue,"ax",%progbits
 144      AFF30080 
 144      AFF30080 
 145              		.align	2
 146              		.p2align 4,,15
 147              		.global	_port_irq_epilogue
 148              		.thumb
 149              		.thumb_func
 150              		.type	_port_irq_epilogue, %function
 151              	_port_irq_epilogue:
 152              	.LFB10:
 153              		.loc 1 148 0
 154              		.cfi_startproc
 155              		@ args = 0, pretend = 0, frame = 0
 156              		@ frame_needed = 0, uses_anonymous_args = 0
 157              		@ link register save eliminated.
 158              	.LBB3:
 159              		.loc 1 150 0
 160 0000 2023     		movs	r3, #32
 161              	.LVL8:
 162              	@ 150 "/home/wicker/tools/ChibiOS_2.6.3/os/ports/GCC/ARMCMx/chcore_v7m.c" 1
 163 0002 83F31188 		msr     BASEPRI, r3
 164              	@ 0 "" 2
ARM GAS  /tmp/cc5swW8S.s 			page 4


 165              	.LVL9:
 166              		.thumb
 167              	.LBE3:
 168              		.loc 1 151 0
 169 0006 4FF46D43 		mov	r3, #60672
 170              	.LVL10:
 171 000a CEF20003 		movt	r3, 57344
 172 000e 5B68     		ldr	r3, [r3, #4]
 173 0010 13F40063 		ands	r3, r3, #2048
 174 0014 19D0     		beq	.L5
 175              	.LBB4:
 176              		.loc 1 155 0
 177              	@ 155 "/home/wicker/tools/ChibiOS_2.6.3/os/ports/GCC/ARMCMx/chcore_v7m.c" 1
 178 0016 EFF30983 		mrs     r3, PSP
 179              	@ 0 "" 2
 180              	.LVL11:
 181              		.loc 1 159 0
 182              		.thumb
 183 001a A3F12002 		sub	r2, r3, #32
 184              	.LVL12:
 185              		.loc 1 160 0
 186              	@ 160 "/home/wicker/tools/ChibiOS_2.6.3/os/ports/GCC/ARMCMx/chcore_v7m.c" 1
 187 001e 82F30988 		msr     PSP, r2
 188              	@ 0 "" 2
 189              		.loc 1 165 0
 190              		.thumb
 191 0022 1049     		ldr	r1, .L12
 192              		.loc 1 161 0
 193 0024 4FF08070 		mov	r0, #16777216
 194              		.loc 1 165 0
 195 0028 8A69     		ldr	r2, [r1, #24]
 196              	.LVL13:
 197              		.loc 1 161 0
 198 002a 43F8040C 		str	r0, [r3, #-4]
 199              		.loc 1 165 0
 200 002e D07F     		ldrb	r0, [r2, #31]	@ zero_extendqisi2
 201 0030 0968     		ldr	r1, [r1, #0]
 202 0032 9268     		ldr	r2, [r2, #8]
 203 0034 8968     		ldr	r1, [r1, #8]
 204 0036 58B1     		cbz	r0, .L6
 205              		.loc 1 165 0 is_stmt 0 discriminator 1
 206 0038 9142     		cmp	r1, r2
 207 003a 94BF     		ite	ls
 208 003c 0022     		movls	r2, #0
 209 003e 0122     		movhi	r2, #1
 210 0040 62B1     		cbz	r2, .L8
 211              	.L11:
 212              		.loc 1 167 0 is_stmt 1
 213 0042 094A     		ldr	r2, .L12+4
 214 0044 43F8082C 		str	r2, [r3, #-8]
 215 0048 7047     		bx	lr
 216              	.LVL14:
 217              	.L5:
 218              	.LBE4:
 219              	.LBB5:
 220              		.loc 1 197 0
 221              	@ 197 "/home/wicker/tools/ChibiOS_2.6.3/os/ports/GCC/ARMCMx/chcore_v7m.c" 1
ARM GAS  /tmp/cc5swW8S.s 			page 5


 222 004a 83F31188 		msr     BASEPRI, r3
 223              	@ 0 "" 2
 224              	.LVL15:
 225              		.thumb
 226 004e 7047     		bx	lr
 227              	.LVL16:
 228              	.L6:
 229              	.LBE5:
 230              	.LBB6:
 231              		.loc 1 165 0 discriminator 2
 232 0050 9142     		cmp	r1, r2
 233 0052 34BF     		ite	cc
 234 0054 0022     		movcc	r2, #0
 235 0056 0122     		movcs	r2, #1
 236 0058 002A     		cmp	r2, #0
 237 005a F2D1     		bne	.L11
 238              	.L8:
 239              		.loc 1 176 0
 240 005c 034A     		ldr	r2, .L12+8
 241 005e 43F8082C 		str	r2, [r3, #-8]
 242 0062 7047     		bx	lr
 243              	.L13:
 244              		.align	2
 245              	.L12:
 246 0064 00000000 		.word	rlist
 247 0068 00000000 		.word	_port_switch_from_isr
 248 006c 04000000 		.word	_port_exit_from_isr
 249              	.LBE6:
 250              		.cfi_endproc
 251              	.LFE10:
 252              		.size	_port_irq_epilogue, .-_port_irq_epilogue
 253              		.section	.text.SysTickVector,"ax",%progbits
 254              		.align	2
 255              		.p2align 4,,15
 256              		.global	SysTickVector
 257              		.thumb
 258              		.thumb_func
 259              		.type	SysTickVector, %function
 260              	SysTickVector:
 261              	.LFB7:
 262              		.loc 1 47 0
 263              		.cfi_startproc
 264              		@ args = 0, pretend = 0, frame = 0
 265              		@ frame_needed = 0, uses_anonymous_args = 0
 266 0000 08B5     		push	{r3, lr}
 267              	.LCFI1:
 268              		.cfi_def_cfa_offset 8
 269              		.cfi_offset 3, -8
 270              		.cfi_offset 14, -4
 271              	.LBB7:
 272              		.loc 1 51 0
 273 0002 2023     		movs	r3, #32
 274              	.LVL17:
 275              	@ 51 "/home/wicker/tools/ChibiOS_2.6.3/os/ports/GCC/ARMCMx/chcore_v7m.c" 1
 276 0004 83F31188 		msr     BASEPRI, r3
 277              	@ 0 "" 2
 278              	.LVL18:
ARM GAS  /tmp/cc5swW8S.s 			page 6


 279              		.thumb
 280              	.LBE7:
 281              		.loc 1 52 0
 282 0008 FFF7FEFF 		bl	chSysTimerHandlerI
 283              	.LVL19:
 284              	.LBB8:
 285              		.loc 1 53 0
 286 000c 0023     		movs	r3, #0
 287              	.LVL20:
 288              	@ 53 "/home/wicker/tools/ChibiOS_2.6.3/os/ports/GCC/ARMCMx/chcore_v7m.c" 1
 289 000e 83F31188 		msr     BASEPRI, r3
 290              	@ 0 "" 2
 291              	.LVL21:
 292              		.thumb
 293              	.LBE8:
 294              		.loc 1 56 0
 295 0012 BDE80840 		pop	{r3, lr}
 296              		.loc 1 55 0
 297 0016 FFF7FEBF 		b	_port_irq_epilogue
 298              	.LVL22:
 299              		.cfi_endproc
 300              	.LFE7:
 301              		.size	SysTickVector, .-SysTickVector
 302 001a 00BFAFF3 		.section	.text._port_switch,"ax",%progbits
 302      0080
 303              		.align	2
 304              		.p2align 4,,15
 305              		.global	_port_switch
 306              		.thumb
 307              		.thumb_func
 308              		.type	_port_switch, %function
 309              	_port_switch:
 310              	.LFB12:
 311              		.loc 1 236 0
 312              		.cfi_startproc
 313              		@ Naked Function: prologue and epilogue provided by programmer.
 314              		@ args = 0, pretend = 0, frame = 0
 315              		@ frame_needed = 0, uses_anonymous_args = 0
 316              	.LVL23:
 317              		.loc 1 238 0
 318              	@ 238 "/home/wicker/tools/ChibiOS_2.6.3/os/ports/GCC/ARMCMx/chcore_v7m.c" 1
 319 0000 2DE9F04F 		push    {r4, r5, r6, r7, r8, r9, r10, r11, lr}
 320              	@ 0 "" 2
 321              		.loc 1 244 0
 322              	@ 244 "/home/wicker/tools/ChibiOS_2.6.3/os/ports/GCC/ARMCMx/chcore_v7m.c" 1
 323 0004 C1F80CD0 		str     sp, [r1, #12]                          
 324 0008 D0F80CD0 		ldr     sp, [r0, #12]
 325              	@ 0 "" 2
 326              		.loc 1 250 0
 327              	@ 250 "/home/wicker/tools/ChibiOS_2.6.3/os/ports/GCC/ARMCMx/chcore_v7m.c" 1
 328 000c BDE8F08F 		pop     {r4, r5, r6, r7, r8, r9, r10, r11, pc}
 329              	@ 0 "" 2
 330              		.loc 1 252 0
 331              		.thumb
 332              		.cfi_endproc
 333              	.LFE12:
 334              		.size	_port_switch, .-_port_switch
ARM GAS  /tmp/cc5swW8S.s 			page 7


 335              		.section	.text._port_thread_start,"ax",%progbits
 336              		.align	2
 337              		.p2align 4,,15
 338              		.global	_port_thread_start
 339              		.thumb
 340              		.thumb_func
 341              		.type	_port_thread_start, %function
 342              	_port_thread_start:
 343              	.LFB13:
 344              		.loc 1 259 0
 345              		.cfi_startproc
 346              		@ args = 0, pretend = 0, frame = 0
 347              		@ frame_needed = 0, uses_anonymous_args = 0
 348              		@ link register save eliminated.
 349              	.LBB9:
 350              		.loc 1 261 0
 351 0000 0023     		movs	r3, #0
 352              	.LVL24:
 353              	@ 261 "/home/wicker/tools/ChibiOS_2.6.3/os/ports/GCC/ARMCMx/chcore_v7m.c" 1
 354 0002 83F31188 		msr     BASEPRI, r3
 355              	@ 0 "" 2
 356              	.LVL25:
 357              		.thumb
 358              	.LBE9:
 359              		.loc 1 262 0
 360              	@ 262 "/home/wicker/tools/ChibiOS_2.6.3/os/ports/GCC/ARMCMx/chcore_v7m.c" 1
 361 0006 2846     		mov     r0, r5                                 
 362 0008 A047     		blx     r4                                     
 363 000a FFF7FEFF 		bl      chThdExit
 364              	@ 0 "" 2
 365              		.thumb
 366 000e 7047     		bx	lr
 367              		.cfi_endproc
 368              	.LFE13:
 369              		.size	_port_thread_start, .-_port_thread_start
 370              		.text
 371              	.Letext0:
 372              		.file 2 "/opt/psas/x-tools/stm32f407/arm-psas-eabi/bin/../lib/gcc/arm-psas-eabi/4.7.2/../../../../
 373              		.file 3 "/home/wicker/tools/ChibiOS_2.6.3/os/ports/GCC/ARMCMx/chtypes.h"
 374              		.file 4 "/home/wicker/tools/ChibiOS_2.6.3/os/kernel/include/chlists.h"
 375              		.file 5 "/home/wicker/tools/ChibiOS_2.6.3/os/kernel/include/chthreads.h"
 376              		.file 6 "/home/wicker/tools/ChibiOS_2.6.3/os/ports/GCC/ARMCMx/chcore_v7m.h"
 377              		.file 7 "/home/wicker/tools/ChibiOS_2.6.3/os/ports/common/ARMCMx/nvic.h"
 378              		.file 8 "/home/wicker/tools/ChibiOS_2.6.3/os/kernel/include/chschd.h"
 379              		.file 9 "/home/wicker/tools/ChibiOS_2.6.3/os/kernel/include/chmtx.h"
 380              		.file 10 "/home/wicker/tools/ChibiOS_2.6.3/os/kernel/include/chsys.h"