ARM GAS  /tmp/cc998gUh.s 			page 1


   1              		.syntax unified
   2              		.cpu cortex-m4
   3              		.eabi_attribute 27, 3
   4              		.eabi_attribute 28, 1
   5              		.fpu fpv4-sp-d16
   6              		.eabi_attribute 20, 1
   7              		.eabi_attribute 21, 1
   8              		.eabi_attribute 23, 3
   9              		.eabi_attribute 24, 1
  10              		.eabi_attribute 25, 1
  11              		.eabi_attribute 26, 1
  12              		.eabi_attribute 30, 2
  13              		.eabi_attribute 34, 1
  14              		.eabi_attribute 18, 4
  15              		.thumb
  16              		.file	"chcond.c"
  17              		.text
  18              	.Ltext0:
  19              		.cfi_sections	.debug_frame
  20              		.section	.text.chCondInit,"ax",%progbits
  21              		.align	2
  22              		.p2align 4,,15
  23              		.global	chCondInit
  24              		.thumb
  25              		.thumb_func
  26              		.type	chCondInit, %function
  27              	chCondInit:
  28              	.LFB7:
  29              		.file 1 "/home/wicker/tools/ChibiOS_2.6.3/os/kernel/src/chcond.c"
  30              		.loc 1 59 0
  31              		.cfi_startproc
  32              		@ args = 0, pretend = 0, frame = 0
  33              		@ frame_needed = 0, uses_anonymous_args = 0
  34              		@ link register save eliminated.
  35              	.LVL0:
  36              		.loc 1 63 0
  37 0000 4060     		str	r0, [r0, #4]
  38 0002 0060     		str	r0, [r0, #0]
  39 0004 7047     		bx	lr
  40              		.cfi_endproc
  41              	.LFE7:
  42              		.size	chCondInit, .-chCondInit
  43 0006 00BFAFF3 		.section	.text.chCondSignal,"ax",%progbits
  43      0080AFF3 
  43      0080
  44              		.align	2
  45              		.p2align 4,,15
  46              		.global	chCondSignal
  47              		.thumb
  48              		.thumb_func
  49              		.type	chCondSignal, %function
  50              	chCondSignal:
  51              	.LFB8:
  52              		.loc 1 73 0
  53              		.cfi_startproc
  54              		@ args = 0, pretend = 0, frame = 0
  55              		@ frame_needed = 0, uses_anonymous_args = 0
ARM GAS  /tmp/cc998gUh.s 			page 2


  56              	.LVL1:
  57 0000 08B5     		push	{r3, lr}
  58              	.LCFI0:
  59              		.cfi_def_cfa_offset 8
  60              		.cfi_offset 3, -8
  61              		.cfi_offset 14, -4
  62              		.loc 1 73 0
  63 0002 0246     		mov	r2, r0
  64              	.LBB14:
  65              		.loc 1 77 0
  66 0004 2023     		movs	r3, #32
  67              	.LVL2:
  68              	@ 77 "/home/wicker/tools/ChibiOS_2.6.3/os/kernel/src/chcond.c" 1
  69 0006 83F31188 		msr     BASEPRI, r3
  70              	@ 0 "" 2
  71              	.LVL3:
  72              		.thumb
  73              	.LBE14:
  74              		.loc 1 78 0
  75 000a 0068     		ldr	r0, [r0, #0]
  76              	.LVL4:
  77 000c 9042     		cmp	r0, r2
  78 000e 05D0     		beq	.L3
  79              	.LVL5:
  80              	.LBB15:
  81              	.LBB16:
  82              		.file 2 "/home/wicker/tools/ChibiOS_2.6.3/os/kernel/include/chinline.h"
  83              		.loc 2 62 0
  84 0010 0368     		ldr	r3, [r0, #0]
  85              	.LVL6:
  86              	.LBE16:
  87              	.LBE15:
  88              		.loc 1 79 0
  89 0012 0021     		movs	r1, #0
  90              	.LBB18:
  91              	.LBB17:
  92              		.loc 2 62 0
  93 0014 1360     		str	r3, [r2, #0]
  94 0016 5A60     		str	r2, [r3, #4]
  95              	.LBE17:
  96              	.LBE18:
  97              		.loc 1 79 0
  98 0018 FFF7FEFF 		bl	chSchWakeupS
  99              	.LVL7:
 100              	.L3:
 101              	.LBB19:
 102              		.loc 1 80 0
 103 001c 0023     		movs	r3, #0
 104              	.LVL8:
 105              	@ 80 "/home/wicker/tools/ChibiOS_2.6.3/os/kernel/src/chcond.c" 1
 106 001e 83F31188 		msr     BASEPRI, r3
 107              	@ 0 "" 2
 108              	.LVL9:
 109              		.thumb
 110 0022 08BD     		pop	{r3, pc}
 111              	.LBE19:
 112              		.cfi_endproc
ARM GAS  /tmp/cc998gUh.s 			page 3


 113              	.LFE8:
 114              		.size	chCondSignal, .-chCondSignal
 115 0024 AFF30080 		.section	.text.chCondSignalI,"ax",%progbits
 115      AFF30080 
 115      AFF30080 
 116              		.align	2
 117              		.p2align 4,,15
 118              		.global	chCondSignalI
 119              		.thumb
 120              		.thumb_func
 121              		.type	chCondSignalI, %function
 122              	chCondSignalI:
 123              	.LFB9:
 124              		.loc 1 94 0
 125              		.cfi_startproc
 126              		@ args = 0, pretend = 0, frame = 0
 127              		@ frame_needed = 0, uses_anonymous_args = 0
 128              	.LVL10:
 129 0000 08B5     		push	{r3, lr}
 130              	.LCFI1:
 131              		.cfi_def_cfa_offset 8
 132              		.cfi_offset 3, -8
 133              		.cfi_offset 14, -4
 134              		.loc 1 94 0
 135 0002 0346     		mov	r3, r0
 136              		.loc 1 99 0
 137 0004 0068     		ldr	r0, [r0, #0]
 138              	.LVL11:
 139 0006 9842     		cmp	r0, r3
 140 0008 06D0     		beq	.L5
 141              	.LVL12:
 142              	.LBB20:
 143              	.LBB21:
 144              		.loc 2 62 0
 145 000a 0268     		ldr	r2, [r0, #0]
 146 000c 1A60     		str	r2, [r3, #0]
 147 000e 5360     		str	r3, [r2, #4]
 148              	.LBE21:
 149              	.LBE20:
 150              		.loc 1 100 0
 151 0010 FFF7FEFF 		bl	chSchReadyI
 152              	.LVL13:
 153 0014 0023     		movs	r3, #0
 154 0016 4362     		str	r3, [r0, #36]
 155              	.LVL14:
 156              	.L5:
 157 0018 08BD     		pop	{r3, pc}
 158              		.cfi_endproc
 159              	.LFE9:
 160              		.size	chCondSignalI, .-chCondSignalI
 161 001a 00BFAFF3 		.section	.text.chCondBroadcastI,"ax",%progbits
 161      0080
 162              		.align	2
 163              		.p2align 4,,15
 164              		.global	chCondBroadcastI
 165              		.thumb
 166              		.thumb_func
ARM GAS  /tmp/cc998gUh.s 			page 4


 167              		.type	chCondBroadcastI, %function
 168              	chCondBroadcastI:
 169              	.LFB11:
 170              		.loc 1 129 0
 171              		.cfi_startproc
 172              		@ args = 0, pretend = 0, frame = 0
 173              		@ frame_needed = 0, uses_anonymous_args = 0
 174              	.LVL15:
 175 0000 38B5     		push	{r3, r4, r5, lr}
 176              	.LCFI2:
 177              		.cfi_def_cfa_offset 16
 178              		.cfi_offset 3, -16
 179              		.cfi_offset 4, -12
 180              		.cfi_offset 5, -8
 181              		.cfi_offset 14, -4
 182              		.loc 1 129 0
 183 0002 0446     		mov	r4, r0
 184              		.loc 1 137 0
 185 0004 0068     		ldr	r0, [r0, #0]
 186              	.LVL16:
 187 0006 A042     		cmp	r0, r4
 188 0008 0AD0     		beq	.L7
 189              		.loc 1 138 0
 190 000a 6FF00105 		mvn	r5, #1
 191              	.L11:
 192              	.LVL17:
 193              	.LBB22:
 194              	.LBB23:
 195              		.loc 2 62 0
 196 000e 0368     		ldr	r3, [r0, #0]
 197 0010 2360     		str	r3, [r4, #0]
 198 0012 5C60     		str	r4, [r3, #4]
 199              	.LBE23:
 200              	.LBE22:
 201              		.loc 1 138 0
 202 0014 FFF7FEFF 		bl	chSchReadyI
 203              	.LVL18:
 204 0018 4562     		str	r5, [r0, #36]
 205              		.loc 1 137 0
 206 001a 2068     		ldr	r0, [r4, #0]
 207 001c A042     		cmp	r0, r4
 208 001e F6D1     		bne	.L11
 209              	.LVL19:
 210              	.L7:
 211 0020 38BD     		pop	{r3, r4, r5, pc}
 212              		.cfi_endproc
 213              	.LFE11:
 214              		.size	chCondBroadcastI, .-chCondBroadcastI
 215 0022 00BFAFF3 		.section	.text.chCondBroadcast,"ax",%progbits
 215      0080AFF3 
 215      0080AFF3 
 215      0080
 216              		.align	2
 217              		.p2align 4,,15
 218              		.global	chCondBroadcast
 219              		.thumb
 220              		.thumb_func
ARM GAS  /tmp/cc998gUh.s 			page 5


 221              		.type	chCondBroadcast, %function
 222              	chCondBroadcast:
 223              	.LFB10:
 224              		.loc 1 110 0
 225              		.cfi_startproc
 226              		@ args = 0, pretend = 0, frame = 0
 227              		@ frame_needed = 0, uses_anonymous_args = 0
 228              	.LVL20:
 229 0000 08B5     		push	{r3, lr}
 230              	.LCFI3:
 231              		.cfi_def_cfa_offset 8
 232              		.cfi_offset 3, -8
 233              		.cfi_offset 14, -4
 234              	.LBB24:
 235              		.loc 1 112 0
 236 0002 2023     		movs	r3, #32
 237              	.LVL21:
 238              	@ 112 "/home/wicker/tools/ChibiOS_2.6.3/os/kernel/src/chcond.c" 1
 239 0004 83F31188 		msr     BASEPRI, r3
 240              	@ 0 "" 2
 241              	.LVL22:
 242              		.thumb
 243              	.LBE24:
 244              		.loc 1 113 0
 245 0008 FFF7FEFF 		bl	chCondBroadcastI
 246              	.LVL23:
 247              		.loc 1 114 0
 248 000c FFF7FEFF 		bl	chSchRescheduleS
 249              	.LVL24:
 250              	.LBB25:
 251              		.loc 1 115 0
 252 0010 0023     		movs	r3, #0
 253              	.LVL25:
 254              	@ 115 "/home/wicker/tools/ChibiOS_2.6.3/os/kernel/src/chcond.c" 1
 255 0012 83F31188 		msr     BASEPRI, r3
 256              	@ 0 "" 2
 257              	.LVL26:
 258              		.thumb
 259 0016 08BD     		pop	{r3, pc}
 260              	.LBE25:
 261              		.cfi_endproc
 262              	.LFE10:
 263              		.size	chCondBroadcast, .-chCondBroadcast
 264 0018 AFF30080 		.section	.text.chCondWaitS,"ax",%progbits
 264      AFF30080 
 265              		.align	2
 266              		.p2align 4,,15
 267              		.global	chCondWaitS
 268              		.thumb
 269              		.thumb_func
 270              		.type	chCondWaitS, %function
 271              	chCondWaitS:
 272              	.LFB13:
 273              		.loc 1 184 0
 274              		.cfi_startproc
 275              		@ args = 0, pretend = 0, frame = 0
 276              		@ frame_needed = 0, uses_anonymous_args = 0
ARM GAS  /tmp/cc998gUh.s 			page 6


 277              	.LVL27:
 278 0000 F8B5     		push	{r3, r4, r5, r6, r7, lr}
 279              	.LCFI4:
 280              		.cfi_def_cfa_offset 24
 281              		.cfi_offset 3, -24
 282              		.cfi_offset 4, -20
 283              		.cfi_offset 5, -16
 284              		.cfi_offset 6, -12
 285              		.cfi_offset 7, -8
 286              		.cfi_offset 14, -4
 287              		.loc 1 185 0
 288 0002 104B     		ldr	r3, .L22
 289              		.loc 1 184 0
 290 0004 0546     		mov	r5, r0
 291              		.loc 1 185 0
 292 0006 9C69     		ldr	r4, [r3, #24]
 293              	.LVL28:
 294              		.loc 1 195 0
 295 0008 FFF7FEFF 		bl	chMtxUnlockS
 296              	.LVL29:
 297              		.loc 1 197 0
 298 000c 2E46     		mov	r6, r5
 299              		.loc 1 195 0
 300 000e 0746     		mov	r7, r0
 301              	.LVL30:
 302              		.loc 1 196 0
 303 0010 6562     		str	r5, [r4, #36]
 304              		.loc 2 43 0
 305 0012 2B46     		mov	r3, r5
 306 0014 03E0     		b	.L16
 307              	.LVL31:
 308              	.L21:
 309              	.LBB26:
 310              	.LBB27:
 311              		.loc 2 46 0
 312 0016 9968     		ldr	r1, [r3, #8]
 313 0018 A268     		ldr	r2, [r4, #8]
 314 001a 9142     		cmp	r1, r2
 315 001c 10D3     		bcc	.L20
 316              	.L16:
 317              		.loc 2 45 0
 318 001e 1B68     		ldr	r3, [r3, #0]
 319              	.LVL32:
 320              		.loc 2 46 0
 321 0020 9D42     		cmp	r5, r3
 322 0022 F8D1     		bne	.L21
 323              	.L17:
 324              		.loc 2 48 0
 325 0024 7368     		ldr	r3, [r6, #4]
 326              	.LVL33:
 327              		.loc 2 47 0
 328 0026 2660     		str	r6, [r4, #0]
 329              		.loc 2 48 0
 330 0028 6360     		str	r3, [r4, #4]
 331              		.loc 2 49 0
 332 002a 1C60     		str	r4, [r3, #0]
 333 002c 7460     		str	r4, [r6, #4]
ARM GAS  /tmp/cc998gUh.s 			page 7


 334              	.LBE27:
 335              	.LBE26:
 336              		.loc 1 198 0
 337 002e 0520     		movs	r0, #5
 338              	.LVL34:
 339 0030 FFF7FEFF 		bl	chSchGoSleepS
 340              	.LVL35:
 341              		.loc 1 199 0
 342 0034 646A     		ldr	r4, [r4, #36]
 343              	.LVL36:
 344              		.loc 1 200 0
 345 0036 3846     		mov	r0, r7
 346 0038 FFF7FEFF 		bl	chMtxLockS
 347              	.LVL37:
 348              		.loc 1 202 0
 349 003c 2046     		mov	r0, r4
 350 003e F8BD     		pop	{r3, r4, r5, r6, r7, pc}
 351              	.LVL38:
 352              	.L20:
 353              	.LBB29:
 354              	.LBB28:
 355              		.loc 2 46 0
 356 0040 1E46     		mov	r6, r3
 357 0042 EFE7     		b	.L17
 358              	.L23:
 359              		.align	2
 360              	.L22:
 361 0044 00000000 		.word	rlist
 362              	.LBE28:
 363              	.LBE29:
 364              		.cfi_endproc
 365              	.LFE13:
 366              		.size	chCondWaitS, .-chCondWaitS
 367 0048 AFF30080 		.section	.text.chCondWait,"ax",%progbits
 367      AFF30080 
 368              		.align	2
 369              		.p2align 4,,15
 370              		.global	chCondWait
 371              		.thumb
 372              		.thumb_func
 373              		.type	chCondWait, %function
 374              	chCondWait:
 375              	.LFB12:
 376              		.loc 1 158 0
 377              		.cfi_startproc
 378              		@ args = 0, pretend = 0, frame = 0
 379              		@ frame_needed = 0, uses_anonymous_args = 0
 380              	.LVL39:
 381 0000 08B5     		push	{r3, lr}
 382              	.LCFI5:
 383              		.cfi_def_cfa_offset 8
 384              		.cfi_offset 3, -8
 385              		.cfi_offset 14, -4
 386              	.LBB30:
 387              		.loc 1 161 0
 388 0002 2023     		movs	r3, #32
 389              	.LVL40:
ARM GAS  /tmp/cc998gUh.s 			page 8


 390              	@ 161 "/home/wicker/tools/ChibiOS_2.6.3/os/kernel/src/chcond.c" 1
 391 0004 83F31188 		msr     BASEPRI, r3
 392              	@ 0 "" 2
 393              	.LVL41:
 394              		.thumb
 395              	.LBE30:
 396              		.loc 1 162 0
 397 0008 FFF7FEFF 		bl	chCondWaitS
 398              	.LVL42:
 399              	.LBB31:
 400              		.loc 1 163 0
 401 000c 0023     		movs	r3, #0
 402              	.LVL43:
 403              	@ 163 "/home/wicker/tools/ChibiOS_2.6.3/os/kernel/src/chcond.c" 1
 404 000e 83F31188 		msr     BASEPRI, r3
 405              	@ 0 "" 2
 406              	.LVL44:
 407              		.thumb
 408              	.LBE31:
 409              		.loc 1 165 0
 410 0012 08BD     		pop	{r3, pc}
 411              		.cfi_endproc
 412              	.LFE12:
 413              		.size	chCondWait, .-chCondWait
 414 0014 AFF30080 		.section	.text.chCondWaitTimeoutS,"ax",%progbits
 414      AFF30080 
 414      AFF30080 
 415              		.align	2
 416              		.p2align 4,,15
 417              		.global	chCondWaitTimeoutS
 418              		.thumb
 419              		.thumb_func
 420              		.type	chCondWaitTimeoutS, %function
 421              	chCondWaitTimeoutS:
 422              	.LFB15:
 423              		.loc 1 270 0
 424              		.cfi_startproc
 425              		@ args = 0, pretend = 0, frame = 0
 426              		@ frame_needed = 0, uses_anonymous_args = 0
 427              	.LVL45:
 428 0000 2DE9F041 		push	{r4, r5, r6, r7, r8, lr}
 429              	.LCFI6:
 430              		.cfi_def_cfa_offset 24
 431              		.cfi_offset 4, -24
 432              		.cfi_offset 5, -20
 433              		.cfi_offset 6, -16
 434              		.cfi_offset 7, -12
 435              		.cfi_offset 8, -8
 436              		.cfi_offset 14, -4
 437              		.loc 1 270 0
 438 0004 0646     		mov	r6, r0
 439 0006 8846     		mov	r8, r1
 440              		.loc 1 280 0
 441 0008 FFF7FEFF 		bl	chMtxUnlockS
 442              	.LVL46:
 443              		.loc 1 281 0
 444 000c 0E4B     		ldr	r3, .L32
ARM GAS  /tmp/cc998gUh.s 			page 9


 445 000e 9A69     		ldr	r2, [r3, #24]
 446              		.loc 1 280 0
 447 0010 0746     		mov	r7, r0
 448              	.LVL47:
 449              		.loc 2 43 0
 450 0012 3346     		mov	r3, r6
 451              		.loc 1 281 0
 452 0014 5662     		str	r6, [r2, #36]
 453              	.LVL48:
 454              	.L29:
 455              	.LBB32:
 456              	.LBB33:
 457              		.loc 2 45 0
 458 0016 1B68     		ldr	r3, [r3, #0]
 459              	.LVL49:
 460              		.loc 2 46 0
 461 0018 9E42     		cmp	r6, r3
 462 001a 03D0     		beq	.L30
 463 001c 9D68     		ldr	r5, [r3, #8]
 464 001e 9468     		ldr	r4, [r2, #8]
 465 0020 A542     		cmp	r5, r4
 466 0022 F8D2     		bcs	.L29
 467              	.L30:
 468              		.loc 2 48 0
 469 0024 5C68     		ldr	r4, [r3, #4]
 470              	.LBE33:
 471              	.LBE32:
 472              		.loc 1 283 0
 473 0026 0520     		movs	r0, #5
 474              	.LVL50:
 475              	.LBB36:
 476              	.LBB34:
 477              		.loc 2 48 0
 478 0028 82E81800 		stmia	r2, {r3, r4}
 479              	.LBE34:
 480              	.LBE36:
 481              		.loc 1 283 0
 482 002c 4146     		mov	r1, r8
 483              	.LBB37:
 484              	.LBB35:
 485              		.loc 2 49 0
 486 002e 2260     		str	r2, [r4, #0]
 487 0030 5A60     		str	r2, [r3, #4]
 488              	.LBE35:
 489              	.LBE37:
 490              		.loc 1 283 0
 491 0032 FFF7FEFF 		bl	chSchGoSleepTimeoutS
 492              	.LVL51:
 493              		.loc 1 284 0
 494 0036 431C     		adds	r3, r0, #1
 495              		.loc 1 283 0
 496 0038 0446     		mov	r4, r0
 497              	.LVL52:
 498              		.loc 1 284 0
 499 003a 02D0     		beq	.L28
 500              		.loc 1 285 0
 501 003c 3846     		mov	r0, r7
ARM GAS  /tmp/cc998gUh.s 			page 10


 502              	.LVL53:
 503 003e FFF7FEFF 		bl	chMtxLockS
 504              	.LVL54:
 505              	.L28:
 506              		.loc 1 287 0
 507 0042 2046     		mov	r0, r4
 508 0044 BDE8F081 		pop	{r4, r5, r6, r7, r8, pc}
 509              	.L33:
 510              		.align	2
 511              	.L32:
 512 0048 00000000 		.word	rlist
 513              		.cfi_endproc
 514              	.LFE15:
 515              		.size	chCondWaitTimeoutS, .-chCondWaitTimeoutS
 516 004c AFF30080 		.section	.text.chCondWaitTimeout,"ax",%progbits
 517              		.align	2
 518              		.p2align 4,,15
 519              		.global	chCondWaitTimeout
 520              		.thumb
 521              		.thumb_func
 522              		.type	chCondWaitTimeout, %function
 523              	chCondWaitTimeout:
 524              	.LFB14:
 525              		.loc 1 233 0
 526              		.cfi_startproc
 527              		@ args = 0, pretend = 0, frame = 0
 528              		@ frame_needed = 0, uses_anonymous_args = 0
 529              	.LVL55:
 530 0000 08B5     		push	{r3, lr}
 531              	.LCFI7:
 532              		.cfi_def_cfa_offset 8
 533              		.cfi_offset 3, -8
 534              		.cfi_offset 14, -4
 535              	.LBB38:
 536              		.loc 1 236 0
 537 0002 2023     		movs	r3, #32
 538              	.LVL56:
 539              	@ 236 "/home/wicker/tools/ChibiOS_2.6.3/os/kernel/src/chcond.c" 1
 540 0004 83F31188 		msr     BASEPRI, r3
 541              	@ 0 "" 2
 542              	.LVL57:
 543              		.thumb
 544              	.LBE38:
 545              		.loc 1 237 0
 546 0008 FFF7FEFF 		bl	chCondWaitTimeoutS
 547              	.LVL58:
 548              	.LBB39:
 549              		.loc 1 238 0
 550 000c 0023     		movs	r3, #0
 551              	.LVL59:
 552              	@ 238 "/home/wicker/tools/ChibiOS_2.6.3/os/kernel/src/chcond.c" 1
 553 000e 83F31188 		msr     BASEPRI, r3
 554              	@ 0 "" 2
 555              	.LVL60:
 556              		.thumb
 557              	.LBE39:
 558              		.loc 1 240 0
ARM GAS  /tmp/cc998gUh.s 			page 11


 559 0012 08BD     		pop	{r3, pc}
 560              		.cfi_endproc
 561              	.LFE14:
 562              		.size	chCondWaitTimeout, .-chCondWaitTimeout
 563 0014 AFF30080 		.text
 563      AFF30080 
 563      AFF30080 
 564              	.Letext0:
 565              		.file 3 "/opt/psas/x-tools/stm32f407/arm-psas-eabi/bin/../lib/gcc/arm-psas-eabi/4.7.2/../../../../
 566              		.file 4 "/home/wicker/tools/ChibiOS_2.6.3/os/ports/GCC/ARMCMx/chtypes.h"
 567              		.file 5 "/home/wicker/tools/ChibiOS_2.6.3/os/kernel/include/chlists.h"
 568              		.file 6 "/home/wicker/tools/ChibiOS_2.6.3/os/kernel/include/chthreads.h"
 569              		.file 7 "/home/wicker/tools/ChibiOS_2.6.3/os/ports/GCC/ARMCMx/chcore_v7m.h"
 570              		.file 8 "/home/wicker/tools/ChibiOS_2.6.3/os/kernel/include/chschd.h"
 571              		.file 9 "/home/wicker/tools/ChibiOS_2.6.3/os/kernel/include/chmtx.h"
 572              		.file 10 "/home/wicker/tools/ChibiOS_2.6.3/os/kernel/include/chcond.h"