ARM GAS  /tmp/cck6ZUJL.s 			page 1


   1              		.syntax unified
   2              		.cpu cortex-m4
   3              		.eabi_attribute 27, 3
   4              		.eabi_attribute 28, 1
   5              		.fpu fpv4-sp-d16
   6              		.eabi_attribute 20, 1
   7              		.eabi_attribute 21, 1
   8              		.eabi_attribute 23, 3
   9              		.eabi_attribute 24, 1
  10              		.eabi_attribute 25, 1
  11              		.eabi_attribute 26, 1
  12              		.eabi_attribute 30, 2
  13              		.eabi_attribute 34, 1
  14              		.eabi_attribute 18, 4
  15              		.thumb
  16              		.file	"chdynamic.c"
  17              		.text
  18              	.Ltext0:
  19              		.cfi_sections	.debug_frame
  20              		.section	.text.chThdAddRef,"ax",%progbits
  21              		.align	2
  22              		.p2align 4,,15
  23              		.global	chThdAddRef
  24              		.thumb
  25              		.thumb_func
  26              		.type	chThdAddRef, %function
  27              	chThdAddRef:
  28              	.LFB7:
  29              		.file 1 "/home/wicker/tools/ChibiOS_2.6.3/os/kernel/src/chdynamic.c"
  30              		.loc 1 52 0
  31              		.cfi_startproc
  32              		@ args = 0, pretend = 0, frame = 0
  33              		@ frame_needed = 0, uses_anonymous_args = 0
  34              		@ link register save eliminated.
  35              	.LVL0:
  36              	.LBB2:
  37              		.loc 1 54 0
  38 0000 2023     		movs	r3, #32
  39              	.LVL1:
  40              	@ 54 "/home/wicker/tools/ChibiOS_2.6.3/os/kernel/src/chdynamic.c" 1
  41 0002 83F31188 		msr     BASEPRI, r3
  42              	@ 0 "" 2
  43              	.LVL2:
  44              		.thumb
  45              	.LBE2:
  46              		.loc 1 56 0
  47 0006 837F     		ldrb	r3, [r0, #30]	@ zero_extendqisi2
  48              	.LVL3:
  49 0008 0133     		adds	r3, r3, #1
  50 000a 8377     		strb	r3, [r0, #30]
  51              	.LBB3:
  52              		.loc 1 57 0
  53 000c 0023     		movs	r3, #0
  54              	.LVL4:
  55              	@ 57 "/home/wicker/tools/ChibiOS_2.6.3/os/kernel/src/chdynamic.c" 1
  56 000e 83F31188 		msr     BASEPRI, r3
  57              	@ 0 "" 2
ARM GAS  /tmp/cck6ZUJL.s 			page 2


  58              	.LVL5:
  59              		.thumb
  60              	.LBE3:
  61              		.loc 1 59 0
  62 0012 7047     		bx	lr
  63              		.cfi_endproc
  64              	.LFE7:
  65              		.size	chThdAddRef, .-chThdAddRef
  66 0014 AFF30080 		.section	.text.chThdRelease,"ax",%progbits
  66      AFF30080 
  66      AFF30080 
  67              		.align	2
  68              		.p2align 4,,15
  69              		.global	chThdRelease
  70              		.thumb
  71              		.thumb_func
  72              		.type	chThdRelease, %function
  73              	chThdRelease:
  74              	.LFB8:
  75              		.loc 1 74 0
  76              		.cfi_startproc
  77              		@ args = 0, pretend = 0, frame = 0
  78              		@ frame_needed = 0, uses_anonymous_args = 0
  79              		@ link register save eliminated.
  80              	.LVL6:
  81              		.loc 1 74 0
  82 0000 0146     		mov	r1, r0
  83              	.LBB4:
  84              		.loc 1 77 0
  85 0002 2023     		movs	r3, #32
  86              	.LVL7:
  87              	@ 77 "/home/wicker/tools/ChibiOS_2.6.3/os/kernel/src/chdynamic.c" 1
  88 0004 83F31188 		msr     BASEPRI, r3
  89              	@ 0 "" 2
  90              	.LVL8:
  91              		.thumb
  92              	.LBE4:
  93              		.loc 1 79 0
  94 0008 827F     		ldrb	r2, [r0, #30]	@ zero_extendqisi2
  95 000a 013A     		subs	r2, r2, #1
  96 000c D2B2     		uxtb	r2, r2
  97 000e 8277     		strb	r2, [r0, #30]
  98              	.LVL9:
  99              	.LBB5:
 100              		.loc 1 80 0
 101 0010 0023     		movs	r3, #0
 102              	.LVL10:
 103              	@ 80 "/home/wicker/tools/ChibiOS_2.6.3/os/kernel/src/chdynamic.c" 1
 104 0012 83F31188 		msr     BASEPRI, r3
 105              	@ 0 "" 2
 106              	.LVL11:
 107              		.thumb
 108              	.LBE5:
 109              		.loc 1 85 0
 110 0016 12B9     		cbnz	r2, .L2
 111              		.loc 1 85 0 is_stmt 0 discriminator 1
 112 0018 037F     		ldrb	r3, [r0, #28]	@ zero_extendqisi2
ARM GAS  /tmp/cck6ZUJL.s 			page 3


 113              	.LVL12:
 114 001a 0E2B     		cmp	r3, #14
 115 001c 00D0     		beq	.L7
 116              	.LVL13:
 117              	.L2:
 118 001e 7047     		bx	lr
 119              	.LVL14:
 120              	.L7:
 121              		.loc 1 86 0 is_stmt 1
 122 0020 437F     		ldrb	r3, [r0, #29]	@ zero_extendqisi2
 123 0022 03F00303 		and	r3, r3, #3
 124 0026 012B     		cmp	r3, #1
 125 0028 09D0     		beq	.L4
 126 002a 022B     		cmp	r3, #2
 127 002c F7D1     		bne	.L2
 128              		.loc 1 98 0
 129 002e 4369     		ldr	r3, [r0, #20]
 130 0030 0269     		ldr	r2, [r0, #16]
 131              	.LVL15:
 132              		.loc 1 100 0
 133 0032 406C     		ldr	r0, [r0, #68]
 134              	.LVL16:
 135              		.loc 1 98 0
 136 0034 1A61     		str	r2, [r3, #16]
 137 0036 0A69     		ldr	r2, [r1, #16]
 138 0038 5361     		str	r3, [r2, #20]
 139              		.loc 1 105 0
 140              		.loc 1 100 0
 141 003a FFF7FEBF 		b	chPoolFree
 142              	.LVL17:
 143              	.L4:
 144              		.loc 1 90 0
 145 003e 4369     		ldr	r3, [r0, #20]
 146 0040 0269     		ldr	r2, [r0, #16]
 147              	.LVL18:
 148 0042 1A61     		str	r2, [r3, #16]
 149 0044 0269     		ldr	r2, [r0, #16]
 150 0046 5361     		str	r3, [r2, #20]
 151              		.loc 1 105 0
 152              		.loc 1 92 0
 153 0048 FFF7FEBF 		b	chHeapFree
 154              	.LVL19:
 155              		.cfi_endproc
 156              	.LFE8:
 157              		.size	chThdRelease, .-chThdRelease
 158 004c AFF30080 		.section	.text.chThdCreateFromHeap,"ax",%progbits
 159              		.align	2
 160              		.p2align 4,,15
 161              		.global	chThdCreateFromHeap
 162              		.thumb
 163              		.thumb_func
 164              		.type	chThdCreateFromHeap, %function
 165              	chThdCreateFromHeap:
 166              	.LFB9:
 167              		.loc 1 131 0
 168              		.cfi_startproc
 169              		@ args = 4, pretend = 0, frame = 0
ARM GAS  /tmp/cck6ZUJL.s 			page 4


 170              		@ frame_needed = 0, uses_anonymous_args = 0
 171              	.LVL20:
 172 0000 F0B5     		push	{r4, r5, r6, r7, lr}
 173              	.LCFI0:
 174              		.cfi_def_cfa_offset 20
 175              		.cfi_offset 4, -20
 176              		.cfi_offset 5, -16
 177              		.cfi_offset 6, -12
 178              		.cfi_offset 7, -8
 179              		.cfi_offset 14, -4
 180 0002 83B0     		sub	sp, sp, #12
 181              	.LCFI1:
 182              		.cfi_def_cfa_offset 32
 183              		.loc 1 131 0
 184 0004 0D46     		mov	r5, r1
 185 0006 1746     		mov	r7, r2
 186 0008 1E46     		mov	r6, r3
 187              		.loc 1 135 0
 188 000a FFF7FEFF 		bl	chHeapAlloc
 189              	.LVL21:
 190              		.loc 1 136 0
 191 000e 0446     		mov	r4, r0
 192 0010 90B1     		cbz	r0, .L9
 193              	.LBB6:
 194              		.loc 1 148 0
 195 0012 2023     		movs	r3, #32
 196              	.LVL22:
 197              	@ 148 "/home/wicker/tools/ChibiOS_2.6.3/os/kernel/src/chdynamic.c" 1
 198 0014 83F31188 		msr     BASEPRI, r3
 199              	@ 0 "" 2
 200              	.LVL23:
 201              		.thumb
 202              	.LBE6:
 203              		.loc 1 149 0
 204 0018 089C     		ldr	r4, [sp, #32]
 205 001a 3346     		mov	r3, r6
 206              	.LVL24:
 207 001c 2946     		mov	r1, r5
 208 001e 3A46     		mov	r2, r7
 209 0020 0094     		str	r4, [sp, #0]
 210 0022 FFF7FEFF 		bl	chThdCreateI
 211              	.LVL25:
 212              		.loc 1 150 0
 213 0026 0123     		movs	r3, #1
 214 0028 4377     		strb	r3, [r0, #29]
 215              		.loc 1 151 0
 216 002a 0021     		movs	r1, #0
 217              		.loc 1 149 0
 218 002c 0446     		mov	r4, r0
 219              	.LVL26:
 220              		.loc 1 151 0
 221 002e FFF7FEFF 		bl	chSchWakeupS
 222              	.LVL27:
 223              	.LBB7:
 224              		.loc 1 152 0
 225 0032 0023     		movs	r3, #0
 226              	.LVL28:
ARM GAS  /tmp/cck6ZUJL.s 			page 5


 227              	@ 152 "/home/wicker/tools/ChibiOS_2.6.3/os/kernel/src/chdynamic.c" 1
 228 0034 83F31188 		msr     BASEPRI, r3
 229              	@ 0 "" 2
 230              	.LVL29:
 231              		.thumb
 232              	.L9:
 233              	.LBE7:
 234              		.loc 1 154 0
 235 0038 2046     		mov	r0, r4
 236 003a 03B0     		add	sp, sp, #12
 237 003c F0BD     		pop	{r4, r5, r6, r7, pc}
 238              		.cfi_endproc
 239              	.LFE9:
 240              		.size	chThdCreateFromHeap, .-chThdCreateFromHeap
 241 003e 00BF     		.section	.text.chThdCreateFromMemoryPool,"ax",%progbits
 242              		.align	2
 243              		.p2align 4,,15
 244              		.global	chThdCreateFromMemoryPool
 245              		.thumb
 246              		.thumb_func
 247              		.type	chThdCreateFromMemoryPool, %function
 248              	chThdCreateFromMemoryPool:
 249              	.LFB10:
 250              		.loc 1 180 0
 251              		.cfi_startproc
 252              		@ args = 0, pretend = 0, frame = 0
 253              		@ frame_needed = 0, uses_anonymous_args = 0
 254              	.LVL30:
 255 0000 2DE9F041 		push	{r4, r5, r6, r7, r8, lr}
 256              	.LCFI2:
 257              		.cfi_def_cfa_offset 24
 258              		.cfi_offset 4, -24
 259              		.cfi_offset 5, -20
 260              		.cfi_offset 6, -16
 261              		.cfi_offset 7, -12
 262              		.cfi_offset 8, -8
 263              		.cfi_offset 14, -4
 264 0004 82B0     		sub	sp, sp, #8
 265              	.LCFI3:
 266              		.cfi_def_cfa_offset 32
 267              		.loc 1 180 0
 268 0006 0546     		mov	r5, r0
 269 0008 0E46     		mov	r6, r1
 270 000a 9046     		mov	r8, r2
 271 000c 1F46     		mov	r7, r3
 272              		.loc 1 186 0
 273 000e FFF7FEFF 		bl	chPoolAlloc
 274              	.LVL31:
 275              		.loc 1 187 0
 276 0012 0446     		mov	r4, r0
 277 0014 90B1     		cbz	r0, .L12
 278              	.LBB8:
 279              		.loc 1 199 0
 280 0016 2023     		movs	r3, #32
 281              	.LVL32:
 282              	@ 199 "/home/wicker/tools/ChibiOS_2.6.3/os/kernel/src/chdynamic.c" 1
 283 0018 83F31188 		msr     BASEPRI, r3
ARM GAS  /tmp/cck6ZUJL.s 			page 6


 284              	@ 0 "" 2
 285              	.LVL33:
 286              		.thumb
 287              	.LBE8:
 288              		.loc 1 200 0
 289 001c 6968     		ldr	r1, [r5, #4]
 290 001e 0097     		str	r7, [sp, #0]
 291 0020 4346     		mov	r3, r8
 292              	.LVL34:
 293 0022 3246     		mov	r2, r6
 294 0024 FFF7FEFF 		bl	chThdCreateI
 295              	.LVL35:
 296              		.loc 1 201 0
 297 0028 0223     		movs	r3, #2
 298 002a 4377     		strb	r3, [r0, #29]
 299              		.loc 1 202 0
 300 002c 4564     		str	r5, [r0, #68]
 301              		.loc 1 203 0
 302 002e 0021     		movs	r1, #0
 303              		.loc 1 200 0
 304 0030 0446     		mov	r4, r0
 305              	.LVL36:
 306              		.loc 1 203 0
 307 0032 FFF7FEFF 		bl	chSchWakeupS
 308              	.LVL37:
 309              	.LBB9:
 310              		.loc 1 204 0
 311 0036 0023     		movs	r3, #0
 312              	.LVL38:
 313              	@ 204 "/home/wicker/tools/ChibiOS_2.6.3/os/kernel/src/chdynamic.c" 1
 314 0038 83F31188 		msr     BASEPRI, r3
 315              	@ 0 "" 2
 316              	.LVL39:
 317              		.thumb
 318              	.L12:
 319              	.LBE9:
 320              		.loc 1 206 0
 321 003c 2046     		mov	r0, r4
 322 003e 02B0     		add	sp, sp, #8
 323 0040 BDE8F081 		pop	{r4, r5, r6, r7, r8, pc}
 324              		.cfi_endproc
 325              	.LFE10:
 326              		.size	chThdCreateFromMemoryPool, .-chThdCreateFromMemoryPool
 327 0044 AFF30080 		.text
 327      AFF30080 
 327      AFF30080 
 328              	.Letext0:
 329              		.file 2 "/opt/psas/x-tools/stm32f407/arm-psas-eabi/bin/../lib/gcc/arm-psas-eabi/4.7.2/include/stdd
 330              		.file 3 "/opt/psas/x-tools/stm32f407/arm-psas-eabi/bin/../lib/gcc/arm-psas-eabi/4.7.2/../../../../
 331              		.file 4 "/home/wicker/tools/ChibiOS_2.6.3/os/ports/GCC/ARMCMx/chtypes.h"
 332              		.file 5 "/home/wicker/tools/ChibiOS_2.6.3/os/kernel/include/chlists.h"
 333              		.file 6 "/home/wicker/tools/ChibiOS_2.6.3/os/kernel/include/chthreads.h"
 334              		.file 7 "/home/wicker/tools/ChibiOS_2.6.3/os/ports/GCC/ARMCMx/chcore_v7m.h"
 335              		.file 8 "/home/wicker/tools/ChibiOS_2.6.3/os/kernel/include/chmtx.h"
 336              		.file 9 "/home/wicker/tools/ChibiOS_2.6.3/os/kernel/include/chmemcore.h"
 337              		.file 10 "/home/wicker/tools/ChibiOS_2.6.3/os/kernel/include/chheap.h"
 338              		.file 11 "/home/wicker/tools/ChibiOS_2.6.3/os/kernel/include/chmempools.h"
ARM GAS  /tmp/cck6ZUJL.s 			page 7


 339              		.file 12 "/home/wicker/tools/ChibiOS_2.6.3/os/kernel/include/chschd.h"