ARM GAS  /tmp/ccM3iFrl.s 			page 1


   1              		.syntax unified
   2              		.cpu cortex-m4
   3              		.eabi_attribute 27, 3
   4              		.eabi_attribute 28, 1
   5              		.fpu fpv4-sp-d16
   6              		.eabi_attribute 20, 1
   7              		.eabi_attribute 21, 1
   8              		.eabi_attribute 23, 3
   9              		.eabi_attribute 24, 1
  10              		.eabi_attribute 25, 1
  11              		.eabi_attribute 26, 1
  12              		.eabi_attribute 30, 2
  13              		.eabi_attribute 34, 1
  14              		.eabi_attribute 18, 4
  15              		.thumb
  16              		.file	"chheap.c"
  17              		.text
  18              	.Ltext0:
  19              		.cfi_sections	.debug_frame
  20              		.section	.text._heap_init,"ax",%progbits
  21              		.align	2
  22              		.p2align 4,,15
  23              		.global	_heap_init
  24              		.thumb
  25              		.thumb_func
  26              		.type	_heap_init, %function
  27              	_heap_init:
  28              	.LFB7:
  29              		.file 1 "/home/wicker/tools/ChibiOS_2.6.3/os/kernel/src/chheap.c"
  30              		.loc 1 75 0
  31              		.cfi_startproc
  32              		@ args = 0, pretend = 0, frame = 0
  33              		@ frame_needed = 0, uses_anonymous_args = 0
  34              		@ link register save eliminated.
  35              		.loc 1 76 0
  36 0000 40F20003 		movw	r3, #:lower16:.LANCHOR0
  37 0004 C0F20003 		movt	r3, #:upper16:.LANCHOR0
  38 0008 40F20001 		movw	r1, #:lower16:chCoreAlloc
  39              		.loc 1 77 0
  40 000c 0022     		movs	r2, #0
  41              		.loc 1 76 0
  42 000e C0F20001 		movt	r1, #:upper16:chCoreAlloc
  43              		.loc 1 80 0
  44 0012 03F11000 		add	r0, r3, #16
  45              		.loc 1 76 0
  46 0016 1960     		str	r1, [r3, #0]
  47              		.loc 1 77 0
  48 0018 9A60     		str	r2, [r3, #8]
  49              		.loc 1 78 0
  50 001a DA60     		str	r2, [r3, #12]
  51              		.loc 1 84 0
  52              		.loc 1 80 0
  53 001c FFF7FEBF 		b	chMtxInit
  54              	.LVL0:
  55              		.cfi_endproc
  56              	.LFE7:
  57              		.size	_heap_init, .-_heap_init
ARM GAS  /tmp/ccM3iFrl.s 			page 2


  58              		.section	.text.chHeapInit,"ax",%progbits
  59              		.align	2
  60              		.p2align 4,,15
  61              		.global	chHeapInit
  62              		.thumb
  63              		.thumb_func
  64              		.type	chHeapInit, %function
  65              	chHeapInit:
  66              	.LFB8:
  67              		.loc 1 99 0
  68              		.cfi_startproc
  69              		@ args = 0, pretend = 0, frame = 0
  70              		@ frame_needed = 0, uses_anonymous_args = 0
  71              		@ link register save eliminated.
  72              	.LVL1:
  73              		.loc 1 104 0
  74 0000 0023     		movs	r3, #0
  75 0002 0360     		str	r3, [r0, #0]
  76              	.LVL2:
  77              		.loc 1 105 0
  78 0004 8160     		str	r1, [r0, #8]
  79              		.loc 1 106 0
  80 0006 C360     		str	r3, [r0, #12]
  81              		.loc 1 108 0
  82 0008 083A     		subs	r2, r2, #8
  83              	.LVL3:
  84              		.loc 1 110 0
  85 000a 1030     		adds	r0, r0, #16
  86              	.LVL4:
  87              		.loc 1 107 0
  88 000c 0B60     		str	r3, [r1, #0]
  89              		.loc 1 108 0
  90 000e 4A60     		str	r2, [r1, #4]
  91              		.loc 1 114 0
  92              		.loc 1 110 0
  93 0010 FFF7FEBF 		b	chMtxInit
  94              	.LVL5:
  95              		.cfi_endproc
  96              	.LFE8:
  97              		.size	chHeapInit, .-chHeapInit
  98 0014 AFF30080 		.section	.text.chHeapAlloc,"ax",%progbits
  98      AFF30080 
  98      AFF30080 
  99              		.align	2
 100              		.p2align 4,,15
 101              		.global	chHeapAlloc
 102              		.thumb
 103              		.thumb_func
 104              		.type	chHeapAlloc, %function
 105              	chHeapAlloc:
 106              	.LFB9:
 107              		.loc 1 132 0
 108              		.cfi_startproc
 109              		@ args = 0, pretend = 0, frame = 0
 110              		@ frame_needed = 0, uses_anonymous_args = 0
 111              	.LVL6:
 112 0000 F8B5     		push	{r3, r4, r5, r6, r7, lr}
ARM GAS  /tmp/ccM3iFrl.s 			page 3


 113              	.LCFI0:
 114              		.cfi_def_cfa_offset 24
 115              		.cfi_offset 3, -24
 116              		.cfi_offset 4, -20
 117              		.cfi_offset 5, -16
 118              		.cfi_offset 6, -12
 119              		.cfi_offset 7, -8
 120              		.cfi_offset 14, -4
 121              		.loc 1 136 0
 122 0002 204E     		ldr	r6, .L20
 123 0004 0028     		cmp	r0, #0
 124 0006 18BF     		it	ne
 125 0008 0646     		movne	r6, r0
 126              	.LVL7:
 127              		.loc 1 138 0
 128 000a 0731     		adds	r1, r1, #7
 129              	.LVL8:
 130              		.loc 1 140 0
 131 000c 06F11000 		add	r0, r6, #16
 132              		.loc 1 138 0
 133 0010 21F00705 		bic	r5, r1, #7
 134              	.LVL9:
 135              		.loc 1 139 0
 136 0014 06F10804 		add	r4, r6, #8
 137              	.LVL10:
 138              		.loc 1 140 0
 139 0018 FFF7FEFF 		bl	chMtxLock
 140              	.LVL11:
 141              		.loc 1 142 0
 142 001c 00E0     		b	.L5
 143              	.LVL12:
 144              	.L13:
 145              		.loc 1 144 0
 146 001e 1C46     		mov	r4, r3
 147              	.LVL13:
 148              	.L5:
 149              		.loc 1 142 0 discriminator 1
 150 0020 2368     		ldr	r3, [r4, #0]
 151              	.LVL14:
 152 0022 FBB1     		cbz	r3, .L18
 153              		.loc 1 144 0
 154 0024 5A68     		ldr	r2, [r3, #4]
 155 0026 9542     		cmp	r5, r2
 156 0028 F9D8     		bhi	.L13
 157              		.loc 1 145 0
 158 002a 05F10801 		add	r1, r5, #8
 159 002e 9142     		cmp	r1, r2
 160 0030 15D8     		bhi	.L19
 161              		.loc 1 155 0
 162 0032 4FF6F870 		movw	r0, #65528
 163 0036 CFF6FF70 		movt	r0, 65535
 164 003a 401B     		subs	r0, r0, r5
 165              		.loc 1 153 0
 166 003c 03EB010E 		add	lr, r3, r1
 167              	.LVL15:
 168              		.loc 1 155 0
 169 0040 8218     		adds	r2, r0, r2
ARM GAS  /tmp/ccM3iFrl.s 			page 4


 170              		.loc 1 154 0
 171 0042 1868     		ldr	r0, [r3, #0]
 172              		.loc 1 155 0
 173 0044 CEF80420 		str	r2, [lr, #4]
 174              		.loc 1 154 0
 175 0048 5850     		str	r0, [r3, r1]
 176              		.loc 1 157 0
 177 004a 5D60     		str	r5, [r3, #4]
 178              		.loc 1 156 0
 179 004c C4F800E0 		str	lr, [r4, #0]
 180              	.LVL16:
 181              	.L7:
 182              		.loc 1 159 0
 183 0050 1C46     		mov	r4, r3
 184              	.LVL17:
 185 0052 44F8086B 		str	r6, [r4], #8
 186              		.loc 1 161 0
 187 0056 FFF7FEFF 		bl	chMtxUnlock
 188              	.LVL18:
 189              	.L8:
 190              		.loc 1 181 0
 191 005a 2046     		mov	r0, r4
 192 005c F8BD     		pop	{r3, r4, r5, r6, r7, pc}
 193              	.LVL19:
 194              	.L19:
 195              		.loc 1 149 0
 196 005e 1A68     		ldr	r2, [r3, #0]
 197 0060 2260     		str	r2, [r4, #0]
 198 0062 F5E7     		b	.L7
 199              	.L18:
 200              		.loc 1 167 0
 201 0064 FFF7FEFF 		bl	chMtxUnlock
 202              	.LVL20:
 203              		.loc 1 171 0
 204 0068 3368     		ldr	r3, [r6, #0]
 205 006a 4BB1     		cbz	r3, .L11
 206              		.loc 1 172 0
 207 006c 05F10800 		add	r0, r5, #8
 208 0070 9847     		blx	r3
 209              	.LVL21:
 210              		.loc 1 173 0
 211 0072 28B1     		cbz	r0, .L11
 212              		.loc 1 177 0
 213 0074 00F10804 		add	r4, r0, #8
 214              	.LVL22:
 215              		.loc 1 174 0
 216 0078 0660     		str	r6, [r0, #0]
 217              		.loc 1 175 0
 218 007a 4560     		str	r5, [r0, #4]
 219              	.LVL23:
 220              		.loc 1 181 0
 221 007c 2046     		mov	r0, r4
 222 007e F8BD     		pop	{r3, r4, r5, r6, r7, pc}
 223              	.LVL24:
 224              	.L11:
 225              		.loc 1 180 0
 226 0080 0024     		movs	r4, #0
ARM GAS  /tmp/ccM3iFrl.s 			page 5


 227              	.LVL25:
 228 0082 EAE7     		b	.L8
 229              	.L21:
 230              		.align	2
 231              	.L20:
 232 0084 00000000 		.word	.LANCHOR0
 233              		.cfi_endproc
 234              	.LFE9:
 235              		.size	chHeapAlloc, .-chHeapAlloc
 236 0088 AFF30080 		.section	.text.chHeapFree,"ax",%progbits
 236      AFF30080 
 237              		.align	2
 238              		.p2align 4,,15
 239              		.global	chHeapFree
 240              		.thumb
 241              		.thumb_func
 242              		.type	chHeapFree, %function
 243              	chHeapFree:
 244              	.LFB10:
 245              		.loc 1 194 0
 246              		.cfi_startproc
 247              		@ args = 0, pretend = 0, frame = 0
 248              		@ frame_needed = 0, uses_anonymous_args = 0
 249              	.LVL26:
 250 0000 70B5     		push	{r4, r5, r6, lr}
 251              	.LCFI1:
 252              		.cfi_def_cfa_offset 16
 253              		.cfi_offset 4, -16
 254              		.cfi_offset 5, -12
 255              		.cfi_offset 6, -8
 256              		.cfi_offset 14, -4
 257              		.loc 1 194 0
 258 0002 0646     		mov	r6, r0
 259              		.loc 1 200 0
 260 0004 A0F10804 		sub	r4, r0, #8
 261              	.LVL27:
 262              		.loc 1 201 0
 263 0008 50F8080C 		ldr	r0, [r0, #-8]
 264              	.LVL28:
 265              		.loc 1 202 0
 266 000c 00F10805 		add	r5, r0, #8
 267              	.LVL29:
 268              		.loc 1 203 0
 269 0010 1030     		adds	r0, r0, #16
 270              	.LVL30:
 271 0012 FFF7FEFF 		bl	chMtxLock
 272              	.LVL31:
 273              		.loc 1 202 0
 274 0016 2B46     		mov	r3, r5
 275              	.LVL32:
 276              	.L29:
 277              		.loc 1 210 0
 278 0018 AB42     		cmp	r3, r5
 279              		.loc 1 211 0
 280 001a 1A68     		ldr	r2, [r3, #0]
 281              		.loc 1 210 0
 282 001c 01D0     		beq	.L23
ARM GAS  /tmp/ccM3iFrl.s 			page 6


 283              		.loc 1 210 0 is_stmt 0 discriminator 2
 284 001e A342     		cmp	r3, r4
 285 0020 02D2     		bcs	.L26
 286              	.L23:
 287              		.loc 1 210 0 discriminator 1
 288 0022 1AB1     		cbz	r2, .L25
 289              		.loc 1 211 0 is_stmt 1
 290 0024 9442     		cmp	r4, r2
 291 0026 01D3     		bcc	.L25
 292              	.L26:
 293              	.LVL33:
 294              		.loc 1 228 0
 295 0028 1346     		mov	r3, r2
 296              		.loc 1 229 0
 297 002a F5E7     		b	.L29
 298              	.LVL34:
 299              	.L25:
 300              		.loc 1 216 0
 301 002c 56F8041C 		ldr	r1, [r6, #-4]
 302              		.loc 1 213 0
 303 0030 46F8082C 		str	r2, [r6, #-8]
 304              		.loc 1 214 0
 305 0034 1C60     		str	r4, [r3, #0]
 306              		.loc 1 216 0
 307 0036 01F10802 		add	r2, r1, #8
 308 003a 56F8085C 		ldr	r5, [r6, #-8]
 309              	.LVL35:
 310 003e A018     		adds	r0, r4, r2
 311 0040 A842     		cmp	r0, r5
 312 0042 09D0     		beq	.L33
 313              		.loc 1 221 0
 314 0044 5A68     		ldr	r2, [r3, #4]
 315 0046 02F10801 		add	r1, r2, #8
 316 004a 5918     		adds	r1, r3, r1
 317 004c 8C42     		cmp	r4, r1
 318 004e 11D0     		beq	.L34
 319              	.L28:
 320              		.loc 1 233 0
 321 0050 BDE87040 		pop	{r4, r5, r6, lr}
 322              		.loc 1 231 0
 323 0054 FFF7FEBF 		b	chMtxUnlock
 324              	.LVL36:
 325              	.L33:
 326              		.loc 1 218 0
 327 0058 4068     		ldr	r0, [r0, #4]
 328              		.loc 1 219 0
 329 005a A258     		ldr	r2, [r4, r2]
 330              		.loc 1 218 0
 331 005c 0918     		adds	r1, r1, r0
 332 005e 0831     		adds	r1, r1, #8
 333 0060 46F8041C 		str	r1, [r6, #-4]
 334              		.loc 1 219 0
 335 0064 46F8082C 		str	r2, [r6, #-8]
 336              		.loc 1 221 0
 337 0068 5A68     		ldr	r2, [r3, #4]
 338 006a 02F10801 		add	r1, r2, #8
 339 006e 5918     		adds	r1, r3, r1
ARM GAS  /tmp/ccM3iFrl.s 			page 7


 340 0070 8C42     		cmp	r4, r1
 341 0072 EDD1     		bne	.L28
 342              	.L34:
 343              		.loc 1 223 0
 344 0074 56F8040C 		ldr	r0, [r6, #-4]
 345              		.loc 1 224 0
 346 0078 56F8081C 		ldr	r1, [r6, #-8]
 347              		.loc 1 223 0
 348 007c 1218     		adds	r2, r2, r0
 349 007e 0832     		adds	r2, r2, #8
 350              		.loc 1 224 0
 351 0080 83E80600 		stmia	r3, {r1, r2}
 352 0084 E4E7     		b	.L28
 353              		.cfi_endproc
 354              	.LFE10:
 355              		.size	chHeapFree, .-chHeapFree
 356 0086 00BFAFF3 		.section	.text.chHeapStatus,"ax",%progbits
 356      0080AFF3 
 356      0080
 357              		.align	2
 358              		.p2align 4,,15
 359              		.global	chHeapStatus
 360              		.thumb
 361              		.thumb_func
 362              		.type	chHeapStatus, %function
 363              	chHeapStatus:
 364              	.LFB11:
 365              		.loc 1 250 0
 366              		.cfi_startproc
 367              		@ args = 0, pretend = 0, frame = 0
 368              		@ frame_needed = 0, uses_anonymous_args = 0
 369              	.LVL37:
 370 0000 38B5     		push	{r3, r4, r5, lr}
 371              	.LCFI2:
 372              		.cfi_def_cfa_offset 16
 373              		.cfi_offset 3, -16
 374              		.cfi_offset 4, -12
 375              		.cfi_offset 5, -8
 376              		.cfi_offset 14, -4
 377              		.loc 1 255 0
 378 0002 0E4C     		ldr	r4, .L46
 379 0004 0028     		cmp	r0, #0
 380 0006 18BF     		it	ne
 381 0008 0446     		movne	r4, r0
 382              	.LVL38:
 383              		.loc 1 257 0
 384 000a 04F11000 		add	r0, r4, #16
 385              		.loc 1 250 0
 386 000e 0D46     		mov	r5, r1
 387              		.loc 1 257 0
 388 0010 FFF7FEFF 		bl	chMtxLock
 389              	.LVL39:
 390              		.loc 1 260 0
 391 0014 A368     		ldr	r3, [r4, #8]
 392 0016 6BB1     		cbz	r3, .L41
 393 0018 0022     		movs	r2, #0
 394 001a 1446     		mov	r4, r2
ARM GAS  /tmp/ccM3iFrl.s 			page 8


 395              	.LVL40:
 396              	.L38:
 397              		.loc 1 261 0 discriminator 2
 398 001c 5868     		ldr	r0, [r3, #4]
 399              		.loc 1 260 0 discriminator 2
 400 001e 1B68     		ldr	r3, [r3, #0]
 401              		.loc 1 261 0 discriminator 2
 402 0020 1218     		adds	r2, r2, r0
 403              	.LVL41:
 404              		.loc 1 260 0 discriminator 2
 405 0022 0134     		adds	r4, r4, #1
 406              	.LVL42:
 407 0024 002B     		cmp	r3, #0
 408 0026 F9D1     		bne	.L38
 409              	.LVL43:
 410              	.L37:
 411              		.loc 1 262 0
 412 0028 05B1     		cbz	r5, .L39
 413              		.loc 1 263 0
 414 002a 2A60     		str	r2, [r5, #0]
 415              	.L39:
 416              		.loc 1 265 0
 417 002c FFF7FEFF 		bl	chMtxUnlock
 418              	.LVL44:
 419              		.loc 1 267 0
 420 0030 2046     		mov	r0, r4
 421 0032 38BD     		pop	{r3, r4, r5, pc}
 422              	.LVL45:
 423              	.L41:
 424              		.loc 1 259 0
 425 0034 1A46     		mov	r2, r3
 426              		.loc 1 260 0
 427 0036 1C46     		mov	r4, r3
 428              	.LVL46:
 429 0038 F6E7     		b	.L37
 430              	.L47:
 431 003a 00BF     		.align	2
 432              	.L46:
 433 003c 00000000 		.word	.LANCHOR0
 434              		.cfi_endproc
 435              	.LFE11:
 436              		.size	chHeapStatus, .-chHeapStatus
 437              		.section	.bss.default_heap,"aw",%nobits
 438              		.align	3
 439              		.set	.LANCHOR0,. + 0
 440              		.type	default_heap, %object
 441              		.size	default_heap, 32
 442              	default_heap:
 443 0000 00000000 		.space	32
 443      00000000 
 443      00000000 
 443      00000000 
 443      00000000 
 444              		.text
 445              	.Letext0:
 446              		.file 2 "/opt/psas/x-tools/stm32f407/arm-psas-eabi/bin/../lib/gcc/arm-psas-eabi/4.7.2/include/stdd
 447              		.file 3 "/opt/psas/x-tools/stm32f407/arm-psas-eabi/bin/../lib/gcc/arm-psas-eabi/4.7.2/../../../../
ARM GAS  /tmp/ccM3iFrl.s 			page 9


 448              		.file 4 "/home/wicker/tools/ChibiOS_2.6.3/os/ports/GCC/ARMCMx/chtypes.h"
 449              		.file 5 "/home/wicker/tools/ChibiOS_2.6.3/os/kernel/include/chlists.h"
 450              		.file 6 "/home/wicker/tools/ChibiOS_2.6.3/os/kernel/include/chthreads.h"
 451              		.file 7 "/home/wicker/tools/ChibiOS_2.6.3/os/ports/GCC/ARMCMx/chcore_v7m.h"
 452              		.file 8 "/home/wicker/tools/ChibiOS_2.6.3/os/kernel/include/chmtx.h"
 453              		.file 9 "/home/wicker/tools/ChibiOS_2.6.3/os/kernel/include/chmemcore.h"
 454              		.file 10 "/home/wicker/tools/ChibiOS_2.6.3/os/kernel/include/chheap.h"