ARM GAS  /tmp/ccM4awbu.s 			page 1


   1              		.syntax unified
   2              		.cpu cortex-m4
   3              		.eabi_attribute 27, 3
   4              		.eabi_attribute 28, 1
   5              		.fpu fpv4-sp-d16
   6              		.eabi_attribute 20, 1
   7              		.eabi_attribute 21, 1
   8              		.eabi_attribute 23, 3
   9              		.eabi_attribute 24, 1
  10              		.eabi_attribute 25, 1
  11              		.eabi_attribute 26, 1
  12              		.eabi_attribute 30, 2
  13              		.eabi_attribute 34, 1
  14              		.eabi_attribute 18, 4
  15              		.thumb
  16              		.file	"chmempools.c"
  17              		.text
  18              	.Ltext0:
  19              		.cfi_sections	.debug_frame
  20              		.section	.text.chPoolInit,"ax",%progbits
  21              		.align	2
  22              		.p2align 4,,15
  23              		.global	chPoolInit
  24              		.thumb
  25              		.thumb_func
  26              		.type	chPoolInit, %function
  27              	chPoolInit:
  28              	.LFB7:
  29              		.file 1 "/home/wicker/tools/ChibiOS_2.6.3/os/kernel/src/chmempools.c"
  30              		.loc 1 62 0
  31              		.cfi_startproc
  32              		@ args = 0, pretend = 0, frame = 0
  33              		@ frame_needed = 0, uses_anonymous_args = 0
  34              		@ link register save eliminated.
  35              	.LVL0:
  36              		.loc 1 66 0
  37 0000 0023     		movs	r3, #0
  38 0002 0360     		str	r3, [r0, #0]
  39              		.loc 1 67 0
  40 0004 4160     		str	r1, [r0, #4]
  41              		.loc 1 68 0
  42 0006 8260     		str	r2, [r0, #8]
  43 0008 7047     		bx	lr
  44              		.cfi_endproc
  45              	.LFE7:
  46              		.size	chPoolInit, .-chPoolInit
  47 000a 00BFAFF3 		.section	.text.chPoolLoadArray,"ax",%progbits
  47      0080
  48              		.align	2
  49              		.p2align 4,,15
  50              		.global	chPoolLoadArray
  51              		.thumb
  52              		.thumb_func
  53              		.type	chPoolLoadArray, %function
  54              	chPoolLoadArray:
  55              	.LFB8:
  56              		.loc 1 84 0
ARM GAS  /tmp/ccM4awbu.s 			page 2


  57              		.cfi_startproc
  58              		@ args = 0, pretend = 0, frame = 0
  59              		@ frame_needed = 0, uses_anonymous_args = 0
  60              		@ link register save eliminated.
  61              	.LVL1:
  62 0000 10B4     		push	{r4}
  63              	.LCFI0:
  64              		.cfi_def_cfa_offset 4
  65              		.cfi_offset 4, -4
  66              		.loc 1 88 0
  67 0002 62B1     		cbz	r2, .L2
  68              	.LVL2:
  69              	.L6:
  70              	.LBB16:
  71              	.LBB17:
  72              		.loc 1 173 0
  73 0004 2023     		movs	r3, #32
  74              	.LVL3:
  75              	@ 173 "/home/wicker/tools/ChibiOS_2.6.3/os/kernel/src/chmempools.c" 1
  76 0006 83F31188 		msr     BASEPRI, r3
  77              	@ 0 "" 2
  78              	.LVL4:
  79              		.thumb
  80              	.LBE17:
  81              	.LBB18:
  82              	.LBB19:
  83              		.loc 1 155 0
  84 000a 0468     		ldr	r4, [r0, #0]
  85              	.LBE19:
  86              	.LBE18:
  87              	.LBB21:
  88              		.loc 1 175 0
  89 000c 0023     		movs	r3, #0
  90              	.LVL5:
  91              	.LBE21:
  92              	.LBB22:
  93              	.LBB20:
  94              		.loc 1 155 0
  95 000e 0C60     		str	r4, [r1, #0]
  96              		.loc 1 156 0
  97 0010 0160     		str	r1, [r0, #0]
  98              	.LBE20:
  99              	.LBE22:
 100              	.LBB23:
 101              		.loc 1 175 0
 102              	@ 175 "/home/wicker/tools/ChibiOS_2.6.3/os/kernel/src/chmempools.c" 1
 103 0012 83F31188 		msr     BASEPRI, r3
 104              	@ 0 "" 2
 105              	.LVL6:
 106              		.thumb
 107              	.LBE23:
 108              	.LBE16:
 109              		.loc 1 90 0
 110 0016 4368     		ldr	r3, [r0, #4]
 111              	.LVL7:
 112              		.loc 1 88 0
 113 0018 013A     		subs	r2, r2, #1
ARM GAS  /tmp/ccM4awbu.s 			page 3


 114              		.loc 1 90 0
 115 001a 1944     		add	r1, r1, r3
 116              	.LVL8:
 117              		.loc 1 88 0
 118 001c F2D1     		bne	.L6
 119              	.LVL9:
 120              	.L2:
 121              		.loc 1 93 0
 122 001e 10BC     		pop	{r4}
 123 0020 7047     		bx	lr
 124              		.cfi_endproc
 125              	.LFE8:
 126              		.size	chPoolLoadArray, .-chPoolLoadArray
 127 0022 00BFAFF3 		.section	.text.chPoolAllocI,"ax",%progbits
 127      0080AFF3 
 127      0080AFF3 
 127      0080
 128              		.align	2
 129              		.p2align 4,,15
 130              		.global	chPoolAllocI
 131              		.thumb
 132              		.thumb_func
 133              		.type	chPoolAllocI, %function
 134              	chPoolAllocI:
 135              	.LFB9:
 136              		.loc 1 105 0
 137              		.cfi_startproc
 138              		@ args = 0, pretend = 0, frame = 0
 139              		@ frame_needed = 0, uses_anonymous_args = 0
 140              	.LVL10:
 141 0000 08B5     		push	{r3, lr}
 142              	.LCFI1:
 143              		.cfi_def_cfa_offset 8
 144              		.cfi_offset 3, -8
 145              		.cfi_offset 14, -4
 146              		.loc 1 105 0
 147 0002 0346     		mov	r3, r0
 148              		.loc 1 111 0
 149 0004 0068     		ldr	r0, [r0, #0]
 150              	.LVL11:
 151 0006 10B1     		cbz	r0, .L10
 152              		.loc 1 112 0
 153 0008 0268     		ldr	r2, [r0, #0]
 154 000a 1A60     		str	r2, [r3, #0]
 155 000c 08BD     		pop	{r3, pc}
 156              	.L10:
 157              		.loc 1 113 0
 158 000e 9A68     		ldr	r2, [r3, #8]
 159 0010 0AB1     		cbz	r2, .L11
 160              		.loc 1 114 0
 161 0012 5868     		ldr	r0, [r3, #4]
 162              	.LVL12:
 163 0014 9047     		blx	r2
 164              	.LVL13:
 165              	.L11:
 166              		.loc 1 116 0
 167 0016 08BD     		pop	{r3, pc}
ARM GAS  /tmp/ccM4awbu.s 			page 4


 168              		.cfi_endproc
 169              	.LFE9:
 170              		.size	chPoolAllocI, .-chPoolAllocI
 171 0018 AFF30080 		.section	.text.chPoolAlloc,"ax",%progbits
 171      AFF30080 
 172              		.align	2
 173              		.p2align 4,,15
 174              		.global	chPoolAlloc
 175              		.thumb
 176              		.thumb_func
 177              		.type	chPoolAlloc, %function
 178              	chPoolAlloc:
 179              	.LFB10:
 180              		.loc 1 128 0
 181              		.cfi_startproc
 182              		@ args = 0, pretend = 0, frame = 0
 183              		@ frame_needed = 0, uses_anonymous_args = 0
 184              	.LVL14:
 185 0000 08B5     		push	{r3, lr}
 186              	.LCFI2:
 187              		.cfi_def_cfa_offset 8
 188              		.cfi_offset 3, -8
 189              		.cfi_offset 14, -4
 190              		.loc 1 128 0
 191 0002 0246     		mov	r2, r0
 192              	.LBB24:
 193              		.loc 1 131 0
 194 0004 2023     		movs	r3, #32
 195              	.LVL15:
 196              	@ 131 "/home/wicker/tools/ChibiOS_2.6.3/os/kernel/src/chmempools.c" 1
 197 0006 83F31188 		msr     BASEPRI, r3
 198              	@ 0 "" 2
 199              	.LVL16:
 200              		.thumb
 201              	.LBE24:
 202              	.LBB25:
 203              	.LBB26:
 204              		.loc 1 111 0
 205 000a 0068     		ldr	r0, [r0, #0]
 206              	.LVL17:
 207 000c 28B1     		cbz	r0, .L16
 208              		.loc 1 112 0
 209 000e 0368     		ldr	r3, [r0, #0]
 210              	.LVL18:
 211 0010 1360     		str	r3, [r2, #0]
 212              	.LVL19:
 213              	.L17:
 214              	.LBE26:
 215              	.LBE25:
 216              	.LBB28:
 217              		.loc 1 133 0
 218 0012 0023     		movs	r3, #0
 219              	.LVL20:
 220              	@ 133 "/home/wicker/tools/ChibiOS_2.6.3/os/kernel/src/chmempools.c" 1
 221 0014 83F31188 		msr     BASEPRI, r3
 222              	@ 0 "" 2
 223              	.LVL21:
ARM GAS  /tmp/ccM4awbu.s 			page 5


 224              		.thumb
 225              	.LBE28:
 226              		.loc 1 135 0
 227 0018 08BD     		pop	{r3, pc}
 228              	.LVL22:
 229              	.L16:
 230              	.LBB29:
 231              	.LBB27:
 232              		.loc 1 113 0
 233 001a 9368     		ldr	r3, [r2, #8]
 234              	.LVL23:
 235 001c 002B     		cmp	r3, #0
 236 001e F8D0     		beq	.L17
 237              		.loc 1 114 0
 238 0020 5068     		ldr	r0, [r2, #4]
 239              	.LVL24:
 240 0022 9847     		blx	r3
 241              	.LVL25:
 242 0024 F5E7     		b	.L17
 243              	.LBE27:
 244              	.LBE29:
 245              		.cfi_endproc
 246              	.LFE10:
 247              		.size	chPoolAlloc, .-chPoolAlloc
 248              		.section	.text.chPoolFreeI,"ax",%progbits
 249              		.align	2
 250              		.p2align 4,,15
 251              		.global	chPoolFreeI
 252              		.thumb
 253              		.thumb_func
 254              		.type	chPoolFreeI, %function
 255              	chPoolFreeI:
 256              	.LFB11:
 257              		.loc 1 149 0
 258              		.cfi_startproc
 259              		@ args = 0, pretend = 0, frame = 0
 260              		@ frame_needed = 0, uses_anonymous_args = 0
 261              		@ link register save eliminated.
 262              	.LVL26:
 263              		.loc 1 155 0
 264 0000 0368     		ldr	r3, [r0, #0]
 265 0002 0B60     		str	r3, [r1, #0]
 266              		.loc 1 156 0
 267 0004 0160     		str	r1, [r0, #0]
 268 0006 7047     		bx	lr
 269              		.cfi_endproc
 270              	.LFE11:
 271              		.size	chPoolFreeI, .-chPoolFreeI
 272 0008 AFF30080 		.section	.text.chPoolFree,"ax",%progbits
 272      AFF30080 
 273              		.align	2
 274              		.p2align 4,,15
 275              		.global	chPoolFree
 276              		.thumb
 277              		.thumb_func
 278              		.type	chPoolFree, %function
 279              	chPoolFree:
ARM GAS  /tmp/ccM4awbu.s 			page 6


 280              	.LFB12:
 281              		.loc 1 171 0
 282              		.cfi_startproc
 283              		@ args = 0, pretend = 0, frame = 0
 284              		@ frame_needed = 0, uses_anonymous_args = 0
 285              		@ link register save eliminated.
 286              	.LVL27:
 287              	.LBB30:
 288              		.loc 1 173 0
 289 0000 2023     		movs	r3, #32
 290              	.LVL28:
 291              	@ 173 "/home/wicker/tools/ChibiOS_2.6.3/os/kernel/src/chmempools.c" 1
 292 0002 83F31188 		msr     BASEPRI, r3
 293              	@ 0 "" 2
 294              	.LVL29:
 295              		.thumb
 296              	.LBE30:
 297              	.LBB31:
 298              	.LBB32:
 299              		.loc 1 155 0
 300 0006 0268     		ldr	r2, [r0, #0]
 301              	.LBE32:
 302              	.LBE31:
 303              	.LBB34:
 304              		.loc 1 175 0
 305 0008 0023     		movs	r3, #0
 306              	.LVL30:
 307              	.LBE34:
 308              	.LBB35:
 309              	.LBB33:
 310              		.loc 1 155 0
 311 000a 0A60     		str	r2, [r1, #0]
 312              		.loc 1 156 0
 313 000c 0160     		str	r1, [r0, #0]
 314              	.LBE33:
 315              	.LBE35:
 316              	.LBB36:
 317              		.loc 1 175 0
 318              	@ 175 "/home/wicker/tools/ChibiOS_2.6.3/os/kernel/src/chmempools.c" 1
 319 000e 83F31188 		msr     BASEPRI, r3
 320              	@ 0 "" 2
 321              	.LVL31:
 322              		.thumb
 323 0012 7047     		bx	lr
 324              	.LBE36:
 325              		.cfi_endproc
 326              	.LFE12:
 327              		.size	chPoolFree, .-chPoolFree
 328 0014 AFF30080 		.text
 328      AFF30080 
 328      AFF30080 
 329              	.Letext0:
 330              		.file 2 "/opt/psas/x-tools/stm32f407/arm-psas-eabi/bin/../lib/gcc/arm-psas-eabi/4.7.2/include/stdd
 331              		.file 3 "/opt/psas/x-tools/stm32f407/arm-psas-eabi/bin/../lib/gcc/arm-psas-eabi/4.7.2/../../../../
 332              		.file 4 "/home/wicker/tools/ChibiOS_2.6.3/os/kernel/include/chmemcore.h"
 333              		.file 5 "/home/wicker/tools/ChibiOS_2.6.3/os/kernel/include/chmempools.h"