ARM GAS  /tmp/ccBQxvIl.s 			page 1


   1              		.syntax unified
   2              		.cpu cortex-m4
   3              		.eabi_attribute 27, 3
   4              		.eabi_attribute 28, 1
   5              		.fpu fpv4-sp-d16
   6              		.eabi_attribute 20, 1
   7              		.eabi_attribute 21, 1
   8              		.eabi_attribute 23, 3
   9              		.eabi_attribute 24, 1
  10              		.eabi_attribute 25, 1
  11              		.eabi_attribute 26, 1
  12              		.eabi_attribute 30, 2
  13              		.eabi_attribute 34, 1
  14              		.eabi_attribute 18, 4
  15              		.thumb
  16              		.file	"chmemcore.c"
  17              		.text
  18              	.Ltext0:
  19              		.cfi_sections	.debug_frame
  20              		.section	.text._core_init,"ax",%progbits
  21              		.align	2
  22              		.p2align 4,,15
  23              		.global	_core_init
  24              		.thumb
  25              		.thumb_func
  26              		.type	_core_init, %function
  27              	_core_init:
  28              	.LFB7:
  29              		.file 1 "/home/wicker/tools/ChibiOS_2.6.3/os/kernel/src/chmemcore.c"
  30              		.loc 1 66 0
  31              		.cfi_startproc
  32              		@ args = 0, pretend = 0, frame = 0
  33              		@ frame_needed = 0, uses_anonymous_args = 0
  34              		@ link register save eliminated.
  35              		.loc 1 70 0
  36 0000 40F20002 		movw	r2, #:lower16:.LANCHOR0
  37              		.loc 1 71 0
  38 0004 40F20003 		movw	r3, #:lower16:.LANCHOR1
  39 0008 40F20001 		movw	r1, #:lower16:__heap_end__
  40              		.loc 1 70 0
  41 000c 0648     		ldr	r0, .L2
  42 000e C0F20002 		movt	r2, #:upper16:.LANCHOR0
  43              		.loc 1 71 0
  44 0012 C0F20003 		movt	r3, #:upper16:.LANCHOR1
  45 0016 C0F20001 		movt	r1, #:upper16:__heap_end__
  46              		.loc 1 70 0
  47 001a 20F00700 		bic	r0, r0, #7
  48              		.loc 1 71 0
  49 001e 21F00701 		bic	r1, r1, #7
  50              		.loc 1 70 0
  51 0022 1060     		str	r0, [r2, #0]
  52              		.loc 1 71 0
  53 0024 1960     		str	r1, [r3, #0]
  54 0026 7047     		bx	lr
  55              	.L3:
  56              		.align	2
  57              	.L2:
ARM GAS  /tmp/ccBQxvIl.s 			page 2


  58 0028 07000000 		.word	__heap_base__+7
  59              		.cfi_endproc
  60              	.LFE7:
  61              		.size	_core_init, .-_core_init
  62 002c AFF30080 		.section	.text.chCoreAlloc,"ax",%progbits
  63              		.align	2
  64              		.p2align 4,,15
  65              		.global	chCoreAlloc
  66              		.thumb
  67              		.thumb_func
  68              		.type	chCoreAlloc, %function
  69              	chCoreAlloc:
  70              	.LFB8:
  71              		.loc 1 91 0
  72              		.cfi_startproc
  73              		@ args = 0, pretend = 0, frame = 0
  74              		@ frame_needed = 0, uses_anonymous_args = 0
  75              		@ link register save eliminated.
  76              	.LVL0:
  77              	.LBB6:
  78              		.loc 1 94 0
  79 0000 2023     		movs	r3, #32
  80              	.LVL1:
  81              	@ 94 "/home/wicker/tools/ChibiOS_2.6.3/os/kernel/src/chmemcore.c" 1
  82 0002 83F31188 		msr     BASEPRI, r3
  83              	@ 0 "" 2
  84              	.LVL2:
  85              		.thumb
  86              	.LBE6:
  87              	.LBB7:
  88              	.LBB8:
  89              		.loc 1 118 0
  90 0006 094B     		ldr	r3, .L7
  91              	.LVL3:
  92 0008 0949     		ldr	r1, .L7+4
  93 000a 1A68     		ldr	r2, [r3, #0]
  94 000c 0968     		ldr	r1, [r1, #0]
  95              		.loc 1 117 0
  96 000e 0730     		adds	r0, r0, #7
  97              	.LVL4:
  98 0010 20F00700 		bic	r0, r0, #7
  99              	.LVL5:
 100              		.loc 1 118 0
 101 0014 891A     		subs	r1, r1, r2
 102 0016 8842     		cmp	r0, r1
 103              	.LVL6:
 104              		.loc 1 121 0
 105 0018 9ABF     		itte	ls
 106 001a 1018     		addls	r0, r2, r0
 107              	.LVL7:
 108 001c 1860     		strls	r0, [r3, #0]
 109              		.loc 1 119 0
 110 001e 0022     		movhi	r2, #0
 111              	.LVL8:
 112              	.LBE8:
 113              	.LBE7:
 114              	.LBB9:
ARM GAS  /tmp/ccBQxvIl.s 			page 3


 115              		.loc 1 96 0
 116 0020 0023     		movs	r3, #0
 117              	.LVL9:
 118              	@ 96 "/home/wicker/tools/ChibiOS_2.6.3/os/kernel/src/chmemcore.c" 1
 119 0022 83F31188 		msr     BASEPRI, r3
 120              	@ 0 "" 2
 121              	.LVL10:
 122              		.thumb
 123              	.LBE9:
 124              		.loc 1 98 0
 125 0026 1046     		mov	r0, r2
 126 0028 7047     		bx	lr
 127              	.L8:
 128 002a 00BF     		.align	2
 129              	.L7:
 130 002c 00000000 		.word	.LANCHOR0
 131 0030 00000000 		.word	.LANCHOR1
 132              		.cfi_endproc
 133              	.LFE8:
 134              		.size	chCoreAlloc, .-chCoreAlloc
 135 0034 AFF30080 		.section	.text.chCoreAllocI,"ax",%progbits
 135      AFF30080 
 135      AFF30080 
 136              		.align	2
 137              		.p2align 4,,15
 138              		.global	chCoreAllocI
 139              		.thumb
 140              		.thumb_func
 141              		.type	chCoreAllocI, %function
 142              	chCoreAllocI:
 143              	.LFB9:
 144              		.loc 1 112 0
 145              		.cfi_startproc
 146              		@ args = 0, pretend = 0, frame = 0
 147              		@ frame_needed = 0, uses_anonymous_args = 0
 148              		@ link register save eliminated.
 149              	.LVL11:
 150              		.loc 1 118 0
 151 0000 074A     		ldr	r2, .L12
 152 0002 0849     		ldr	r1, .L12+4
 153 0004 1368     		ldr	r3, [r2, #0]
 154 0006 0968     		ldr	r1, [r1, #0]
 155              		.loc 1 117 0
 156 0008 0730     		adds	r0, r0, #7
 157              	.LVL12:
 158 000a 20F00700 		bic	r0, r0, #7
 159              	.LVL13:
 160              		.loc 1 118 0
 161 000e C91A     		subs	r1, r1, r3
 162 0010 8842     		cmp	r0, r1
 163              	.LVL14:
 164              		.loc 1 121 0
 165 0012 9ABF     		itte	ls
 166 0014 1818     		addls	r0, r3, r0
 167              	.LVL15:
 168 0016 1060     		strls	r0, [r2, #0]
 169              		.loc 1 119 0
ARM GAS  /tmp/ccBQxvIl.s 			page 4


 170 0018 0023     		movhi	r3, #0
 171              	.LVL16:
 172              		.loc 1 123 0
 173 001a 1846     		mov	r0, r3
 174 001c 7047     		bx	lr
 175              	.L13:
 176 001e 00BF     		.align	2
 177              	.L12:
 178 0020 00000000 		.word	.LANCHOR0
 179 0024 00000000 		.word	.LANCHOR1
 180              		.cfi_endproc
 181              	.LFE9:
 182              		.size	chCoreAllocI, .-chCoreAllocI
 183 0028 AFF30080 		.section	.text.chCoreStatus,"ax",%progbits
 183      AFF30080 
 184              		.align	2
 185              		.p2align 4,,15
 186              		.global	chCoreStatus
 187              		.thumb
 188              		.thumb_func
 189              		.type	chCoreStatus, %function
 190              	chCoreStatus:
 191              	.LFB10:
 192              		.loc 1 132 0
 193              		.cfi_startproc
 194              		@ args = 0, pretend = 0, frame = 0
 195              		@ frame_needed = 0, uses_anonymous_args = 0
 196              		@ link register save eliminated.
 197              		.loc 1 134 0
 198 0000 40F20002 		movw	r2, #:lower16:.LANCHOR1
 199 0004 40F20003 		movw	r3, #:lower16:.LANCHOR0
 200 0008 C0F20002 		movt	r2, #:upper16:.LANCHOR1
 201 000c C0F20003 		movt	r3, #:upper16:.LANCHOR0
 202 0010 1068     		ldr	r0, [r2, #0]
 203 0012 1B68     		ldr	r3, [r3, #0]
 204              		.loc 1 135 0
 205 0014 C01A     		subs	r0, r0, r3
 206 0016 7047     		bx	lr
 207              		.cfi_endproc
 208              	.LFE10:
 209              		.size	chCoreStatus, .-chCoreStatus
 210 0018 AFF30080 		.section	.bss.endmem,"aw",%nobits
 210      AFF30080 
 211              		.align	2
 212              		.set	.LANCHOR1,. + 0
 213              		.type	endmem, %object
 214              		.size	endmem, 4
 215              	endmem:
 216 0000 00000000 		.space	4
 217              		.section	.bss.nextmem,"aw",%nobits
 218              		.align	2
 219              		.set	.LANCHOR0,. + 0
 220              		.type	nextmem, %object
 221              		.size	nextmem, 4
 222              	nextmem:
 223 0000 00000000 		.space	4
 224              		.text
ARM GAS  /tmp/ccBQxvIl.s 			page 5


 225              	.Letext0:
 226              		.file 2 "/opt/psas/x-tools/stm32f407/arm-psas-eabi/bin/../lib/gcc/arm-psas-eabi/4.7.2/include/stdd
 227              		.file 3 "/opt/psas/x-tools/stm32f407/arm-psas-eabi/bin/../lib/gcc/arm-psas-eabi/4.7.2/../../../../