ARM GAS  /tmp/ccHBfCOM.s 			page 1


   1              		.syntax unified
   2              		.cpu cortex-m4
   3              		.eabi_attribute 27, 3
   4              		.eabi_attribute 28, 1
   5              		.fpu fpv4-sp-d16
   6              		.eabi_attribute 20, 1
   7              		.eabi_attribute 21, 1
   8              		.eabi_attribute 23, 3
   9              		.eabi_attribute 24, 1
  10              		.eabi_attribute 25, 1
  11              		.eabi_attribute 26, 1
  12              		.eabi_attribute 30, 2
  13              		.eabi_attribute 34, 1
  14              		.eabi_attribute 18, 4
  15              		.thumb
  16              		.file	"chmsg.c"
  17              		.text
  18              	.Ltext0:
  19              		.cfi_sections	.debug_frame
  20              		.section	.text.chMsgSend,"ax",%progbits
  21              		.align	2
  22              		.p2align 4,,15
  23              		.global	chMsgSend
  24              		.thumb
  25              		.thumb_func
  26              		.type	chMsgSend, %function
  27              	chMsgSend:
  28              	.LFB7:
  29              		.file 1 "/home/wicker/tools/ChibiOS_2.6.3/os/kernel/src/chmsg.c"
  30              		.loc 1 75 0
  31              		.cfi_startproc
  32              		@ args = 0, pretend = 0, frame = 0
  33              		@ frame_needed = 0, uses_anonymous_args = 0
  34              	.LVL0:
  35 0000 70B5     		push	{r4, r5, r6, lr}
  36              	.LCFI0:
  37              		.cfi_def_cfa_offset 16
  38              		.cfi_offset 4, -16
  39              		.cfi_offset 5, -12
  40              		.cfi_offset 6, -8
  41              		.cfi_offset 14, -4
  42              		.loc 1 76 0
  43 0002 0E4B     		ldr	r3, .L5
  44 0004 9C69     		ldr	r4, [r3, #24]
  45              	.LVL1:
  46              	.LBB10:
  47              		.loc 1 80 0
  48 0006 2023     		movs	r3, #32
  49              	.LVL2:
  50              	@ 80 "/home/wicker/tools/ChibiOS_2.6.3/os/kernel/src/chmsg.c" 1
  51 0008 83F31188 		msr     BASEPRI, r3
  52              	@ 0 "" 2
  53              	.LVL3:
  54              		.thumb
  55              	.LBE10:
  56              		.loc 1 82 0
  57 000c 00F12C05 		add	r5, r0, #44
ARM GAS  /tmp/ccHBfCOM.s 			page 2


  58 0010 6562     		str	r5, [r4, #36]
  59              	.LVL4:
  60              		.loc 1 84 0
  61 0012 067F     		ldrb	r6, [r0, #28]	@ zero_extendqisi2
  62              	.LBB11:
  63              	.LBB12:
  64              		.file 2 "/home/wicker/tools/ChibiOS_2.6.3/os/kernel/include/chinline.h"
  65              		.loc 2 55 0
  66 0014 036B     		ldr	r3, [r0, #48]
  67              	.LVL5:
  68              		.loc 2 54 0
  69 0016 2560     		str	r5, [r4, #0]
  70              	.LBE12:
  71              	.LBE11:
  72              		.loc 1 84 0
  73 0018 0C2E     		cmp	r6, #12
  74              		.loc 1 81 0
  75 001a 6163     		str	r1, [r4, #52]
  76              	.LBB14:
  77              	.LBB13:
  78              		.loc 2 55 0
  79 001c 6360     		str	r3, [r4, #4]
  80              		.loc 2 56 0
  81 001e 0463     		str	r4, [r0, #48]
  82 0020 1C60     		str	r4, [r3, #0]
  83              	.LBE13:
  84              	.LBE14:
  85              		.loc 1 84 0
  86 0022 07D0     		beq	.L4
  87              	.LVL6:
  88              	.L2:
  89              		.loc 1 86 0
  90 0024 0A20     		movs	r0, #10
  91 0026 FFF7FEFF 		bl	chSchGoSleepS
  92              	.LVL7:
  93              		.loc 1 87 0
  94 002a 606A     		ldr	r0, [r4, #36]
  95              	.LVL8:
  96              	.LBB15:
  97              		.loc 1 88 0
  98 002c 0023     		movs	r3, #0
  99              	.LVL9:
 100              	@ 88 "/home/wicker/tools/ChibiOS_2.6.3/os/kernel/src/chmsg.c" 1
 101 002e 83F31188 		msr     BASEPRI, r3
 102              	@ 0 "" 2
 103              	.LVL10:
 104              		.thumb
 105              	.LBE15:
 106              		.loc 1 90 0
 107 0032 70BD     		pop	{r4, r5, r6, pc}
 108              	.LVL11:
 109              	.L4:
 110              		.loc 1 85 0
 111 0034 FFF7FEFF 		bl	chSchReadyI
 112              	.LVL12:
 113 0038 F4E7     		b	.L2
 114              	.L6:
ARM GAS  /tmp/ccHBfCOM.s 			page 3


 115 003a 00BF     		.align	2
 116              	.L5:
 117 003c 00000000 		.word	rlist
 118              		.cfi_endproc
 119              	.LFE7:
 120              		.size	chMsgSend, .-chMsgSend
 121              		.section	.text.chMsgWait,"ax",%progbits
 122              		.align	2
 123              		.p2align 4,,15
 124              		.global	chMsgWait
 125              		.thumb
 126              		.thumb_func
 127              		.type	chMsgWait, %function
 128              	chMsgWait:
 129              	.LFB8:
 130              		.loc 1 106 0
 131              		.cfi_startproc
 132              		@ args = 0, pretend = 0, frame = 0
 133              		@ frame_needed = 0, uses_anonymous_args = 0
 134 0000 10B5     		push	{r4, lr}
 135              	.LCFI1:
 136              		.cfi_def_cfa_offset 8
 137              		.cfi_offset 4, -8
 138              		.cfi_offset 14, -4
 139              	.LBB16:
 140              		.loc 1 109 0
 141 0002 2023     		movs	r3, #32
 142              	.LVL13:
 143              	@ 109 "/home/wicker/tools/ChibiOS_2.6.3/os/kernel/src/chmsg.c" 1
 144 0004 83F31188 		msr     BASEPRI, r3
 145              	@ 0 "" 2
 146              	.LVL14:
 147              		.thumb
 148              	.LBE16:
 149              		.loc 1 110 0
 150 0008 0B4C     		ldr	r4, .L10
 151 000a A369     		ldr	r3, [r4, #24]
 152              	.LVL15:
 153 000c 1A46     		mov	r2, r3
 154 000e 52F82C0F 		ldr	r0, [r2, #44]!
 155 0012 9042     		cmp	r0, r2
 156 0014 08D0     		beq	.L9
 157              	.L8:
 158              	.LVL16:
 159              	.LBB17:
 160              	.LBB18:
 161              		.loc 2 62 0
 162 0016 0168     		ldr	r1, [r0, #0]
 163 0018 D962     		str	r1, [r3, #44]
 164 001a 4A60     		str	r2, [r1, #4]
 165              	.LBE18:
 166              	.LBE17:
 167              		.loc 1 113 0
 168 001c 0B22     		movs	r2, #11
 169 001e 0277     		strb	r2, [r0, #28]
 170              	.LBB19:
 171              		.loc 1 114 0
ARM GAS  /tmp/ccHBfCOM.s 			page 4


 172 0020 0023     		movs	r3, #0
 173              	.LVL17:
 174              	@ 114 "/home/wicker/tools/ChibiOS_2.6.3/os/kernel/src/chmsg.c" 1
 175 0022 83F31188 		msr     BASEPRI, r3
 176              	@ 0 "" 2
 177              	.LVL18:
 178              		.thumb
 179              	.LBE19:
 180              		.loc 1 116 0
 181 0026 10BD     		pop	{r4, pc}
 182              	.LVL19:
 183              	.L9:
 184              		.loc 1 111 0
 185 0028 0C20     		movs	r0, #12
 186 002a FFF7FEFF 		bl	chSchGoSleepS
 187              	.LVL20:
 188 002e A369     		ldr	r3, [r4, #24]
 189 0030 1A46     		mov	r2, r3
 190 0032 52F82C0F 		ldr	r0, [r2, #44]!
 191 0036 EEE7     		b	.L8
 192              	.L11:
 193              		.align	2
 194              	.L10:
 195 0038 00000000 		.word	rlist
 196              		.cfi_endproc
 197              	.LFE8:
 198              		.size	chMsgWait, .-chMsgWait
 199 003c AFF30080 		.section	.text.chMsgRelease,"ax",%progbits
 200              		.align	2
 201              		.p2align 4,,15
 202              		.global	chMsgRelease
 203              		.thumb
 204              		.thumb_func
 205              		.type	chMsgRelease, %function
 206              	chMsgRelease:
 207              	.LFB9:
 208              		.loc 1 128 0
 209              		.cfi_startproc
 210              		@ args = 0, pretend = 0, frame = 0
 211              		@ frame_needed = 0, uses_anonymous_args = 0
 212              	.LVL21:
 213 0000 08B5     		push	{r3, lr}
 214              	.LCFI2:
 215              		.cfi_def_cfa_offset 8
 216              		.cfi_offset 3, -8
 217              		.cfi_offset 14, -4
 218              	.LBB20:
 219              		.loc 1 130 0
 220 0002 2023     		movs	r3, #32
 221              	.LVL22:
 222              	@ 130 "/home/wicker/tools/ChibiOS_2.6.3/os/kernel/src/chmsg.c" 1
 223 0004 83F31188 		msr     BASEPRI, r3
 224              	@ 0 "" 2
 225              	.LVL23:
 226              		.thumb
 227              	.LBE20:
 228              		.loc 1 133 0
ARM GAS  /tmp/ccHBfCOM.s 			page 5


 229 0008 FFF7FEFF 		bl	chSchWakeupS
 230              	.LVL24:
 231              	.LBB21:
 232              		.loc 1 134 0
 233 000c 0023     		movs	r3, #0
 234              	.LVL25:
 235              	@ 134 "/home/wicker/tools/ChibiOS_2.6.3/os/kernel/src/chmsg.c" 1
 236 000e 83F31188 		msr     BASEPRI, r3
 237              	@ 0 "" 2
 238              	.LVL26:
 239              		.thumb
 240 0012 08BD     		pop	{r3, pc}
 241              	.LBE21:
 242              		.cfi_endproc
 243              	.LFE9:
 244              		.size	chMsgRelease, .-chMsgRelease
 245 0014 AFF30080 		.text
 245      AFF30080 
 245      AFF30080 
 246              	.Letext0:
 247              		.file 3 "/opt/psas/x-tools/stm32f407/arm-psas-eabi/bin/../lib/gcc/arm-psas-eabi/4.7.2/../../../../
 248              		.file 4 "/home/wicker/tools/ChibiOS_2.6.3/os/ports/GCC/ARMCMx/chtypes.h"
 249              		.file 5 "/home/wicker/tools/ChibiOS_2.6.3/os/kernel/include/chlists.h"
 250              		.file 6 "/home/wicker/tools/ChibiOS_2.6.3/os/kernel/include/chthreads.h"
 251              		.file 7 "/home/wicker/tools/ChibiOS_2.6.3/os/ports/GCC/ARMCMx/chcore_v7m.h"
 252              		.file 8 "/home/wicker/tools/ChibiOS_2.6.3/os/kernel/include/chschd.h"
 253              		.file 9 "/home/wicker/tools/ChibiOS_2.6.3/os/kernel/include/chmtx.h"