ARM GAS  /tmp/ccPsuUAM.s 			page 1


   1              		.syntax unified
   2              		.cpu cortex-m4
   3              		.eabi_attribute 27, 3
   4              		.eabi_attribute 28, 1
   5              		.fpu fpv4-sp-d16
   6              		.eabi_attribute 20, 1
   7              		.eabi_attribute 21, 1
   8              		.eabi_attribute 23, 3
   9              		.eabi_attribute 24, 1
  10              		.eabi_attribute 25, 1
  11              		.eabi_attribute 26, 1
  12              		.eabi_attribute 30, 2
  13              		.eabi_attribute 34, 1
  14              		.eabi_attribute 18, 4
  15              		.thumb
  16              		.file	"chprintf.c"
  17              		.text
  18              	.Ltext0:
  19              		.cfi_sections	.debug_frame
  20              		.section	.text.long_to_string_with_divisor.constprop.0,"ax",%progbits
  21              		.align	2
  22              		.p2align 4,,15
  23              		.thumb
  24              		.thumb_func
  25              		.type	long_to_string_with_divisor.constprop.0, %function
  26              	long_to_string_with_divisor.constprop.0:
  27              	.LFB12:
  28              		.file 1 "/home/wicker/tools/ChibiOS_2.6.3/os/various/chprintf.c"
  29              		.loc 1 37 0
  30              		.cfi_startproc
  31              		@ args = 0, pretend = 0, frame = 0
  32              		@ frame_needed = 0, uses_anonymous_args = 0
  33              		@ link register save eliminated.
  34              	.LVL0:
  35 0000 F0B4     		push	{r4, r5, r6, r7}
  36              	.LCFI0:
  37              		.cfi_def_cfa_offset 16
  38              		.cfi_offset 4, -16
  39              		.cfi_offset 5, -12
  40              		.cfi_offset 6, -8
  41              		.cfi_offset 7, -4
  42              		.loc 1 52 0
  43 0002 00F10B0C 		add	ip, r0, #11
  44              	.LVL1:
  45              		.loc 1 37 0
  46 0006 00F10A05 		add	r5, r0, #10
  47 000a 0C46     		mov	r4, r1
  48              	.LVL2:
  49              	.L3:
  50              		.loc 1 54 0
  51 000c B1FBF2F6 		udiv	r6, r1, r2
  52 0010 02FB1611 		mls	r1, r2, r6, r1
  53              	.LVL3:
  54              		.loc 1 55 0
  55 0014 01F13003 		add	r3, r1, #48
  56              	.LVL4:
  57              		.loc 1 56 0
ARM GAS  /tmp/ccPsuUAM.s 			page 2


  58 0018 392B     		cmp	r3, #57
  59              		.loc 1 57 0
  60 001a C8BF     		it	gt
  61 001c 01F13703 		addgt	r3, r1, #55
  62              	.LVL5:
  63              		.loc 1 58 0
  64 0020 DBB2     		uxtb	r3, r3
  65              	.LVL6:
  66              		.loc 1 60 0
  67 0022 B4FBF2F4 		udiv	r4, r4, r2
  68              	.LVL7:
  69              		.loc 1 58 0
  70 0026 2F46     		mov	r7, r5
  71              	.LVL8:
  72              		.loc 1 59 0
  73 0028 3146     		mov	r1, r6
  74              	.LVL9:
  75              		.loc 1 58 0
  76 002a 05F80139 		strb	r3, [r5], #-1
  77              	.LVL10:
  78              		.loc 1 60 0
  79 002e 002C     		cmp	r4, #0
  80 0030 ECD1     		bne	.L3
  81              	.LVL11:
  82              		.loc 1 62 0
  83 0032 C7EB0C01 		rsb	r1, r7, ip
  84              	.LVL12:
  85 0036 3A46     		mov	r2, r7
  86              	.LVL13:
  87              		.loc 1 37 0
  88 0038 4118     		adds	r1, r0, r1
  89              	.LVL14:
  90 003a 01E0     		b	.L5
  91              	.LVL15:
  92              	.L9:
  93 003c 12F8013F 		ldrb	r3, [r2, #1]!	@ zero_extendqisi2
  94              	.L5:
  95              		.loc 1 64 0
  96 0040 00F8013B 		strb	r3, [r0], #1
  97              	.LVL16:
  98              		.loc 1 65 0
  99 0044 8842     		cmp	r0, r1
 100 0046 F9D1     		bne	.L9
 101              		.loc 1 68 0
 102 0048 F0BC     		pop	{r4, r5, r6, r7}
 103 004a 7047     		bx	lr
 104              		.cfi_endproc
 105              	.LFE12:
 106              		.size	long_to_string_with_divisor.constprop.0, .-long_to_string_with_divisor.constprop.0
 107 004c AFF30080 		.section	.text.chvprintf,"ax",%progbits
 108              		.align	2
 109              		.p2align 4,,15
 110              		.global	chvprintf
 111              		.thumb
 112              		.thumb_func
 113              		.type	chvprintf, %function
 114              	chvprintf:
ARM GAS  /tmp/ccPsuUAM.s 			page 3


 115              	.LFB10:
 116              		.loc 1 112 0
 117              		.cfi_startproc
 118              		@ args = 0, pretend = 0, frame = 32
 119              		@ frame_needed = 0, uses_anonymous_args = 0
 120              	.LVL17:
 121 0000 2DE9F04F 		push	{r4, r5, r6, r7, r8, r9, sl, fp, lr}
 122              	.LCFI1:
 123              		.cfi_def_cfa_offset 36
 124              		.cfi_offset 4, -36
 125              		.cfi_offset 5, -32
 126              		.cfi_offset 6, -28
 127              		.cfi_offset 7, -24
 128              		.cfi_offset 8, -20
 129              		.cfi_offset 9, -16
 130              		.cfi_offset 10, -12
 131              		.cfi_offset 11, -8
 132              		.cfi_offset 14, -4
 133 0004 89B0     		sub	sp, sp, #36
 134              	.LCFI2:
 135              		.cfi_def_cfa_offset 72
 136              		.loc 1 236 0
 137 0006 0DF11503 		add	r3, sp, #21
 138              		.loc 1 132 0
 139 000a 0DF1140A 		add	sl, sp, #20
 140              		.loc 1 236 0
 141 000e 0293     		str	r3, [sp, #8]
 142 0010 CAEB0303 		rsb	r3, sl, r3
 143              		.loc 1 112 0
 144 0014 8346     		mov	fp, r0
 145 0016 0C46     		mov	r4, r1
 146 0018 1646     		mov	r6, r2
 147              	.LVL18:
 148 001a 0393     		str	r3, [sp, #12]
 149              	.LVL19:
 150              	.L68:
 151              		.loc 1 125 0
 152 001c 2546     		mov	r5, r4
 153 001e 15F8011B 		ldrb	r1, [r5], #1	@ zero_extendqisi2
 154              	.LVL20:
 155              		.loc 1 126 0
 156 0022 61B1     		cbz	r1, .L10
 157              	.LVL21:
 158              	.L74:
 159              		.loc 1 128 0
 160 0024 2529     		cmp	r1, #37
 161 0026 0DD0     		beq	.L13
 162              		.loc 1 129 0
 163 0028 DBF80030 		ldr	r3, [fp, #0]
 164              		.loc 1 125 0
 165 002c 2C46     		mov	r4, r5
 166 002e 2546     		mov	r5, r4
 167              	.LVL22:
 168              		.loc 1 129 0
 169 0030 5846     		mov	r0, fp
 170 0032 9B68     		ldr	r3, [r3, #8]
 171 0034 9847     		blx	r3
ARM GAS  /tmp/ccPsuUAM.s 			page 4


 172              	.LVL23:
 173              		.loc 1 125 0
 174 0036 15F8011B 		ldrb	r1, [r5], #1	@ zero_extendqisi2
 175              	.LVL24:
 176              		.loc 1 126 0
 177 003a 0029     		cmp	r1, #0
 178 003c F2D1     		bne	.L74
 179              	.LVL25:
 180              	.L10:
 181              		.loc 1 261 0
 182 003e 09B0     		add	sp, sp, #36
 183 0040 BDE8F08F 		pop	{r4, r5, r6, r7, r8, r9, sl, fp, pc}
 184              	.L13:
 185              	.LVL26:
 186              		.loc 1 135 0
 187 0044 6378     		ldrb	r3, [r4, #1]	@ zero_extendqisi2
 188 0046 2D2B     		cmp	r3, #45
 189              		.loc 1 134 0
 190 0048 18BF     		it	ne
 191 004a 4FF0000C 		movne	ip, #0
 192              		.loc 1 135 0
 193 004e 00F0DF80 		beq	.L75
 194              	.LVL27:
 195              	.L15:
 196              		.loc 1 139 0
 197 0052 2027     		movs	r7, #32
 198              		.loc 1 140 0
 199 0054 2E2B     		cmp	r3, #46
 200 0056 18BF     		it	ne
 201 0058 302B     		cmpne	r3, #48
 202 005a 02D1     		bne	.L16
 203              	.LVL28:
 204 005c 6B78     		ldrb	r3, [r5, #1]	@ zero_extendqisi2
 205              		.loc 1 142 0
 206 005e 3027     		movs	r7, #48
 207              		.loc 1 141 0
 208 0060 0135     		adds	r5, r5, #1
 209              	.LVL29:
 210              	.L16:
 211              		.loc 1 142 0
 212 0062 2C46     		mov	r4, r5
 213              		.loc 1 144 0
 214 0064 0025     		movs	r5, #0
 215              	.LVL30:
 216 0066 06E0     		b	.L19
 217              	.LVL31:
 218              	.L76:
 219              		.loc 1 150 0
 220 0068 3278     		ldrb	r2, [r6, #0]	@ zero_extendqisi2
 221              	.LVL32:
 222 006a 0436     		adds	r6, r6, #4
 223              	.LVL33:
 224              	.L17:
 225              		.loc 1 153 0
 226 006c 05EB8505 		add	r5, r5, r5, lsl #2
 227              	.LVL34:
 228 0070 2378     		ldrb	r3, [r4, #0]	@ zero_extendqisi2
ARM GAS  /tmp/ccPsuUAM.s 			page 5


 229 0072 02EB4505 		add	r5, r2, r5, lsl #1
 230              	.LVL35:
 231              	.L19:
 232              		.loc 1 147 0
 233 0076 A3F13002 		sub	r2, r3, #48
 234              	.LVL36:
 235 007a D2B2     		uxtb	r2, r2
 236              		.loc 1 146 0
 237 007c 0134     		adds	r4, r4, #1
 238              	.LVL37:
 239              		.loc 1 147 0
 240 007e 092A     		cmp	r2, #9
 241 0080 F4D9     		bls	.L17
 242              	.LVL38:
 243              		.loc 1 149 0
 244 0082 2A2B     		cmp	r3, #42
 245 0084 F0D0     		beq	.L76
 246              	.LVL39:
 247              		.loc 1 155 0
 248 0086 0021     		movs	r1, #0
 249              		.loc 1 156 0
 250 0088 2E2B     		cmp	r3, #46
 251 008a 00F0AD80 		beq	.L77
 252              	.LVL40:
 253              	.L20:
 254              		.loc 1 170 0
 255 008e 03F0DF02 		and	r2, r3, #223
 256 0092 4C2A     		cmp	r2, #76
 257 0094 03D1     		bne	.L24
 258              	.LVL41:
 259              		.loc 1 172 0
 260 0096 2278     		ldrb	r2, [r4, #0]	@ zero_extendqisi2
 261 0098 0AB1     		cbz	r2, .L24
 262              	.LVL42:
 263              		.loc 1 173 0
 264 009a 0134     		adds	r4, r4, #1
 265              	.LVL43:
 266 009c 1346     		mov	r3, r2
 267              	.LVL44:
 268              	.L24:
 269              		.loc 1 179 0
 270 009e A3F14402 		sub	r2, r3, #68
 271 00a2 342A     		cmp	r2, #52
 272 00a4 00F29A80 		bhi	.L25
 273 00a8 DFE802F0 		tbb	[pc, r2]
 274              	.L32:
 275 00ac 90       		.byte	(.L26-.L32)/2
 276 00ad 98       		.byte	(.L25-.L32)/2
 277 00ae 98       		.byte	(.L25-.L32)/2
 278 00af 98       		.byte	(.L25-.L32)/2
 279 00b0 98       		.byte	(.L25-.L32)/2
 280 00b1 90       		.byte	(.L26-.L32)/2
 281 00b2 98       		.byte	(.L25-.L32)/2
 282 00b3 98       		.byte	(.L25-.L32)/2
 283 00b4 98       		.byte	(.L25-.L32)/2
 284 00b5 98       		.byte	(.L25-.L32)/2
 285 00b6 98       		.byte	(.L25-.L32)/2
ARM GAS  /tmp/ccPsuUAM.s 			page 6


 286 00b7 8E       		.byte	(.L27-.L32)/2
 287 00b8 98       		.byte	(.L25-.L32)/2
 288 00b9 98       		.byte	(.L25-.L32)/2
 289 00ba 98       		.byte	(.L25-.L32)/2
 290 00bb 98       		.byte	(.L25-.L32)/2
 291 00bc 98       		.byte	(.L25-.L32)/2
 292 00bd 8C       		.byte	(.L53-.L32)/2
 293 00be 98       		.byte	(.L25-.L32)/2
 294 00bf 98       		.byte	(.L25-.L32)/2
 295 00c0 7E       		.byte	(.L29-.L32)/2
 296 00c1 98       		.byte	(.L25-.L32)/2
 297 00c2 98       		.byte	(.L25-.L32)/2
 298 00c3 98       		.byte	(.L25-.L32)/2
 299 00c4 98       		.byte	(.L25-.L32)/2
 300 00c5 98       		.byte	(.L25-.L32)/2
 301 00c6 98       		.byte	(.L25-.L32)/2
 302 00c7 98       		.byte	(.L25-.L32)/2
 303 00c8 98       		.byte	(.L25-.L32)/2
 304 00c9 98       		.byte	(.L25-.L32)/2
 305 00ca 98       		.byte	(.L25-.L32)/2
 306 00cb 59       		.byte	(.L30-.L32)/2
 307 00cc 90       		.byte	(.L26-.L32)/2
 308 00cd 98       		.byte	(.L25-.L32)/2
 309 00ce 98       		.byte	(.L25-.L32)/2
 310 00cf 98       		.byte	(.L25-.L32)/2
 311 00d0 98       		.byte	(.L25-.L32)/2
 312 00d1 90       		.byte	(.L26-.L32)/2
 313 00d2 98       		.byte	(.L25-.L32)/2
 314 00d3 98       		.byte	(.L25-.L32)/2
 315 00d4 98       		.byte	(.L25-.L32)/2
 316 00d5 98       		.byte	(.L25-.L32)/2
 317 00d6 98       		.byte	(.L25-.L32)/2
 318 00d7 8E       		.byte	(.L27-.L32)/2
 319 00d8 98       		.byte	(.L25-.L32)/2
 320 00d9 98       		.byte	(.L25-.L32)/2
 321 00da 98       		.byte	(.L25-.L32)/2
 322 00db 1B       		.byte	(.L31-.L32)/2
 323 00dc 98       		.byte	(.L25-.L32)/2
 324 00dd 8C       		.byte	(.L53-.L32)/2
 325 00de 98       		.byte	(.L25-.L32)/2
 326 00df 98       		.byte	(.L25-.L32)/2
 327 00e0 7E       		.byte	(.L29-.L32)/2
 328 00e1 00       		.align	1
 329              	.L31:
 330              	.LVL45:
 331              		.loc 1 186 0
 332 00e2 D6F80080 		ldr	r8, [r6, #0]
 333              		.loc 1 187 0
 334 00e6 40F20003 		movw	r3, #:lower16:.LC0
 335              	.LVL46:
 336 00ea C0F20003 		movt	r3, #:upper16:.LC0
 337 00ee B8F1000F 		cmp	r8, #0
 338 00f2 08BF     		it	eq
 339 00f4 9846     		moveq	r8, r3
 340              		.loc 1 189 0
 341 00f6 47F6FF72 		movw	r2, #32767
 342              	.LVL47:
ARM GAS  /tmp/ccPsuUAM.s 			page 7


 343              		.loc 1 190 0
 344 00fa 98F80030 		ldrb	r3, [r8, #0]	@ zero_extendqisi2
 345              		.loc 1 186 0
 346 00fe 0436     		adds	r6, r6, #4
 347              	.LVL48:
 348              		.loc 1 189 0
 349 0100 0029     		cmp	r1, #0
 350 0102 08BF     		it	eq
 351 0104 1146     		moveq	r1, r2
 352              	.LVL49:
 353              		.loc 1 190 0
 354 0106 002B     		cmp	r3, #0
 355 0108 00F09F80 		beq	.L56
 356              	.LVL50:
 357 010c 4346     		mov	r3, r8
 358              		.loc 1 112 0
 359 010e 4144     		add	r1, r8, r1
 360              	.LVL51:
 361 0110 02E0     		b	.L37
 362              	.LVL52:
 363              	.L36:
 364              		.loc 1 190 0 discriminator 2
 365 0112 8945     		cmp	r9, r1
 366 0114 00F08D80 		beq	.L78
 367              	.L37:
 368              		.loc 1 190 0 is_stmt 0 discriminator 1
 369 0118 5A78     		ldrb	r2, [r3, #1]	@ zero_extendqisi2
 370              		.loc 1 112 0 is_stmt 1 discriminator 1
 371 011a 03F10109 		add	r9, r3, #1
 372              	.LVL53:
 373 011e 4B46     		mov	r3, r9
 374              		.loc 1 190 0 discriminator 1
 375 0120 002A     		cmp	r2, #0
 376 0122 F6D1     		bne	.L36
 377 0124 C8EB0909 		rsb	r9, r8, r9
 378              	.LVL54:
 379              		.loc 1 240 0
 380 0128 C9EB0505 		rsb	r5, r9, r5
 381              	.LVL55:
 382              		.loc 1 185 0
 383 012c 2027     		movs	r7, #32
 384              	.LVL56:
 385 012e 25EAE575 		bic	r5, r5, r5, asr #31
 386              	.LVL57:
 387              		.loc 1 242 0
 388 0132 BCF1000F 		cmp	ip, #0
 389 0136 21D0     		beq	.L79
 390              	.LVL58:
 391              	.L43:
 392              		.loc 1 253 0
 393 0138 DBF80030 		ldr	r3, [fp, #0]
 394 013c 5846     		mov	r0, fp
 395 013e 1B68     		ldr	r3, [r3, #0]
 396 0140 4146     		mov	r1, r8
 397 0142 4A46     		mov	r2, r9
 398 0144 9847     		blx	r3
 399              	.LVL59:
ARM GAS  /tmp/ccPsuUAM.s 			page 8


 400              		.loc 1 256 0
 401 0146 002D     		cmp	r5, #0
 402 0148 3FF468AF 		beq	.L68
 403              	.L62:
 404              		.loc 1 257 0
 405 014c DBF80030 		ldr	r3, [fp, #0]
 406 0150 5846     		mov	r0, fp
 407 0152 9B68     		ldr	r3, [r3, #8]
 408 0154 3946     		mov	r1, r7
 409 0156 9847     		blx	r3
 410              	.LVL60:
 411              		.loc 1 256 0
 412 0158 013D     		subs	r5, r5, #1
 413              	.LVL61:
 414 015a F7D1     		bne	.L62
 415 015c 5EE7     		b	.L68
 416              	.LVL62:
 417              	.L30:
 418              		.loc 1 182 0
 419 015e 3368     		ldr	r3, [r6, #0]
 420              	.LVL63:
 421 0160 DDF80C90 		ldr	r9, [sp, #12]
 422 0164 8DF81430 		strb	r3, [sp, #20]
 423              	.LVL64:
 424 0168 0436     		adds	r6, r6, #4
 425              	.LVL65:
 426              		.loc 1 181 0
 427 016a 2027     		movs	r7, #32
 428              		.loc 1 133 0
 429 016c D046     		mov	r8, sl
 430              	.LVL66:
 431              	.L33:
 432              		.loc 1 240 0
 433 016e C9EB0505 		rsb	r5, r9, r5
 434              	.LVL67:
 435 0172 25EAE575 		bic	r5, r5, r5, asr #31
 436              	.LVL68:
 437              		.loc 1 242 0
 438 0176 BCF1000F 		cmp	ip, #0
 439 017a DDD1     		bne	.L43
 440              	.LVL69:
 441              	.L79:
 442              		.loc 1 243 0
 443 017c 6D42     		negs	r5, r5
 444              	.LVL70:
 445              		.loc 1 244 0
 446 017e 5DB1     		cbz	r5, .L44
 447              		.loc 1 245 0
 448 0180 98F80010 		ldrb	r1, [r8, #0]	@ zero_extendqisi2
 449 0184 2D29     		cmp	r1, #45
 450 0186 48D0     		beq	.L80
 451              	.LVL71:
 452              	.L61:
 453              		.loc 1 250 0 discriminator 1
 454 0188 DBF80030 		ldr	r3, [fp, #0]
 455 018c 5846     		mov	r0, fp
 456 018e 9B68     		ldr	r3, [r3, #8]
ARM GAS  /tmp/ccPsuUAM.s 			page 9


 457 0190 3946     		mov	r1, r7
 458 0192 9847     		blx	r3
 459              	.LVL72:
 460              		.loc 1 251 0 discriminator 1
 461 0194 0135     		adds	r5, r5, #1
 462              	.LVL73:
 463 0196 F7D1     		bne	.L61
 464              	.L44:
 465              	.LVL74:
 466              		.loc 1 253 0
 467 0198 DBF80030 		ldr	r3, [fp, #0]
 468 019c 5846     		mov	r0, fp
 469 019e 1B68     		ldr	r3, [r3, #0]
 470 01a0 4146     		mov	r1, r8
 471 01a2 4A46     		mov	r2, r9
 472 01a4 9847     		blx	r3
 473              	.LVL75:
 474 01a6 39E7     		b	.L68
 475              	.LVL76:
 476              	.L29:
 477              		.loc 1 179 0
 478 01a8 1022     		movs	r2, #16
 479              	.LVL77:
 480              	.L28:
 481              		.loc 1 230 0
 482 01aa 3168     		ldr	r1, [r6, #0]
 483              	.LVL78:
 484              	.LBB6:
 485              	.LBB7:
 486              		.loc 1 72 0
 487 01ac 5046     		mov	r0, sl
 488              	.LBE7:
 489              	.LBE6:
 490              		.loc 1 230 0
 491 01ae 0436     		adds	r6, r6, #4
 492              	.LVL79:
 493              	.L73:
 494              	.LBB9:
 495              	.LBB8:
 496              		.loc 1 72 0
 497 01b0 CDF804C0 		str	ip, [sp, #4]
 498 01b4 FFF7FEFF 		bl	long_to_string_with_divisor.constprop.0
 499              	.LVL80:
 500              	.LBE8:
 501              	.LBE9:
 502              		.loc 1 133 0
 503 01b8 D046     		mov	r8, sl
 504 01ba CAEB0009 		rsb	r9, sl, r0
 505              		.loc 1 234 0
 506 01be DDF804C0 		ldr	ip, [sp, #4]
 507 01c2 D4E7     		b	.L33
 508              	.LVL81:
 509              	.L53:
 510              		.loc 1 179 0
 511 01c4 0A22     		movs	r2, #10
 512 01c6 F0E7     		b	.L28
 513              	.L27:
ARM GAS  /tmp/ccPsuUAM.s 			page 10


 514              	.LVL82:
 515 01c8 0822     		movs	r2, #8
 516 01ca EEE7     		b	.L28
 517              	.LVL83:
 518              	.L26:
 519              		.loc 1 198 0
 520 01cc 3168     		ldr	r1, [r6, #0]
 521              	.LVL84:
 522 01ce 0436     		adds	r6, r6, #4
 523              	.LVL85:
 524              		.loc 1 201 0
 525 01d0 0029     		cmp	r1, #0
 526              		.loc 1 132 0
 527 01d2 A8BF     		it	ge
 528 01d4 5046     		movge	r0, sl
 529              		.loc 1 201 0
 530 01d6 30DB     		blt	.L81
 531              	.LVL86:
 532              	.LBB10:
 533              	.LBB11:
 534              		.loc 1 72 0
 535 01d8 0A22     		movs	r2, #10
 536 01da E9E7     		b	.L73
 537              	.LVL87:
 538              	.L25:
 539              	.LBE11:
 540              	.LBE10:
 541              		.loc 1 236 0
 542 01dc 8DF81430 		strb	r3, [sp, #20]
 543              	.LVL88:
 544 01e0 DDF80C90 		ldr	r9, [sp, #12]
 545              		.loc 1 133 0
 546 01e4 D046     		mov	r8, sl
 547              		.loc 1 237 0
 548 01e6 C2E7     		b	.L33
 549              	.LVL89:
 550              	.L77:
 551 01e8 2046     		mov	r0, r4
 552              		.loc 1 156 0
 553 01ea 0021     		movs	r1, #0
 554 01ec 05E0     		b	.L22
 555              	.LVL90:
 556              	.L82:
 557              		.loc 1 162 0
 558 01ee 3278     		ldrb	r2, [r6, #0]	@ zero_extendqisi2
 559              	.LVL91:
 560 01f0 0436     		adds	r6, r6, #4
 561              	.LVL92:
 562              	.L21:
 563              		.loc 1 165 0
 564 01f2 01EB8101 		add	r1, r1, r1, lsl #2
 565              	.LVL93:
 566              		.loc 1 166 0
 567 01f6 02EB4101 		add	r1, r2, r1, lsl #1
 568              	.LVL94:
 569              	.L22:
 570              		.loc 1 158 0
ARM GAS  /tmp/ccPsuUAM.s 			page 11


 571 01fa 10F8013B 		ldrb	r3, [r0], #1	@ zero_extendqisi2
 572              	.LVL95:
 573              		.loc 1 159 0
 574 01fe A3F13002 		sub	r2, r3, #48
 575 0202 D2B2     		uxtb	r2, r2
 576 0204 092A     		cmp	r2, #9
 577              		.loc 1 158 0
 578 0206 0446     		mov	r4, r0
 579              	.LVL96:
 580              		.loc 1 159 0
 581 0208 F3D9     		bls	.L21
 582              		.loc 1 161 0
 583 020a 2A2B     		cmp	r3, #42
 584 020c EFD0     		beq	.L82
 585 020e 3EE7     		b	.L20
 586              	.LVL97:
 587              	.L75:
 588              		.loc 1 136 0
 589 0210 A51C     		adds	r5, r4, #2
 590              	.LVL98:
 591 0212 A378     		ldrb	r3, [r4, #2]	@ zero_extendqisi2
 592              		.loc 1 137 0
 593 0214 4FF0010C 		mov	ip, #1
 594 0218 1BE7     		b	.L15
 595              	.LVL99:
 596              	.L80:
 597              		.loc 1 245 0 discriminator 1
 598 021a 302F     		cmp	r7, #48
 599 021c B4D1     		bne	.L61
 600              		.loc 1 246 0
 601 021e DBF80030 		ldr	r3, [fp, #0]
 602 0222 5846     		mov	r0, fp
 603 0224 9B68     		ldr	r3, [r3, #8]
 604 0226 9847     		blx	r3
 605              	.LVL100:
 606 0228 08F10108 		add	r8, r8, #1
 607              	.LVL101:
 608              		.loc 1 247 0
 609 022c 09F1FF39 		add	r9, r9, #-1
 610              	.LVL102:
 611 0230 AAE7     		b	.L61
 612              	.LVL103:
 613              	.L78:
 614 0232 C8EB0909 		rsb	r9, r8, r9
 615              		.loc 1 185 0
 616 0236 2027     		movs	r7, #32
 617 0238 99E7     		b	.L33
 618              	.LVL104:
 619              	.L81:
 620              		.loc 1 202 0
 621 023a 2D23     		movs	r3, #45
 622              	.LVL105:
 623 023c 8DF81430 		strb	r3, [sp, #20]
 624              	.LVL106:
 625              		.loc 1 203 0
 626 0240 4942     		negs	r1, r1
 627              	.LVL107:
ARM GAS  /tmp/ccPsuUAM.s 			page 12


 628              		.loc 1 202 0
 629 0242 0DF11500 		add	r0, sp, #21
 630              	.LVL108:
 631              	.LBB13:
 632              	.LBB12:
 633              		.loc 1 72 0
 634 0246 0A22     		movs	r2, #10
 635              	.LVL109:
 636 0248 B2E7     		b	.L73
 637              	.LVL110:
 638              	.L56:
 639              	.LBE12:
 640              	.LBE13:
 641              		.loc 1 190 0
 642 024a 9946     		mov	r9, r3
 643              		.loc 1 185 0
 644 024c 2027     		movs	r7, #32
 645 024e 8EE7     		b	.L33
 646              		.cfi_endproc
 647              	.LFE10:
 648              		.size	chvprintf, .-chvprintf
 649              		.section	.text.chsnprintf,"ax",%progbits
 650              		.align	2
 651              		.p2align 4,,15
 652              		.global	chsnprintf
 653              		.thumb
 654              		.thumb_func
 655              		.type	chsnprintf, %function
 656              	chsnprintf:
 657              	.LFB11:
 658              		.loc 1 288 0
 659              		.cfi_startproc
 660              		@ args = 4, pretend = 8, frame = 24
 661              		@ frame_needed = 0, uses_anonymous_args = 1
 662              	.LVL111:
 663 0000 0CB4     		push	{r2, r3}
 664              	.LCFI3:
 665              		.cfi_def_cfa_offset 8
 666              		.cfi_offset 2, -8
 667              		.cfi_offset 3, -4
 668 0002 70B5     		push	{r4, r5, r6, lr}
 669              	.LCFI4:
 670              		.cfi_def_cfa_offset 24
 671              		.cfi_offset 4, -24
 672              		.cfi_offset 5, -20
 673              		.cfi_offset 6, -16
 674              		.cfi_offset 14, -12
 675 0004 86B0     		sub	sp, sp, #24
 676              	.LCFI5:
 677              		.cfi_def_cfa_offset 48
 678              		.loc 1 288 0
 679 0006 0AAC     		add	r4, sp, #40
 680 0008 0646     		mov	r6, r0
 681 000a 54F8045B 		ldr	r5, [r4], #4
 682              		.loc 1 294 0
 683 000e 0023     		movs	r3, #0
 684              		.loc 1 288 0
ARM GAS  /tmp/ccPsuUAM.s 			page 13


 685 0010 0A46     		mov	r2, r1
 686              		.loc 1 294 0
 687 0012 01A8     		add	r0, sp, #4
 688              	.LVL112:
 689 0014 3146     		mov	r1, r6
 690              	.LVL113:
 691 0016 FFF7FEFF 		bl	msObjectInit
 692              	.LVL114:
 693              		.loc 1 299 0
 694 001a 01A8     		add	r0, sp, #4
 695              	.LVL115:
 696 001c 2946     		mov	r1, r5
 697 001e 2246     		mov	r2, r4
 698              		.loc 1 298 0
 699 0020 0094     		str	r4, [sp, #0]
 700              		.loc 1 299 0
 701 0022 FFF7FEFF 		bl	chvprintf
 702              	.LVL116:
 703              		.loc 1 303 0
 704 0026 019B     		ldr	r3, [sp, #4]
 705 0028 01A8     		add	r0, sp, #4
 706              	.LVL117:
 707 002a 9B68     		ldr	r3, [r3, #8]
 708 002c 0021     		movs	r1, #0
 709 002e 9847     		blx	r3
 710              	.LVL118:
 711              		.loc 1 304 0
 712 0030 0498     		ldr	r0, [sp, #16]
 713              		.loc 1 305 0
 714 0032 0138     		subs	r0, r0, #1
 715 0034 06B0     		add	sp, sp, #24
 716 0036 BDE87040 		pop	{r4, r5, r6, lr}
 717 003a 02B0     		add	sp, sp, #8
 718 003c 7047     		bx	lr
 719              		.cfi_endproc
 720              	.LFE11:
 721              		.size	chsnprintf, .-chsnprintf
 722              		.section	.rodata.str1.4,"aMS",%progbits,1
 723              		.align	2
 724              	.LC0:
 725 0000 286E756C 		.ascii	"(null)\000"
 725      6C2900
 726 0007 00       		.text
 727              	.Letext0:
 728              		.file 2 "/opt/psas/x-tools/stm32f407/arm-psas-eabi/bin/../lib/gcc/arm-psas-eabi/4.7.2/include/stdd
 729              		.file 3 "/opt/psas/x-tools/stm32f407/arm-psas-eabi/bin/../lib/gcc/arm-psas-eabi/4.7.2/../../../../
 730              		.file 4 "/home/wicker/tools/ChibiOS_2.6.3/os/ports/GCC/ARMCMx/chtypes.h"
 731              		.file 5 "/home/wicker/tools/ChibiOS_2.6.3/os/kernel/include/chstreams.h"
 732              		.file 6 "/opt/psas/x-tools/stm32f407/arm-psas-eabi/bin/../lib/gcc/arm-psas-eabi/4.7.2/include/stda
 733              		.file 7 "<built-in>"
 734              		.file 8 "/home/wicker/tools/ChibiOS_2.6.3/os/various/memstreams.h"