ARM GAS  /tmp/ccwzAXjk.s 			page 1


   1              		.syntax unified
   2              		.cpu cortex-m4
   3              		.eabi_attribute 27, 3
   4              		.eabi_attribute 28, 1
   5              		.fpu fpv4-sp-d16
   6              		.eabi_attribute 20, 1
   7              		.eabi_attribute 21, 1
   8              		.eabi_attribute 23, 3
   9              		.eabi_attribute 24, 1
  10              		.eabi_attribute 25, 1
  11              		.eabi_attribute 26, 1
  12              		.eabi_attribute 30, 2
  13              		.eabi_attribute 34, 1
  14              		.eabi_attribute 18, 4
  15              		.thumb
  16              		.file	"chschd.c"
  17              		.text
  18              	.Ltext0:
  19              		.cfi_sections	.debug_frame
  20              		.section	.text.wakeup,"ax",%progbits
  21              		.align	2
  22              		.p2align 4,,15
  23              		.thumb
  24              		.thumb_func
  25              		.type	wakeup, %function
  26              	wakeup:
  27              	.LFB10:
  28              		.file 1 "/home/wicker/tools/ChibiOS_2.6.3/os/kernel/src/chschd.c"
  29              		.loc 1 136 0
  30              		.cfi_startproc
  31              		@ args = 0, pretend = 0, frame = 0
  32              		@ frame_needed = 0, uses_anonymous_args = 0
  33              		@ link register save eliminated.
  34              	.LVL0:
  35              	.LBB22:
  36              		.loc 1 139 0
  37 0000 2023     		movs	r3, #32
  38              	.LVL1:
  39              	@ 139 "/home/wicker/tools/ChibiOS_2.6.3/os/kernel/src/chschd.c" 1
  40 0002 83F31188 		msr     BASEPRI, r3
  41              	@ 0 "" 2
  42              	.LVL2:
  43              		.thumb
  44              	.LBE22:
  45              		.loc 1 140 0
  46 0006 037F     		ldrb	r3, [r0, #28]	@ zero_extendqisi2
  47              	.LVL3:
  48 0008 0D2B     		cmp	r3, #13
  49 000a 11D8     		bhi	.L2
  50 000c DFE803F0 		tbb	[pc, r3]
  51              	.L6:
  52 0010 20       		.byte	(.L10-.L6)/2
  53 0011 10       		.byte	(.L2-.L6)/2
  54 0012 10       		.byte	(.L2-.L6)/2
  55 0013 07       		.byte	(.L4-.L6)/2
  56 0014 10       		.byte	(.L2-.L6)/2
  57 0015 0B       		.byte	(.L5-.L6)/2
ARM GAS  /tmp/ccwzAXjk.s 			page 2


  58 0016 10       		.byte	(.L2-.L6)/2
  59 0017 10       		.byte	(.L2-.L6)/2
  60 0018 10       		.byte	(.L2-.L6)/2
  61 0019 10       		.byte	(.L2-.L6)/2
  62 001a 10       		.byte	(.L2-.L6)/2
  63 001b 10       		.byte	(.L2-.L6)/2
  64 001c 10       		.byte	(.L2-.L6)/2
  65 001d 0B       		.byte	(.L5-.L6)/2
  66              		.align	1
  67              	.L4:
  68              		.loc 1 150 0
  69 001e 436A     		ldr	r3, [r0, #36]
  70 0020 9A68     		ldr	r2, [r3, #8]
  71 0022 0132     		adds	r2, r2, #1
  72 0024 9A60     		str	r2, [r3, #8]
  73              	.L5:
  74              	.LVL4:
  75              	.LBB23:
  76              	.LBB24:
  77              		.file 2 "/home/wicker/tools/ChibiOS_2.6.3/os/kernel/include/chinline.h"
  78              		.loc 2 75 0
  79 0026 90E80C00 		ldmia	r0, {r2, r3}
  80 002a 1A60     		str	r2, [r3, #0]
  81              		.loc 2 76 0
  82 002c 0268     		ldr	r2, [r0, #0]
  83 002e 5360     		str	r3, [r2, #4]
  84              	.LVL5:
  85              	.L2:
  86              	.LBE24:
  87              	.LBE23:
  88              		.loc 1 163 0
  89 0030 4FF0FF32 		mov	r2, #-1
  90 0034 4262     		str	r2, [r0, #36]
  91              	.LVL6:
  92 0036 8168     		ldr	r1, [r0, #8]
  93              	.LBB25:
  94              	.LBB26:
  95              		.loc 1 93 0
  96 0038 074B     		ldr	r3, .L12
  97              		.loc 1 92 0
  98 003a 0022     		movs	r2, #0
  99 003c 0277     		strb	r2, [r0, #28]
 100              	.LVL7:
 101              	.L8:
 102              		.loc 1 95 0
 103 003e 1B68     		ldr	r3, [r3, #0]
 104              	.LVL8:
 105              		.loc 1 96 0
 106 0040 9A68     		ldr	r2, [r3, #8]
 107 0042 8A42     		cmp	r2, r1
 108 0044 FBD2     		bcs	.L8
 109              		.loc 1 99 0
 110 0046 5A68     		ldr	r2, [r3, #4]
 111              		.loc 1 98 0
 112 0048 0360     		str	r3, [r0, #0]
 113              		.loc 1 99 0
 114 004a 4260     		str	r2, [r0, #4]
ARM GAS  /tmp/ccwzAXjk.s 			page 3


 115              		.loc 1 100 0
 116 004c 1060     		str	r0, [r2, #0]
 117 004e 5860     		str	r0, [r3, #4]
 118              	.LVL9:
 119              	.L10:
 120              	.LBE26:
 121              	.LBE25:
 122              	.LBB27:
 123              		.loc 1 165 0
 124 0050 0023     		movs	r3, #0
 125              	.LVL10:
 126              	@ 165 "/home/wicker/tools/ChibiOS_2.6.3/os/kernel/src/chschd.c" 1
 127 0052 83F31188 		msr     BASEPRI, r3
 128              	@ 0 "" 2
 129              	.LVL11:
 130              		.thumb
 131 0056 7047     		bx	lr
 132              	.L13:
 133              		.align	2
 134              	.L12:
 135 0058 00000000 		.word	.LANCHOR0
 136              	.LBE27:
 137              		.cfi_endproc
 138              	.LFE10:
 139              		.size	wakeup, .-wakeup
 140 005c AFF30080 		.section	.text._scheduler_init,"ax",%progbits
 141              		.align	2
 142              		.p2align 4,,15
 143              		.global	_scheduler_init
 144              		.thumb
 145              		.thumb_func
 146              		.type	_scheduler_init, %function
 147              	_scheduler_init:
 148              	.LFB7:
 149              		.loc 1 55 0
 150              		.cfi_startproc
 151              		@ args = 0, pretend = 0, frame = 0
 152              		@ frame_needed = 0, uses_anonymous_args = 0
 153              		@ link register save eliminated.
 154              		.loc 1 57 0
 155 0000 40F20003 		movw	r3, #:lower16:.LANCHOR0
 156 0004 C0F20003 		movt	r3, #:upper16:.LANCHOR0
 157              		.loc 1 58 0
 158 0008 0022     		movs	r2, #0
 159              		.loc 1 57 0
 160 000a 5B60     		str	r3, [r3, #4]
 161 000c 1B60     		str	r3, [r3, #0]
 162              		.loc 1 58 0
 163 000e 9A60     		str	r2, [r3, #8]
 164              		.loc 1 60 0
 165 0010 5B61     		str	r3, [r3, #20]
 166 0012 1B61     		str	r3, [r3, #16]
 167 0014 7047     		bx	lr
 168              		.cfi_endproc
 169              	.LFE7:
 170              		.size	_scheduler_init, .-_scheduler_init
 171 0016 00BFAFF3 		.section	.text.chSchReadyI,"ax",%progbits
ARM GAS  /tmp/ccwzAXjk.s 			page 4


 171      0080AFF3 
 171      0080
 172              		.align	2
 173              		.p2align 4,,15
 174              		.global	chSchReadyI
 175              		.thumb
 176              		.thumb_func
 177              		.type	chSchReadyI, %function
 178              	chSchReadyI:
 179              	.LFB8:
 180              		.loc 1 81 0
 181              		.cfi_startproc
 182              		@ args = 0, pretend = 0, frame = 0
 183              		@ frame_needed = 0, uses_anonymous_args = 0
 184              		@ link register save eliminated.
 185              	.LVL12:
 186              		.loc 1 92 0
 187 0000 0022     		movs	r2, #0
 188 0002 8168     		ldr	r1, [r0, #8]
 189              		.loc 1 93 0
 190 0004 054B     		ldr	r3, .L18
 191              		.loc 1 92 0
 192 0006 0277     		strb	r2, [r0, #28]
 193              	.LVL13:
 194              	.L16:
 195              		.loc 1 95 0 discriminator 1
 196 0008 1B68     		ldr	r3, [r3, #0]
 197              	.LVL14:
 198              		.loc 1 96 0 discriminator 1
 199 000a 9A68     		ldr	r2, [r3, #8]
 200 000c 8A42     		cmp	r2, r1
 201 000e FBD2     		bcs	.L16
 202              		.loc 1 99 0
 203 0010 5A68     		ldr	r2, [r3, #4]
 204              		.loc 1 98 0
 205 0012 0360     		str	r3, [r0, #0]
 206              		.loc 1 99 0
 207 0014 4260     		str	r2, [r0, #4]
 208              		.loc 1 100 0
 209 0016 1060     		str	r0, [r2, #0]
 210 0018 5860     		str	r0, [r3, #4]
 211              		.loc 1 102 0
 212 001a 7047     		bx	lr
 213              	.L19:
 214              		.align	2
 215              	.L18:
 216 001c 00000000 		.word	.LANCHOR0
 217              		.cfi_endproc
 218              	.LFE8:
 219              		.size	chSchReadyI, .-chSchReadyI
 220              		.section	.text.chSchGoSleepS,"ax",%progbits
 221              		.align	2
 222              		.p2align 4,,15
 223              		.global	chSchGoSleepS
 224              		.thumb
 225              		.thumb_func
 226              		.type	chSchGoSleepS, %function
ARM GAS  /tmp/ccwzAXjk.s 			page 5


 227              	chSchGoSleepS:
 228              	.LFB9:
 229              		.loc 1 115 0
 230              		.cfi_startproc
 231              		@ args = 0, pretend = 0, frame = 0
 232              		@ frame_needed = 0, uses_anonymous_args = 0
 233              		@ link register save eliminated.
 234              	.LVL15:
 235              		.loc 1 120 0
 236 0000 40F20003 		movw	r3, #:lower16:.LANCHOR0
 237 0004 C0F20003 		movt	r3, #:upper16:.LANCHOR0
 238              		.loc 1 115 0
 239 0008 10B4     		push	{r4}
 240              	.LCFI0:
 241              		.cfi_def_cfa_offset 4
 242              		.cfi_offset 4, -4
 243              		.loc 1 120 0
 244 000a 9969     		ldr	r1, [r3, #24]
 245              	.LVL16:
 246              	.LBB28:
 247              	.LBB29:
 248              		.loc 2 60 0
 249 000c 1A68     		ldr	r2, [r3, #0]
 250              	.LBE29:
 251              	.LBE28:
 252              		.loc 1 120 0
 253 000e 0877     		strb	r0, [r1, #28]
 254              		.loc 1 124 0
 255 0010 1420     		movs	r0, #20
 256              	.LVL17:
 257              	.LBB32:
 258              	.LBB30:
 259              		.loc 2 62 0
 260 0012 1468     		ldr	r4, [r2, #0]
 261              	.LBE30:
 262              	.LBE32:
 263              		.loc 1 124 0
 264 0014 C877     		strb	r0, [r1, #31]
 265              	.LVL18:
 266              		.loc 1 127 0
 267 0016 0120     		movs	r0, #1
 268 0018 1077     		strb	r0, [r2, #28]
 269              		.loc 1 128 0
 270 001a 1046     		mov	r0, r2
 271              	.LBB33:
 272              	.LBB31:
 273              		.loc 2 62 0
 274 001c 6360     		str	r3, [r4, #4]
 275 001e 1C60     		str	r4, [r3, #0]
 276              	.LBE31:
 277              	.LBE33:
 278              		.loc 1 126 0
 279 0020 9A61     		str	r2, [r3, #24]
 280              		.loc 1 129 0
 281 0022 10BC     		pop	{r4}
 282              		.loc 1 128 0
 283 0024 FFF7FEBF 		b	_port_switch
ARM GAS  /tmp/ccwzAXjk.s 			page 6


 284              	.LVL19:
 285              		.cfi_endproc
 286              	.LFE9:
 287              		.size	chSchGoSleepS, .-chSchGoSleepS
 288 0028 AFF30080 		.section	.text.chSchGoSleepTimeoutS,"ax",%progbits
 288      AFF30080 
 289              		.align	2
 290              		.p2align 4,,15
 291              		.global	chSchGoSleepTimeoutS
 292              		.thumb
 293              		.thumb_func
 294              		.type	chSchGoSleepTimeoutS, %function
 295              	chSchGoSleepTimeoutS:
 296              	.LFB11:
 297              		.loc 1 189 0
 298              		.cfi_startproc
 299              		@ args = 0, pretend = 0, frame = 24
 300              		@ frame_needed = 0, uses_anonymous_args = 0
 301              	.LVL20:
 302 0000 30B5     		push	{r4, r5, lr}
 303              	.LCFI1:
 304              		.cfi_def_cfa_offset 12
 305              		.cfi_offset 4, -12
 306              		.cfi_offset 5, -8
 307              		.cfi_offset 14, -4
 308              		.loc 1 193 0
 309 0002 4B1C     		adds	r3, r1, #1
 310              		.loc 1 189 0
 311 0004 87B0     		sub	sp, sp, #28
 312              	.LCFI2:
 313              		.cfi_def_cfa_offset 40
 314              		.loc 1 189 0
 315 0006 0546     		mov	r5, r0
 316              		.loc 1 193 0
 317 0008 11D0     		beq	.L22
 318              	.LBB34:
 319              		.loc 1 196 0
 320 000a 0B4C     		ldr	r4, .L28
 321 000c 0B4A     		ldr	r2, .L28+4
 322 000e A369     		ldr	r3, [r4, #24]
 323 0010 01A8     		add	r0, sp, #4
 324              	.LVL21:
 325 0012 FFF7FEFF 		bl	chVTSetI
 326              	.LVL22:
 327              		.loc 1 197 0
 328 0016 2846     		mov	r0, r5
 329 0018 FFF7FEFF 		bl	chSchGoSleepS
 330              	.LVL23:
 331              		.loc 1 198 0
 332 001c 049B     		ldr	r3, [sp, #16]
 333 001e 13B1     		cbz	r3, .L24
 334              		.loc 1 199 0
 335 0020 01A8     		add	r0, sp, #4
 336 0022 FFF7FEFF 		bl	chVTResetI
 337              	.LVL24:
 338              	.L24:
 339              	.LBE34:
ARM GAS  /tmp/ccwzAXjk.s 			page 7


 340              		.loc 1 203 0
 341 0026 A369     		ldr	r3, [r4, #24]
 342              		.loc 1 204 0
 343 0028 586A     		ldr	r0, [r3, #36]
 344 002a 07B0     		add	sp, sp, #28
 345 002c 30BD     		pop	{r4, r5, pc}
 346              	.LVL25:
 347              	.L22:
 348              		.loc 1 202 0
 349 002e FFF7FEFF 		bl	chSchGoSleepS
 350              	.LVL26:
 351 0032 014C     		ldr	r4, .L28
 352 0034 F7E7     		b	.L24
 353              	.L29:
 354 0036 00BF     		.align	2
 355              	.L28:
 356 0038 00000000 		.word	.LANCHOR0
 357 003c 00000000 		.word	wakeup
 358              		.cfi_endproc
 359              	.LFE11:
 360              		.size	chSchGoSleepTimeoutS, .-chSchGoSleepTimeoutS
 361              		.section	.text.chSchWakeupS,"ax",%progbits
 362              		.align	2
 363              		.p2align 4,,15
 364              		.global	chSchWakeupS
 365              		.thumb
 366              		.thumb_func
 367              		.type	chSchWakeupS, %function
 368              	chSchWakeupS:
 369              	.LFB12:
 370              		.loc 1 225 0
 371              		.cfi_startproc
 372              		@ args = 0, pretend = 0, frame = 0
 373              		@ frame_needed = 0, uses_anonymous_args = 0
 374              		@ link register save eliminated.
 375              	.LVL27:
 376 0000 F0B4     		push	{r4, r5, r6, r7}
 377              	.LCFI3:
 378              		.cfi_def_cfa_offset 16
 379              		.cfi_offset 4, -16
 380              		.cfi_offset 5, -12
 381              		.cfi_offset 6, -8
 382              		.cfi_offset 7, -4
 383              		.loc 1 234 0
 384 0002 144F     		ldr	r7, .L38
 385 0004 8568     		ldr	r5, [r0, #8]
 386 0006 BE69     		ldr	r6, [r7, #24]
 387              		.loc 1 225 0
 388 0008 0446     		mov	r4, r0
 389              		.loc 1 234 0
 390 000a B068     		ldr	r0, [r6, #8]
 391              	.LVL28:
 392              		.loc 1 229 0
 393 000c 6162     		str	r1, [r4, #36]
 394              	.LBB35:
 395              	.LBB36:
 396              		.loc 1 92 0
ARM GAS  /tmp/ccwzAXjk.s 			page 8


 397 000e 0023     		movs	r3, #0
 398              	.LBE36:
 399              	.LBE35:
 400              		.loc 1 234 0
 401 0010 8542     		cmp	r5, r0
 402 0012 0CD8     		bhi	.L31
 403              	.LVL29:
 404              	.LBB38:
 405              	.LBB37:
 406              		.loc 1 92 0
 407 0014 2377     		strb	r3, [r4, #28]
 408              	.LVL30:
 409              		.loc 1 93 0
 410 0016 3B46     		mov	r3, r7
 411              	.LVL31:
 412              	.L32:
 413              		.loc 1 95 0
 414 0018 1B68     		ldr	r3, [r3, #0]
 415              	.LVL32:
 416              		.loc 1 96 0
 417 001a 9A68     		ldr	r2, [r3, #8]
 418 001c 9542     		cmp	r5, r2
 419 001e FBD9     		bls	.L32
 420              		.loc 1 99 0
 421 0020 5A68     		ldr	r2, [r3, #4]
 422              		.loc 1 98 0
 423 0022 2360     		str	r3, [r4, #0]
 424              		.loc 1 99 0
 425 0024 6260     		str	r2, [r4, #4]
 426              		.loc 1 100 0
 427 0026 1460     		str	r4, [r2, #0]
 428 0028 5C60     		str	r4, [r3, #4]
 429              	.LBE37:
 430              	.LBE38:
 431              		.loc 1 242 0
 432 002a F0BC     		pop	{r4, r5, r6, r7}
 433 002c 7047     		bx	lr
 434              	.LVL33:
 435              	.L31:
 436              	.LBB39:
 437              	.LBB40:
 438              	.LBB41:
 439              		.loc 1 92 0
 440 002e 3377     		strb	r3, [r6, #28]
 441              	.LVL34:
 442              		.loc 1 93 0
 443 0030 3B46     		mov	r3, r7
 444              	.LVL35:
 445              	.L34:
 446              		.loc 1 95 0
 447 0032 1B68     		ldr	r3, [r3, #0]
 448              	.LVL36:
 449              		.loc 1 96 0
 450 0034 9A68     		ldr	r2, [r3, #8]
 451 0036 9042     		cmp	r0, r2
 452 0038 FBD9     		bls	.L34
 453              		.loc 1 99 0
ARM GAS  /tmp/ccwzAXjk.s 			page 9


 454 003a 5A68     		ldr	r2, [r3, #4]
 455              		.loc 1 98 0
 456 003c 3360     		str	r3, [r6, #0]
 457              		.loc 1 99 0
 458 003e 7260     		str	r2, [r6, #4]
 459              	.LBE41:
 460              	.LBE40:
 461              		.loc 1 240 0
 462 0040 2046     		mov	r0, r4
 463              	.LBB44:
 464              	.LBB42:
 465              		.loc 1 100 0
 466 0042 5E60     		str	r6, [r3, #4]
 467              	.LBE42:
 468              	.LBE44:
 469              		.loc 1 240 0
 470 0044 3146     		mov	r1, r6
 471              	.LVL37:
 472              		.loc 1 239 0
 473 0046 0123     		movs	r3, #1
 474              	.LVL38:
 475              	.LBB45:
 476              	.LBB43:
 477              		.loc 1 100 0
 478 0048 1660     		str	r6, [r2, #0]
 479              	.LBE43:
 480              	.LBE45:
 481              		.loc 1 239 0
 482 004a 2377     		strb	r3, [r4, #28]
 483              		.loc 1 238 0
 484 004c BC61     		str	r4, [r7, #24]
 485              	.LBE39:
 486              		.loc 1 242 0
 487 004e F0BC     		pop	{r4, r5, r6, r7}
 488              	.LBB46:
 489              		.loc 1 240 0
 490 0050 FFF7FEBF 		b	_port_switch
 491              	.LVL39:
 492              	.L39:
 493              		.align	2
 494              	.L38:
 495 0054 00000000 		.word	.LANCHOR0
 496              	.LBE46:
 497              		.cfi_endproc
 498              	.LFE12:
 499              		.size	chSchWakeupS, .-chSchWakeupS
 500 0058 AFF30080 		.section	.text.chSchDoRescheduleBehind,"ax",%progbits
 500      AFF30080 
 501              		.align	2
 502              		.p2align 4,,15
 503              		.global	chSchDoRescheduleBehind
 504              		.thumb
 505              		.thumb_func
 506              		.type	chSchDoRescheduleBehind, %function
 507              	chSchDoRescheduleBehind:
 508              	.LFB14:
 509              		.loc 1 304 0
ARM GAS  /tmp/ccwzAXjk.s 			page 10


 510              		.cfi_startproc
 511              		@ args = 0, pretend = 0, frame = 0
 512              		@ frame_needed = 0, uses_anonymous_args = 0
 513              		@ link register save eliminated.
 514              		.loc 1 307 0
 515 0000 0E4B     		ldr	r3, .L44
 516              	.LBB47:
 517              	.LBB48:
 518              		.loc 2 60 0
 519 0002 1868     		ldr	r0, [r3, #0]
 520              	.LBE48:
 521              	.LBE47:
 522              		.loc 1 307 0
 523 0004 9969     		ldr	r1, [r3, #24]
 524              	.LVL40:
 525              	.LBB51:
 526              	.LBB49:
 527              		.loc 2 62 0
 528 0006 0268     		ldr	r2, [r0, #0]
 529              	.LBE49:
 530              	.LBE51:
 531              		.loc 1 304 0
 532 0008 30B4     		push	{r4, r5}
 533              	.LCFI4:
 534              		.cfi_def_cfa_offset 8
 535              		.cfi_offset 4, -8
 536              		.cfi_offset 5, -4
 537              	.LBB52:
 538              	.LBB50:
 539              		.loc 2 62 0
 540 000a 5360     		str	r3, [r2, #4]
 541 000c 8C68     		ldr	r4, [r1, #8]
 542 000e 1A60     		str	r2, [r3, #0]
 543              	.LBE50:
 544              	.LBE52:
 545              		.loc 1 309 0
 546 0010 9861     		str	r0, [r3, #24]
 547              		.loc 1 312 0
 548 0012 1423     		movs	r3, #20
 549              		.loc 1 310 0
 550 0014 0125     		movs	r5, #1
 551              		.loc 1 312 0
 552 0016 CB77     		strb	r3, [r1, #31]
 553              	.LVL41:
 554              	.LBB53:
 555              	.LBB54:
 556              		.loc 1 92 0
 557 0018 0023     		movs	r3, #0
 558              	.LBE54:
 559              	.LBE53:
 560              		.loc 1 310 0
 561 001a 0577     		strb	r5, [r0, #28]
 562              	.LBB56:
 563              	.LBB55:
 564              		.loc 1 92 0
 565 001c 0B77     		strb	r3, [r1, #28]
 566              	.LVL42:
ARM GAS  /tmp/ccwzAXjk.s 			page 11


 567 001e 0346     		mov	r3, r0
 568 0020 00E0     		b	.L42
 569              	.LVL43:
 570              	.L43:
 571 0022 1B68     		ldr	r3, [r3, #0]
 572              	.LVL44:
 573              	.L42:
 574              		.loc 1 96 0
 575 0024 9A68     		ldr	r2, [r3, #8]
 576 0026 A242     		cmp	r2, r4
 577 0028 FBD2     		bcs	.L43
 578              		.loc 1 99 0
 579 002a 5A68     		ldr	r2, [r3, #4]
 580              		.loc 1 98 0
 581 002c 0B60     		str	r3, [r1, #0]
 582              		.loc 1 99 0
 583 002e 4A60     		str	r2, [r1, #4]
 584              		.loc 1 100 0
 585 0030 1160     		str	r1, [r2, #0]
 586 0032 5960     		str	r1, [r3, #4]
 587              	.LBE55:
 588              	.LBE56:
 589              		.loc 1 316 0
 590 0034 30BC     		pop	{r4, r5}
 591              		.loc 1 315 0
 592 0036 FFF7FEBF 		b	_port_switch
 593              	.LVL45:
 594              	.L45:
 595 003a 00BF     		.align	2
 596              	.L44:
 597 003c 00000000 		.word	.LANCHOR0
 598              		.cfi_endproc
 599              	.LFE14:
 600              		.size	chSchDoRescheduleBehind, .-chSchDoRescheduleBehind
 601              		.section	.text.chSchDoRescheduleAhead,"ax",%progbits
 602              		.align	2
 603              		.p2align 4,,15
 604              		.global	chSchDoRescheduleAhead
 605              		.thumb
 606              		.thumb_func
 607              		.type	chSchDoRescheduleAhead, %function
 608              	chSchDoRescheduleAhead:
 609              	.LFB15:
 610              		.loc 1 329 0
 611              		.cfi_startproc
 612              		@ args = 0, pretend = 0, frame = 0
 613              		@ frame_needed = 0, uses_anonymous_args = 0
 614              		@ link register save eliminated.
 615              		.loc 1 332 0
 616 0000 0D4B     		ldr	r3, .L50
 617              	.LBB57:
 618              	.LBB58:
 619              		.loc 2 60 0
 620 0002 1868     		ldr	r0, [r3, #0]
 621              	.LBE58:
 622              	.LBE57:
 623              		.loc 1 332 0
ARM GAS  /tmp/ccwzAXjk.s 			page 12


 624 0004 9969     		ldr	r1, [r3, #24]
 625              	.LVL46:
 626              	.LBB61:
 627              	.LBB59:
 628              		.loc 2 62 0
 629 0006 0268     		ldr	r2, [r0, #0]
 630              	.LBE59:
 631              	.LBE61:
 632              		.loc 1 329 0
 633 0008 30B4     		push	{r4, r5}
 634              	.LCFI5:
 635              		.cfi_def_cfa_offset 8
 636              		.cfi_offset 4, -8
 637              		.cfi_offset 5, -4
 638              	.LBB62:
 639              	.LBB60:
 640              		.loc 2 62 0
 641 000a 5360     		str	r3, [r2, #4]
 642 000c 8C68     		ldr	r4, [r1, #8]
 643 000e 1A60     		str	r2, [r3, #0]
 644              	.LBE60:
 645              	.LBE62:
 646              		.loc 1 335 0
 647 0010 0125     		movs	r5, #1
 648              		.loc 1 334 0
 649 0012 9861     		str	r0, [r3, #24]
 650              		.loc 1 337 0
 651 0014 0023     		movs	r3, #0
 652              		.loc 1 335 0
 653 0016 0577     		strb	r5, [r0, #28]
 654              		.loc 1 337 0
 655 0018 0B77     		strb	r3, [r1, #28]
 656              	.LVL47:
 657 001a 0346     		mov	r3, r0
 658 001c 00E0     		b	.L48
 659              	.LVL48:
 660              	.L49:
 661 001e 1B68     		ldr	r3, [r3, #0]
 662              	.LVL49:
 663              	.L48:
 664              		.loc 1 341 0 discriminator 1
 665 0020 9A68     		ldr	r2, [r3, #8]
 666 0022 A242     		cmp	r2, r4
 667 0024 FBD8     		bhi	.L49
 668              		.loc 1 344 0
 669 0026 5A68     		ldr	r2, [r3, #4]
 670              		.loc 1 343 0
 671 0028 0B60     		str	r3, [r1, #0]
 672              		.loc 1 344 0
 673 002a 4A60     		str	r2, [r1, #4]
 674              		.loc 1 345 0
 675 002c 1160     		str	r1, [r2, #0]
 676 002e 5960     		str	r1, [r3, #4]
 677              		.loc 1 348 0
 678 0030 30BC     		pop	{r4, r5}
 679              		.loc 1 347 0
 680 0032 FFF7FEBF 		b	_port_switch
ARM GAS  /tmp/ccwzAXjk.s 			page 13


 681              	.LVL50:
 682              	.L51:
 683 0036 00BF     		.align	2
 684              	.L50:
 685 0038 00000000 		.word	.LANCHOR0
 686              		.cfi_endproc
 687              	.LFE15:
 688              		.size	chSchDoRescheduleAhead, .-chSchDoRescheduleAhead
 689 003c AFF30080 		.section	.text.chSchRescheduleS,"ax",%progbits
 690              		.align	2
 691              		.p2align 4,,15
 692              		.global	chSchRescheduleS
 693              		.thumb
 694              		.thumb_func
 695              		.type	chSchRescheduleS, %function
 696              	chSchRescheduleS:
 697              	.LFB13:
 698              		.loc 1 253 0
 699              		.cfi_startproc
 700              		@ args = 0, pretend = 0, frame = 0
 701              		@ frame_needed = 0, uses_anonymous_args = 0
 702              		@ link register save eliminated.
 703              		.loc 1 257 0
 704 0000 044B     		ldr	r3, .L55
 705 0002 1A68     		ldr	r2, [r3, #0]
 706 0004 9B69     		ldr	r3, [r3, #24]
 707 0006 9268     		ldr	r2, [r2, #8]
 708 0008 9B68     		ldr	r3, [r3, #8]
 709 000a 9A42     		cmp	r2, r3
 710 000c 00D8     		bhi	.L54
 711 000e 7047     		bx	lr
 712              	.L54:
 713              		.loc 1 259 0
 714              		.loc 1 258 0
 715 0010 FFF7FEBF 		b	chSchDoRescheduleAhead
 716              	.LVL51:
 717              	.L56:
 718              		.align	2
 719              	.L55:
 720 0014 00000000 		.word	.LANCHOR0
 721              		.cfi_endproc
 722              	.LFE13:
 723              		.size	chSchRescheduleS, .-chSchRescheduleS
 724 0018 AFF30080 		.section	.text.chSchDoReschedule,"ax",%progbits
 724      AFF30080 
 725              		.align	2
 726              		.p2align 4,,15
 727              		.global	chSchDoReschedule
 728              		.thumb
 729              		.thumb_func
 730              		.type	chSchDoReschedule, %function
 731              	chSchDoReschedule:
 732              	.LFB16:
 733              		.loc 1 362 0
 734              		.cfi_startproc
 735              		@ args = 0, pretend = 0, frame = 0
 736              		@ frame_needed = 0, uses_anonymous_args = 0
ARM GAS  /tmp/ccwzAXjk.s 			page 14


 737              		@ link register save eliminated.
 738              		.loc 1 367 0
 739 0000 034B     		ldr	r3, .L60
 740 0002 9B69     		ldr	r3, [r3, #24]
 741 0004 DB7F     		ldrb	r3, [r3, #31]	@ zero_extendqisi2
 742 0006 0BB1     		cbz	r3, .L59
 743              		.loc 1 382 0
 744              		.loc 1 375 0
 745 0008 FFF7FEBF 		b	chSchDoRescheduleAhead
 746              	.LVL52:
 747              	.L59:
 748              		.loc 1 382 0
 749              		.loc 1 370 0
 750 000c FFF7FEBF 		b	chSchDoRescheduleBehind
 751              	.LVL53:
 752              	.L61:
 753              		.align	2
 754              	.L60:
 755 0010 00000000 		.word	.LANCHOR0
 756              		.cfi_endproc
 757              	.LFE16:
 758              		.size	chSchDoReschedule, .-chSchDoReschedule
 759              		.global	rlist
 760 0014 AFF30080 		.section	.bss.rlist,"aw",%nobits
 760      AFF30080 
 760      AFF30080 
 761              		.align	2
 762              		.set	.LANCHOR0,. + 0
 763              		.type	rlist, %object
 764              		.size	rlist, 28
 765              	rlist:
 766 0000 00000000 		.space	28
 766      00000000 
 766      00000000 
 766      00000000 
 766      00000000 
 767              		.text
 768              	.Letext0:
 769              		.file 3 "/opt/psas/x-tools/stm32f407/arm-psas-eabi/bin/../lib/gcc/arm-psas-eabi/4.7.2/../../../../
 770              		.file 4 "/home/wicker/tools/ChibiOS_2.6.3/os/ports/GCC/ARMCMx/chtypes.h"
 771              		.file 5 "/home/wicker/tools/ChibiOS_2.6.3/os/kernel/include/chlists.h"
 772              		.file 6 "/home/wicker/tools/ChibiOS_2.6.3/os/kernel/include/chthreads.h"
 773              		.file 7 "/home/wicker/tools/ChibiOS_2.6.3/os/ports/GCC/ARMCMx/chcore_v7m.h"
 774              		.file 8 "/home/wicker/tools/ChibiOS_2.6.3/os/kernel/include/chvt.h"
 775              		.file 9 "/home/wicker/tools/ChibiOS_2.6.3/os/kernel/include/chschd.h"
 776              		.file 10 "/home/wicker/tools/ChibiOS_2.6.3/os/kernel/include/chsem.h"
 777              		.file 11 "/home/wicker/tools/ChibiOS_2.6.3/os/kernel/include/chmtx.h"
 778              		.section	.debug_info,"",%progbits
 779              	.Ldebug_info0:
 780 0000 DF090000 		.4byte	0x9df
 781 0004 0200     		.2byte	0x2
 782 0006 00000000 		.4byte	.Ldebug_abbrev0
 783 000a 04       		.byte	0x4
 784 000b 01       		.uleb128 0x1
 785 000c E5010000 		.4byte	.LASF86
 786 0010 01       		.byte	0x1
 787 0011 36020000 		.4byte	.LASF87
ARM GAS  /tmp/ccwzAXjk.s 			page 15


 788 0015 78010000 		.4byte	.Ldebug_ranges0+0x178
 789 0019 00000000 		.4byte	0
 790 001d 00000000 		.4byte	0
 791 0021 00000000 		.4byte	.Ldebug_line0
 792 0025 02       		.uleb128 0x2
 793 0026 04       		.byte	0x4
 794 0027 05       		.byte	0x5
 795 0028 696E7400 		.ascii	"int\000"
 796 002c 03       		.uleb128 0x3
 797 002d 04       		.byte	0x4
 798 002e 07       		.byte	0x7
 799 002f F3000000 		.4byte	.LASF0
 800 0033 03       		.uleb128 0x3
 801 0034 01       		.byte	0x1
 802 0035 06       		.byte	0x6
 803 0036 69000000 		.4byte	.LASF1
 804 003a 04       		.uleb128 0x4
 805 003b 8B030000 		.4byte	.LASF5
 806 003f 03       		.byte	0x3
 807 0040 2A       		.byte	0x2a
 808 0041 45000000 		.4byte	0x45
 809 0045 03       		.uleb128 0x3
 810 0046 01       		.byte	0x1
 811 0047 08       		.byte	0x8
 812 0048 28020000 		.4byte	.LASF2
 813 004c 03       		.uleb128 0x3
 814 004d 02       		.byte	0x2
 815 004e 05       		.byte	0x5
 816 004f 81020000 		.4byte	.LASF3
 817 0053 03       		.uleb128 0x3
 818 0054 02       		.byte	0x2
 819 0055 07       		.byte	0x7
 820 0056 3C010000 		.4byte	.LASF4
 821 005a 04       		.uleb128 0x4
 822 005b 20020000 		.4byte	.LASF6
 823 005f 03       		.byte	0x3
 824 0060 4F       		.byte	0x4f
 825 0061 65000000 		.4byte	0x65
 826 0065 03       		.uleb128 0x3
 827 0066 04       		.byte	0x4
 828 0067 05       		.byte	0x5
 829 0068 8F000000 		.4byte	.LASF7
 830 006c 04       		.uleb128 0x4
 831 006d E5020000 		.4byte	.LASF8
 832 0071 03       		.byte	0x3
 833 0072 50       		.byte	0x50
 834 0073 77000000 		.4byte	0x77
 835 0077 03       		.uleb128 0x3
 836 0078 04       		.byte	0x4
 837 0079 07       		.byte	0x7
 838 007a 1C010000 		.4byte	.LASF9
 839 007e 03       		.uleb128 0x3
 840 007f 08       		.byte	0x8
 841 0080 05       		.byte	0x5
 842 0081 5B000000 		.4byte	.LASF10
 843 0085 03       		.uleb128 0x3
 844 0086 08       		.byte	0x8
ARM GAS  /tmp/ccwzAXjk.s 			page 16


 845 0087 07       		.byte	0x7
 846 0088 24000000 		.4byte	.LASF11
 847 008c 03       		.uleb128 0x3
 848 008d 01       		.byte	0x1
 849 008e 02       		.byte	0x2
 850 008f 1A020000 		.4byte	.LASF12
 851 0093 04       		.uleb128 0x4
 852 0094 62010000 		.4byte	.LASF13
 853 0098 04       		.byte	0x4
 854 0099 2C       		.byte	0x2c
 855 009a 3A000000 		.4byte	0x3a
 856 009e 04       		.uleb128 0x4
 857 009f 98000000 		.4byte	.LASF14
 858 00a3 04       		.byte	0x4
 859 00a4 2D       		.byte	0x2d
 860 00a5 3A000000 		.4byte	0x3a
 861 00a9 04       		.uleb128 0x4
 862 00aa 03020000 		.4byte	.LASF15
 863 00ae 04       		.byte	0x4
 864 00af 2E       		.byte	0x2e
 865 00b0 3A000000 		.4byte	0x3a
 866 00b4 04       		.uleb128 0x4
 867 00b5 85000000 		.4byte	.LASF16
 868 00b9 04       		.byte	0x4
 869 00ba 2F       		.byte	0x2f
 870 00bb 3A000000 		.4byte	0x3a
 871 00bf 04       		.uleb128 0x4
 872 00c0 12020000 		.4byte	.LASF17
 873 00c4 04       		.byte	0x4
 874 00c5 30       		.byte	0x30
 875 00c6 6C000000 		.4byte	0x6c
 876 00ca 04       		.uleb128 0x4
 877 00cb 5C010000 		.4byte	.LASF18
 878 00cf 04       		.byte	0x4
 879 00d0 31       		.byte	0x31
 880 00d1 5A000000 		.4byte	0x5a
 881 00d5 04       		.uleb128 0x4
 882 00d6 76010000 		.4byte	.LASF19
 883 00da 04       		.byte	0x4
 884 00db 33       		.byte	0x33
 885 00dc 6C000000 		.4byte	0x6c
 886 00e0 04       		.uleb128 0x4
 887 00e1 27030000 		.4byte	.LASF20
 888 00e5 04       		.byte	0x4
 889 00e6 35       		.byte	0x35
 890 00e7 6C000000 		.4byte	0x6c
 891 00eb 04       		.uleb128 0x4
 892 00ec ED000000 		.4byte	.LASF21
 893 00f0 04       		.byte	0x4
 894 00f1 36       		.byte	0x36
 895 00f2 5A000000 		.4byte	0x5a
 896 00f6 04       		.uleb128 0x4
 897 00f7 BA020000 		.4byte	.LASF22
 898 00fb 05       		.byte	0x5
 899 00fc 2A       		.byte	0x2a
 900 00fd 01010000 		.4byte	0x101
 901 0101 05       		.uleb128 0x5
ARM GAS  /tmp/ccwzAXjk.s 			page 17


 902 0102 BA020000 		.4byte	.LASF22
 903 0106 48       		.byte	0x48
 904 0107 06       		.byte	0x6
 905 0108 5E       		.byte	0x5e
 906 0109 26020000 		.4byte	0x226
 907 010d 06       		.uleb128 0x6
 908 010e AB020000 		.4byte	.LASF23
 909 0112 06       		.byte	0x6
 910 0113 5F       		.byte	0x5f
 911 0114 4B020000 		.4byte	0x24b
 912 0118 02       		.byte	0x2
 913 0119 23       		.byte	0x23
 914 011a 00       		.uleb128 0
 915 011b 06       		.uleb128 0x6
 916 011c 0B020000 		.4byte	.LASF24
 917 0120 06       		.byte	0x6
 918 0121 61       		.byte	0x61
 919 0122 4B020000 		.4byte	0x24b
 920 0126 02       		.byte	0x2
 921 0127 23       		.byte	0x23
 922 0128 04       		.uleb128 0x4
 923 0129 06       		.uleb128 0x6
 924 012a 44000000 		.4byte	.LASF25
 925 012e 06       		.byte	0x6
 926 012f 63       		.byte	0x63
 927 0130 BF000000 		.4byte	0xbf
 928 0134 02       		.byte	0x2
 929 0135 23       		.byte	0x23
 930 0136 08       		.uleb128 0x8
 931 0137 06       		.uleb128 0x6
 932 0138 BE030000 		.4byte	.LASF26
 933 013c 06       		.byte	0x6
 934 013d 64       		.byte	0x64
 935 013e 19030000 		.4byte	0x319
 936 0142 02       		.byte	0x2
 937 0143 23       		.byte	0x23
 938 0144 0C       		.uleb128 0xc
 939 0145 06       		.uleb128 0x6
 940 0146 A1000000 		.4byte	.LASF27
 941 014a 06       		.byte	0x6
 942 014b 66       		.byte	0x66
 943 014c 4B020000 		.4byte	0x24b
 944 0150 02       		.byte	0x2
 945 0151 23       		.byte	0x23
 946 0152 10       		.uleb128 0x10
 947 0153 06       		.uleb128 0x6
 948 0154 C2010000 		.4byte	.LASF28
 949 0158 06       		.byte	0x6
 950 0159 67       		.byte	0x67
 951 015a 4B020000 		.4byte	0x24b
 952 015e 02       		.byte	0x2
 953 015f 23       		.byte	0x23
 954 0160 14       		.uleb128 0x14
 955 0161 06       		.uleb128 0x6
 956 0162 9A030000 		.4byte	.LASF29
 957 0166 06       		.byte	0x6
 958 0167 6E       		.byte	0x6e
ARM GAS  /tmp/ccwzAXjk.s 			page 18


 959 0168 E2040000 		.4byte	0x4e2
 960 016c 02       		.byte	0x2
 961 016d 23       		.byte	0x23
 962 016e 18       		.uleb128 0x18
 963 016f 06       		.uleb128 0x6
 964 0170 8B020000 		.4byte	.LASF30
 965 0174 06       		.byte	0x6
 966 0175 79       		.byte	0x79
 967 0176 9E000000 		.4byte	0x9e
 968 017a 02       		.byte	0x2
 969 017b 23       		.byte	0x23
 970 017c 1C       		.uleb128 0x1c
 971 017d 06       		.uleb128 0x6
 972 017e B2020000 		.4byte	.LASF31
 973 0182 06       		.byte	0x6
 974 0183 7D       		.byte	0x7d
 975 0184 93000000 		.4byte	0x93
 976 0188 02       		.byte	0x2
 977 0189 23       		.byte	0x23
 978 018a 1D       		.uleb128 0x1d
 979 018b 06       		.uleb128 0x6
 980 018c 74030000 		.4byte	.LASF32
 981 0190 06       		.byte	0x6
 982 0191 82       		.byte	0x82
 983 0192 A9000000 		.4byte	0xa9
 984 0196 02       		.byte	0x2
 985 0197 23       		.byte	0x23
 986 0198 1E       		.uleb128 0x1e
 987 0199 06       		.uleb128 0x6
 988 019a 93020000 		.4byte	.LASF33
 989 019e 06       		.byte	0x6
 990 019f 88       		.byte	0x88
 991 01a0 B4000000 		.4byte	0xb4
 992 01a4 02       		.byte	0x2
 993 01a5 23       		.byte	0x23
 994 01a6 1F       		.uleb128 0x1f
 995 01a7 06       		.uleb128 0x6
 996 01a8 45030000 		.4byte	.LASF34
 997 01ac 06       		.byte	0x6
 998 01ad 8F       		.byte	0x8f
 999 01ae C4030000 		.4byte	0x3c4
 1000 01b2 02       		.byte	0x2
 1001 01b3 23       		.byte	0x23
 1002 01b4 20       		.uleb128 0x20
 1003 01b5 07       		.uleb128 0x7
 1004 01b6 705F7500 		.ascii	"p_u\000"
 1005 01ba 06       		.byte	0x6
 1006 01bb B4       		.byte	0xb4
 1007 01bc AD040000 		.4byte	0x4ad
 1008 01c0 02       		.byte	0x2
 1009 01c1 23       		.byte	0x23
 1010 01c2 24       		.uleb128 0x24
 1011 01c3 06       		.uleb128 0x6
 1012 01c4 C4030000 		.4byte	.LASF35
 1013 01c8 06       		.byte	0x6
 1014 01c9 B9       		.byte	0xb9
 1015 01ca 73020000 		.4byte	0x273
ARM GAS  /tmp/ccwzAXjk.s 			page 19


 1016 01ce 02       		.byte	0x2
 1017 01cf 23       		.byte	0x23
 1018 01d0 28       		.uleb128 0x28
 1019 01d1 06       		.uleb128 0x6
 1020 01d2 53030000 		.4byte	.LASF36
 1021 01d6 06       		.byte	0x6
 1022 01d7 BF       		.byte	0xbf
 1023 01d8 51020000 		.4byte	0x251
 1024 01dc 02       		.byte	0x2
 1025 01dd 23       		.byte	0x23
 1026 01de 2C       		.uleb128 0x2c
 1027 01df 06       		.uleb128 0x6
 1028 01e0 00000000 		.4byte	.LASF37
 1029 01e4 06       		.byte	0x6
 1030 01e5 C3       		.byte	0xc3
 1031 01e6 CA000000 		.4byte	0xca
 1032 01ea 02       		.byte	0x2
 1033 01eb 23       		.byte	0x23
 1034 01ec 34       		.uleb128 0x34
 1035 01ed 06       		.uleb128 0x6
 1036 01ee DA020000 		.4byte	.LASF38
 1037 01f2 06       		.byte	0x6
 1038 01f3 C9       		.byte	0xc9
 1039 01f4 D5000000 		.4byte	0xd5
 1040 01f8 02       		.byte	0x2
 1041 01f9 23       		.byte	0x23
 1042 01fa 38       		.uleb128 0x38
 1043 01fb 06       		.uleb128 0x6
 1044 01fc 77020000 		.4byte	.LASF39
 1045 0200 06       		.byte	0x6
 1046 0201 D0       		.byte	0xd0
 1047 0202 F4040000 		.4byte	0x4f4
 1048 0206 02       		.byte	0x2
 1049 0207 23       		.byte	0x23
 1050 0208 3C       		.uleb128 0x3c
 1051 0209 06       		.uleb128 0x6
 1052 020a 31030000 		.4byte	.LASF40
 1053 020e 06       		.byte	0x6
 1054 020f D4       		.byte	0xd4
 1055 0210 BF000000 		.4byte	0xbf
 1056 0214 02       		.byte	0x2
 1057 0215 23       		.byte	0x23
 1058 0216 40       		.uleb128 0x40
 1059 0217 06       		.uleb128 0x6
 1060 0218 75000000 		.4byte	.LASF41
 1061 021c 06       		.byte	0x6
 1062 021d DA       		.byte	0xda
 1063 021e 89020000 		.4byte	0x289
 1064 0222 02       		.byte	0x2
 1065 0223 23       		.byte	0x23
 1066 0224 44       		.uleb128 0x44
 1067 0225 00       		.byte	0
 1068 0226 08       		.uleb128 0x8
 1069 0227 08       		.byte	0x8
 1070 0228 05       		.byte	0x5
 1071 0229 61       		.byte	0x61
 1072 022a 4B020000 		.4byte	0x24b
ARM GAS  /tmp/ccwzAXjk.s 			page 20


 1073 022e 06       		.uleb128 0x6
 1074 022f AB020000 		.4byte	.LASF23
 1075 0233 05       		.byte	0x5
 1076 0234 62       		.byte	0x62
 1077 0235 4B020000 		.4byte	0x24b
 1078 0239 02       		.byte	0x2
 1079 023a 23       		.byte	0x23
 1080 023b 00       		.uleb128 0
 1081 023c 06       		.uleb128 0x6
 1082 023d 0B020000 		.4byte	.LASF24
 1083 0241 05       		.byte	0x5
 1084 0242 64       		.byte	0x64
 1085 0243 4B020000 		.4byte	0x24b
 1086 0247 02       		.byte	0x2
 1087 0248 23       		.byte	0x23
 1088 0249 04       		.uleb128 0x4
 1089 024a 00       		.byte	0
 1090 024b 09       		.uleb128 0x9
 1091 024c 04       		.byte	0x4
 1092 024d F6000000 		.4byte	0xf6
 1093 0251 04       		.uleb128 0x4
 1094 0252 D0010000 		.4byte	.LASF42
 1095 0256 05       		.byte	0x5
 1096 0257 66       		.byte	0x66
 1097 0258 26020000 		.4byte	0x226
 1098 025c 08       		.uleb128 0x8
 1099 025d 04       		.byte	0x4
 1100 025e 05       		.byte	0x5
 1101 025f 6B       		.byte	0x6b
 1102 0260 73020000 		.4byte	0x273
 1103 0264 06       		.uleb128 0x6
 1104 0265 AB020000 		.4byte	.LASF23
 1105 0269 05       		.byte	0x5
 1106 026a 6D       		.byte	0x6d
 1107 026b 4B020000 		.4byte	0x24b
 1108 026f 02       		.byte	0x2
 1109 0270 23       		.byte	0x23
 1110 0271 00       		.uleb128 0
 1111 0272 00       		.byte	0
 1112 0273 04       		.uleb128 0x4
 1113 0274 6A010000 		.4byte	.LASF43
 1114 0278 05       		.byte	0x5
 1115 0279 70       		.byte	0x70
 1116 027a 5C020000 		.4byte	0x25c
 1117 027e 04       		.uleb128 0x4
 1118 027f CA000000 		.4byte	.LASF44
 1119 0283 07       		.byte	0x7
 1120 0284 E5       		.byte	0xe5
 1121 0285 89020000 		.4byte	0x289
 1122 0289 0A       		.uleb128 0xa
 1123 028a 04       		.byte	0x4
 1124 028b 0B       		.uleb128 0xb
 1125 028c 4C030000 		.4byte	.LASF45
 1126 0290 24       		.byte	0x24
 1127 0291 07       		.byte	0x7
 1128 0292 0C01     		.2byte	0x10c
 1129 0294 19030000 		.4byte	0x319
ARM GAS  /tmp/ccwzAXjk.s 			page 21


 1130 0298 0C       		.uleb128 0xc
 1131 0299 723400   		.ascii	"r4\000"
 1132 029c 07       		.byte	0x7
 1133 029d 1F01     		.2byte	0x11f
 1134 029f 7E020000 		.4byte	0x27e
 1135 02a3 02       		.byte	0x2
 1136 02a4 23       		.byte	0x23
 1137 02a5 00       		.uleb128 0
 1138 02a6 0C       		.uleb128 0xc
 1139 02a7 723500   		.ascii	"r5\000"
 1140 02aa 07       		.byte	0x7
 1141 02ab 2001     		.2byte	0x120
 1142 02ad 7E020000 		.4byte	0x27e
 1143 02b1 02       		.byte	0x2
 1144 02b2 23       		.byte	0x23
 1145 02b3 04       		.uleb128 0x4
 1146 02b4 0C       		.uleb128 0xc
 1147 02b5 723600   		.ascii	"r6\000"
 1148 02b8 07       		.byte	0x7
 1149 02b9 2101     		.2byte	0x121
 1150 02bb 7E020000 		.4byte	0x27e
 1151 02bf 02       		.byte	0x2
 1152 02c0 23       		.byte	0x23
 1153 02c1 08       		.uleb128 0x8
 1154 02c2 0C       		.uleb128 0xc
 1155 02c3 723700   		.ascii	"r7\000"
 1156 02c6 07       		.byte	0x7
 1157 02c7 2201     		.2byte	0x122
 1158 02c9 7E020000 		.4byte	0x27e
 1159 02cd 02       		.byte	0x2
 1160 02ce 23       		.byte	0x23
 1161 02cf 0C       		.uleb128 0xc
 1162 02d0 0C       		.uleb128 0xc
 1163 02d1 723800   		.ascii	"r8\000"
 1164 02d4 07       		.byte	0x7
 1165 02d5 2301     		.2byte	0x123
 1166 02d7 7E020000 		.4byte	0x27e
 1167 02db 02       		.byte	0x2
 1168 02dc 23       		.byte	0x23
 1169 02dd 10       		.uleb128 0x10
 1170 02de 0C       		.uleb128 0xc
 1171 02df 723900   		.ascii	"r9\000"
 1172 02e2 07       		.byte	0x7
 1173 02e3 2401     		.2byte	0x124
 1174 02e5 7E020000 		.4byte	0x27e
 1175 02e9 02       		.byte	0x2
 1176 02ea 23       		.byte	0x23
 1177 02eb 14       		.uleb128 0x14
 1178 02ec 0C       		.uleb128 0xc
 1179 02ed 72313000 		.ascii	"r10\000"
 1180 02f1 07       		.byte	0x7
 1181 02f2 2501     		.2byte	0x125
 1182 02f4 7E020000 		.4byte	0x27e
 1183 02f8 02       		.byte	0x2
 1184 02f9 23       		.byte	0x23
 1185 02fa 18       		.uleb128 0x18
 1186 02fb 0C       		.uleb128 0xc
ARM GAS  /tmp/ccwzAXjk.s 			page 22


 1187 02fc 72313100 		.ascii	"r11\000"
 1188 0300 07       		.byte	0x7
 1189 0301 2601     		.2byte	0x126
 1190 0303 7E020000 		.4byte	0x27e
 1191 0307 02       		.byte	0x2
 1192 0308 23       		.byte	0x23
 1193 0309 1C       		.uleb128 0x1c
 1194 030a 0C       		.uleb128 0xc
 1195 030b 6C7200   		.ascii	"lr\000"
 1196 030e 07       		.byte	0x7
 1197 030f 2701     		.2byte	0x127
 1198 0311 7E020000 		.4byte	0x27e
 1199 0315 02       		.byte	0x2
 1200 0316 23       		.byte	0x23
 1201 0317 20       		.uleb128 0x20
 1202 0318 00       		.byte	0
 1203 0319 0B       		.uleb128 0xb
 1204 031a 34010000 		.4byte	.LASF46
 1205 031e 04       		.byte	0x4
 1206 031f 07       		.byte	0x7
 1207 0320 3101     		.2byte	0x131
 1208 0322 36030000 		.4byte	0x336
 1209 0326 0C       		.uleb128 0xc
 1210 0327 72313300 		.ascii	"r13\000"
 1211 032b 07       		.byte	0x7
 1212 032c 3201     		.2byte	0x132
 1213 032e 36030000 		.4byte	0x336
 1214 0332 02       		.byte	0x2
 1215 0333 23       		.byte	0x23
 1216 0334 00       		.uleb128 0
 1217 0335 00       		.byte	0
 1218 0336 09       		.uleb128 0x9
 1219 0337 04       		.byte	0x4
 1220 0338 8B020000 		.4byte	0x28b
 1221 033c 03       		.uleb128 0x3
 1222 033d 04       		.byte	0x4
 1223 033e 07       		.byte	0x7
 1224 033f 90010000 		.4byte	.LASF47
 1225 0343 04       		.uleb128 0x4
 1226 0344 3C030000 		.4byte	.LASF48
 1227 0348 08       		.byte	0x8
 1228 0349 58       		.byte	0x58
 1229 034a 4E030000 		.4byte	0x34e
 1230 034e 09       		.uleb128 0x9
 1231 034f 04       		.byte	0x4
 1232 0350 54030000 		.4byte	0x354
 1233 0354 0D       		.uleb128 0xd
 1234 0355 01       		.byte	0x1
 1235 0356 60030000 		.4byte	0x360
 1236 035a 0E       		.uleb128 0xe
 1237 035b 89020000 		.4byte	0x289
 1238 035f 00       		.byte	0
 1239 0360 04       		.uleb128 0x4
 1240 0361 F6020000 		.4byte	.LASF49
 1241 0365 08       		.byte	0x8
 1242 0366 5D       		.byte	0x5d
 1243 0367 6B030000 		.4byte	0x36b
ARM GAS  /tmp/ccwzAXjk.s 			page 23


 1244 036b 05       		.uleb128 0x5
 1245 036c F6020000 		.4byte	.LASF49
 1246 0370 14       		.byte	0x14
 1247 0371 08       		.byte	0x8
 1248 0372 64       		.byte	0x64
 1249 0373 BE030000 		.4byte	0x3be
 1250 0377 06       		.uleb128 0x6
 1251 0378 07010000 		.4byte	.LASF50
 1252 037c 08       		.byte	0x8
 1253 037d 65       		.byte	0x65
 1254 037e BE030000 		.4byte	0x3be
 1255 0382 02       		.byte	0x2
 1256 0383 23       		.byte	0x23
 1257 0384 00       		.uleb128 0
 1258 0385 06       		.uleb128 0x6
 1259 0386 D3000000 		.4byte	.LASF51
 1260 038a 08       		.byte	0x8
 1261 038b 67       		.byte	0x67
 1262 038c BE030000 		.4byte	0x3be
 1263 0390 02       		.byte	0x2
 1264 0391 23       		.byte	0x23
 1265 0392 04       		.uleb128 0x4
 1266 0393 06       		.uleb128 0x6
 1267 0394 88010000 		.4byte	.LASF52
 1268 0398 08       		.byte	0x8
 1269 0399 69       		.byte	0x69
 1270 039a E0000000 		.4byte	0xe0
 1271 039e 02       		.byte	0x2
 1272 039f 23       		.byte	0x23
 1273 03a0 08       		.uleb128 0x8
 1274 03a1 06       		.uleb128 0x6
 1275 03a2 99010000 		.4byte	.LASF53
 1276 03a6 08       		.byte	0x8
 1277 03a7 6A       		.byte	0x6a
 1278 03a8 43030000 		.4byte	0x343
 1279 03ac 02       		.byte	0x2
 1280 03ad 23       		.byte	0x23
 1281 03ae 0C       		.uleb128 0xc
 1282 03af 06       		.uleb128 0x6
 1283 03b0 63030000 		.4byte	.LASF54
 1284 03b4 08       		.byte	0x8
 1285 03b5 6C       		.byte	0x6c
 1286 03b6 89020000 		.4byte	0x289
 1287 03ba 02       		.byte	0x2
 1288 03bb 23       		.byte	0x23
 1289 03bc 10       		.uleb128 0x10
 1290 03bd 00       		.byte	0
 1291 03be 09       		.uleb128 0x9
 1292 03bf 04       		.byte	0x4
 1293 03c0 60030000 		.4byte	0x360
 1294 03c4 0F       		.uleb128 0xf
 1295 03c5 E0000000 		.4byte	0xe0
 1296 03c9 08       		.uleb128 0x8
 1297 03ca 1C       		.byte	0x1c
 1298 03cb 09       		.byte	0x9
 1299 03cc 5E       		.byte	0x5e
 1300 03cd 26040000 		.4byte	0x426
ARM GAS  /tmp/ccwzAXjk.s 			page 24


 1301 03d1 06       		.uleb128 0x6
 1302 03d2 EE020000 		.4byte	.LASF55
 1303 03d6 09       		.byte	0x9
 1304 03d7 5F       		.byte	0x5f
 1305 03d8 51020000 		.4byte	0x251
 1306 03dc 02       		.byte	0x2
 1307 03dd 23       		.byte	0x23
 1308 03de 00       		.uleb128 0
 1309 03df 06       		.uleb128 0x6
 1310 03e0 9D020000 		.4byte	.LASF56
 1311 03e4 09       		.byte	0x9
 1312 03e5 60       		.byte	0x60
 1313 03e6 BF000000 		.4byte	0xbf
 1314 03ea 02       		.byte	0x2
 1315 03eb 23       		.byte	0x23
 1316 03ec 08       		.uleb128 0x8
 1317 03ed 06       		.uleb128 0x6
 1318 03ee CA010000 		.4byte	.LASF57
 1319 03f2 09       		.byte	0x9
 1320 03f3 62       		.byte	0x62
 1321 03f4 19030000 		.4byte	0x319
 1322 03f8 02       		.byte	0x2
 1323 03f9 23       		.byte	0x23
 1324 03fa 0C       		.uleb128 0xc
 1325 03fb 06       		.uleb128 0x6
 1326 03fc C2000000 		.4byte	.LASF58
 1327 0400 09       		.byte	0x9
 1328 0401 65       		.byte	0x65
 1329 0402 4B020000 		.4byte	0x24b
 1330 0406 02       		.byte	0x2
 1331 0407 23       		.byte	0x23
 1332 0408 10       		.uleb128 0x10
 1333 0409 06       		.uleb128 0x6
 1334 040a FB010000 		.4byte	.LASF59
 1335 040e 09       		.byte	0x9
 1336 040f 66       		.byte	0x66
 1337 0410 4B020000 		.4byte	0x24b
 1338 0414 02       		.byte	0x2
 1339 0415 23       		.byte	0x23
 1340 0416 14       		.uleb128 0x14
 1341 0417 06       		.uleb128 0x6
 1342 0418 F1010000 		.4byte	.LASF60
 1343 041c 09       		.byte	0x9
 1344 041d 69       		.byte	0x69
 1345 041e 4B020000 		.4byte	0x24b
 1346 0422 02       		.byte	0x2
 1347 0423 23       		.byte	0x23
 1348 0424 18       		.uleb128 0x18
 1349 0425 00       		.byte	0
 1350 0426 04       		.uleb128 0x4
 1351 0427 7B030000 		.4byte	.LASF61
 1352 042b 09       		.byte	0x9
 1353 042c 6B       		.byte	0x6b
 1354 042d C9030000 		.4byte	0x3c9
 1355 0431 05       		.uleb128 0x5
 1356 0432 6A030000 		.4byte	.LASF62
 1357 0436 0C       		.byte	0xc
ARM GAS  /tmp/ccwzAXjk.s 			page 25


 1358 0437 0A       		.byte	0xa
 1359 0438 2C       		.byte	0x2c
 1360 0439 5A040000 		.4byte	0x45a
 1361 043d 06       		.uleb128 0x6
 1362 043e A9000000 		.4byte	.LASF63
 1363 0442 0A       		.byte	0xa
 1364 0443 2D       		.byte	0x2d
 1365 0444 51020000 		.4byte	0x251
 1366 0448 02       		.byte	0x2
 1367 0449 23       		.byte	0x23
 1368 044a 00       		.uleb128 0
 1369 044b 06       		.uleb128 0x6
 1370 044c 2E010000 		.4byte	.LASF64
 1371 0450 0A       		.byte	0xa
 1372 0451 2F       		.byte	0x2f
 1373 0452 EB000000 		.4byte	0xeb
 1374 0456 02       		.byte	0x2
 1375 0457 23       		.byte	0x23
 1376 0458 08       		.uleb128 0x8
 1377 0459 00       		.byte	0
 1378 045a 04       		.uleb128 0x4
 1379 045b 6A030000 		.4byte	.LASF62
 1380 045f 0A       		.byte	0xa
 1381 0460 30       		.byte	0x30
 1382 0461 31040000 		.4byte	0x431
 1383 0465 05       		.uleb128 0x5
 1384 0466 82010000 		.4byte	.LASF65
 1385 046a 10       		.byte	0x10
 1386 046b 0B       		.byte	0xb
 1387 046c 2C       		.byte	0x2c
 1388 046d 9C040000 		.4byte	0x49c
 1389 0471 06       		.uleb128 0x6
 1390 0472 7D000000 		.4byte	.LASF66
 1391 0476 0B       		.byte	0xb
 1392 0477 2D       		.byte	0x2d
 1393 0478 51020000 		.4byte	0x251
 1394 047c 02       		.byte	0x2
 1395 047d 23       		.byte	0x23
 1396 047e 00       		.uleb128 0
 1397 047f 06       		.uleb128 0x6
 1398 0480 B6030000 		.4byte	.LASF67
 1399 0484 0B       		.byte	0xb
 1400 0485 2F       		.byte	0x2f
 1401 0486 4B020000 		.4byte	0x24b
 1402 048a 02       		.byte	0x2
 1403 048b 23       		.byte	0x23
 1404 048c 08       		.uleb128 0x8
 1405 048d 06       		.uleb128 0x6
 1406 048e 20030000 		.4byte	.LASF68
 1407 0492 0B       		.byte	0xb
 1408 0493 31       		.byte	0x31
 1409 0494 9C040000 		.4byte	0x49c
 1410 0498 02       		.byte	0x2
 1411 0499 23       		.byte	0x23
 1412 049a 0C       		.uleb128 0xc
 1413 049b 00       		.byte	0
 1414 049c 09       		.uleb128 0x9
ARM GAS  /tmp/ccwzAXjk.s 			page 26


 1415 049d 04       		.byte	0x4
 1416 049e 65040000 		.4byte	0x465
 1417 04a2 04       		.uleb128 0x4
 1418 04a3 82010000 		.4byte	.LASF65
 1419 04a7 0B       		.byte	0xb
 1420 04a8 33       		.byte	0x33
 1421 04a9 65040000 		.4byte	0x465
 1422 04ad 10       		.uleb128 0x10
 1423 04ae 04       		.byte	0x4
 1424 04af 06       		.byte	0x6
 1425 04b0 96       		.byte	0x96
 1426 04b1 E2040000 		.4byte	0x4e2
 1427 04b5 11       		.uleb128 0x11
 1428 04b6 06000000 		.4byte	.LASF69
 1429 04ba 06       		.byte	0x6
 1430 04bb 9D       		.byte	0x9d
 1431 04bc CA000000 		.4byte	0xca
 1432 04c0 11       		.uleb128 0x11
 1433 04c1 3B000000 		.4byte	.LASF70
 1434 04c5 06       		.byte	0x6
 1435 04c6 A4       		.byte	0xa4
 1436 04c7 CA000000 		.4byte	0xca
 1437 04cb 11       		.uleb128 0x11
 1438 04cc 93030000 		.4byte	.LASF71
 1439 04d0 06       		.byte	0x6
 1440 04d1 AB       		.byte	0xab
 1441 04d2 89020000 		.4byte	0x289
 1442 04d6 11       		.uleb128 0x11
 1443 04d7 A4020000 		.4byte	.LASF72
 1444 04db 06       		.byte	0x6
 1445 04dc B2       		.byte	0xb2
 1446 04dd D5000000 		.4byte	0xd5
 1447 04e1 00       		.byte	0
 1448 04e2 09       		.uleb128 0x9
 1449 04e3 04       		.byte	0x4
 1450 04e4 E8040000 		.4byte	0x4e8
 1451 04e8 12       		.uleb128 0x12
 1452 04e9 ED040000 		.4byte	0x4ed
 1453 04ed 03       		.uleb128 0x3
 1454 04ee 01       		.byte	0x1
 1455 04ef 08       		.byte	0x8
 1456 04f0 03030000 		.4byte	.LASF73
 1457 04f4 09       		.uleb128 0x9
 1458 04f5 04       		.byte	0x4
 1459 04f6 A2040000 		.4byte	0x4a2
 1460 04fa 13       		.uleb128 0x13
 1461 04fb DD010000 		.4byte	.LASF74
 1462 04ff 02       		.byte	0x2
 1463 0500 49       		.byte	0x49
 1464 0501 01       		.byte	0x1
 1465 0502 4B020000 		.4byte	0x24b
 1466 0506 03       		.byte	0x3
 1467 0507 16050000 		.4byte	0x516
 1468 050b 14       		.uleb128 0x14
 1469 050c 747000   		.ascii	"tp\000"
 1470 050f 02       		.byte	0x2
 1471 0510 49       		.byte	0x49
ARM GAS  /tmp/ccwzAXjk.s 			page 27


 1472 0511 4B020000 		.4byte	0x24b
 1473 0515 00       		.byte	0
 1474 0516 15       		.uleb128 0x15
 1475 0517 01       		.byte	0x1
 1476 0518 14030000 		.4byte	.LASF88
 1477 051c 01       		.byte	0x1
 1478 051d 51       		.byte	0x51
 1479 051e 01       		.byte	0x1
 1480 051f 4B020000 		.4byte	0x24b
 1481 0523 01       		.byte	0x1
 1482 0524 3D050000 		.4byte	0x53d
 1483 0528 14       		.uleb128 0x14
 1484 0529 747000   		.ascii	"tp\000"
 1485 052c 01       		.byte	0x1
 1486 052d 51       		.byte	0x51
 1487 052e 4B020000 		.4byte	0x24b
 1488 0532 16       		.uleb128 0x16
 1489 0533 637000   		.ascii	"cp\000"
 1490 0536 01       		.byte	0x1
 1491 0537 52       		.byte	0x52
 1492 0538 4B020000 		.4byte	0x24b
 1493 053c 00       		.byte	0
 1494 053d 13       		.uleb128 0x13
 1495 053e 08030000 		.4byte	.LASF75
 1496 0542 02       		.byte	0x2
 1497 0543 3B       		.byte	0x3b
 1498 0544 01       		.byte	0x1
 1499 0545 4B020000 		.4byte	0x24b
 1500 0549 03       		.byte	0x3
 1501 054a 64050000 		.4byte	0x564
 1502 054e 14       		.uleb128 0x14
 1503 054f 74717000 		.ascii	"tqp\000"
 1504 0553 02       		.byte	0x2
 1505 0554 3B       		.byte	0x3b
 1506 0555 64050000 		.4byte	0x564
 1507 0559 16       		.uleb128 0x16
 1508 055a 747000   		.ascii	"tp\000"
 1509 055d 02       		.byte	0x2
 1510 055e 3C       		.byte	0x3c
 1511 055f 4B020000 		.4byte	0x24b
 1512 0563 00       		.byte	0
 1513 0564 09       		.uleb128 0x9
 1514 0565 04       		.byte	0x4
 1515 0566 51020000 		.4byte	0x251
 1516 056a 17       		.uleb128 0x17
 1517 056b 00010000 		.4byte	.LASF89
 1518 056f 01       		.byte	0x1
 1519 0570 88       		.byte	0x88
 1520 0571 01       		.byte	0x1
 1521 0572 00000000 		.4byte	.LFB10
 1522 0576 5C000000 		.4byte	.LFE10
 1523 057a 02       		.byte	0x2
 1524 057b 7D       		.byte	0x7d
 1525 057c 00       		.sleb128 0
 1526 057d 01       		.byte	0x1
 1527 057e 1D060000 		.4byte	0x61d
 1528 0582 18       		.uleb128 0x18
ARM GAS  /tmp/ccwzAXjk.s 			page 28


 1529 0583 7000     		.ascii	"p\000"
 1530 0585 01       		.byte	0x1
 1531 0586 88       		.byte	0x88
 1532 0587 89020000 		.4byte	0x289
 1533 058b 01       		.byte	0x1
 1534 058c 50       		.byte	0x50
 1535 058d 19       		.uleb128 0x19
 1536 058e 747000   		.ascii	"tp\000"
 1537 0591 01       		.byte	0x1
 1538 0592 89       		.byte	0x89
 1539 0593 4B020000 		.4byte	0x24b
 1540 0597 01       		.byte	0x1
 1541 0598 50       		.byte	0x50
 1542 0599 1A       		.uleb128 0x1a
 1543 059a 00000000 		.4byte	.LBB22
 1544 059e 06000000 		.4byte	.LBE22
 1545 05a2 B6050000 		.4byte	0x5b6
 1546 05a6 1B       		.uleb128 0x1b
 1547 05a7 746D7000 		.ascii	"tmp\000"
 1548 05ab 01       		.byte	0x1
 1549 05ac 8B       		.byte	0x8b
 1550 05ad 6C000000 		.4byte	0x6c
 1551 05b1 00000000 		.4byte	.LLST0
 1552 05b5 00       		.byte	0
 1553 05b6 1C       		.uleb128 0x1c
 1554 05b7 FA040000 		.4byte	0x4fa
 1555 05bb 26000000 		.4byte	.LBB23
 1556 05bf 30000000 		.4byte	.LBE23
 1557 05c3 01       		.byte	0x1
 1558 05c4 A0       		.byte	0xa0
 1559 05c5 D3050000 		.4byte	0x5d3
 1560 05c9 1D       		.uleb128 0x1d
 1561 05ca 0B050000 		.4byte	0x50b
 1562 05ce 13000000 		.4byte	.LLST1
 1563 05d2 00       		.byte	0
 1564 05d3 1C       		.uleb128 0x1c
 1565 05d4 16050000 		.4byte	0x516
 1566 05d8 38000000 		.4byte	.LBB25
 1567 05dc 50000000 		.4byte	.LBE25
 1568 05e0 01       		.byte	0x1
 1569 05e1 A4       		.byte	0xa4
 1570 05e2 03060000 		.4byte	0x603
 1571 05e6 1D       		.uleb128 0x1d
 1572 05e7 28050000 		.4byte	0x528
 1573 05eb 26000000 		.4byte	.LLST2
 1574 05ef 1E       		.uleb128 0x1e
 1575 05f0 38000000 		.4byte	.LBB26
 1576 05f4 50000000 		.4byte	.LBE26
 1577 05f8 1F       		.uleb128 0x1f
 1578 05f9 32050000 		.4byte	0x532
 1579 05fd 39000000 		.4byte	.LLST3
 1580 0601 00       		.byte	0
 1581 0602 00       		.byte	0
 1582 0603 1E       		.uleb128 0x1e
 1583 0604 50000000 		.4byte	.LBB27
 1584 0608 5C000000 		.4byte	.LBE27
 1585 060c 1B       		.uleb128 0x1b
ARM GAS  /tmp/ccwzAXjk.s 			page 29


 1586 060d 746D7000 		.ascii	"tmp\000"
 1587 0611 01       		.byte	0x1
 1588 0612 A5       		.byte	0xa5
 1589 0613 6C000000 		.4byte	0x6c
 1590 0617 4C000000 		.4byte	.LLST4
 1591 061b 00       		.byte	0
 1592 061c 00       		.byte	0
 1593 061d 20       		.uleb128 0x20
 1594 061e 01       		.byte	0x1
 1595 061f 4B000000 		.4byte	.LASF90
 1596 0623 01       		.byte	0x1
 1597 0624 37       		.byte	0x37
 1598 0625 01       		.byte	0x1
 1599 0626 00000000 		.4byte	.LFB7
 1600 062a 16000000 		.4byte	.LFE7
 1601 062e 02       		.byte	0x2
 1602 062f 7D       		.byte	0x7d
 1603 0630 00       		.sleb128 0
 1604 0631 01       		.byte	0x1
 1605 0632 21       		.uleb128 0x21
 1606 0633 16050000 		.4byte	0x516
 1607 0637 00000000 		.4byte	.LFB8
 1608 063b 20000000 		.4byte	.LFE8
 1609 063f 02       		.byte	0x2
 1610 0640 7D       		.byte	0x7d
 1611 0641 00       		.sleb128 0
 1612 0642 01       		.byte	0x1
 1613 0643 56060000 		.4byte	0x656
 1614 0647 22       		.uleb128 0x22
 1615 0648 28050000 		.4byte	0x528
 1616 064c 01       		.byte	0x1
 1617 064d 50       		.byte	0x50
 1618 064e 23       		.uleb128 0x23
 1619 064f 32050000 		.4byte	0x532
 1620 0653 01       		.byte	0x1
 1621 0654 53       		.byte	0x53
 1622 0655 00       		.byte	0
 1623 0656 24       		.uleb128 0x24
 1624 0657 01       		.byte	0x1
 1625 0658 CC020000 		.4byte	.LASF78
 1626 065c 01       		.byte	0x1
 1627 065d 73       		.byte	0x73
 1628 065e 01       		.byte	0x1
 1629 065f 00000000 		.4byte	.LFB9
 1630 0663 28000000 		.4byte	.LFE9
 1631 0667 5F000000 		.4byte	.LLST5
 1632 066b 01       		.byte	0x1
 1633 066c C8060000 		.4byte	0x6c8
 1634 0670 25       		.uleb128 0x25
 1635 0671 6E020000 		.4byte	.LASF76
 1636 0675 01       		.byte	0x1
 1637 0676 73       		.byte	0x73
 1638 0677 9E000000 		.4byte	0x9e
 1639 067b 7F000000 		.4byte	.LLST6
 1640 067f 1B       		.uleb128 0x1b
 1641 0680 6F747000 		.ascii	"otp\000"
 1642 0684 01       		.byte	0x1
ARM GAS  /tmp/ccwzAXjk.s 			page 30


 1643 0685 74       		.byte	0x74
 1644 0686 4B020000 		.4byte	0x24b
 1645 068a AC000000 		.4byte	.LLST7
 1646 068e 26       		.uleb128 0x26
 1647 068f 3D050000 		.4byte	0x53d
 1648 0693 0C000000 		.4byte	.LBB28
 1649 0697 00000000 		.4byte	.Ldebug_ranges0+0
 1650 069b 01       		.byte	0x1
 1651 069c 7E       		.byte	0x7e
 1652 069d BD060000 		.4byte	0x6bd
 1653 06a1 22       		.uleb128 0x22
 1654 06a2 4E050000 		.4byte	0x54e
 1655 06a6 06       		.byte	0x6
 1656 06a7 03       		.byte	0x3
 1657 06a8 00000000 		.4byte	rlist
 1658 06ac 9F       		.byte	0x9f
 1659 06ad 27       		.uleb128 0x27
 1660 06ae 20000000 		.4byte	.Ldebug_ranges0+0x20
 1661 06b2 1F       		.uleb128 0x1f
 1662 06b3 59050000 		.4byte	0x559
 1663 06b7 BF000000 		.4byte	.LLST8
 1664 06bb 00       		.byte	0
 1665 06bc 00       		.byte	0
 1666 06bd 28       		.uleb128 0x28
 1667 06be 28000000 		.4byte	.LVL19
 1668 06c2 01       		.byte	0x1
 1669 06c3 95090000 		.4byte	0x995
 1670 06c7 00       		.byte	0
 1671 06c8 29       		.uleb128 0x29
 1672 06c9 01       		.byte	0x1
 1673 06ca A1030000 		.4byte	.LASF91
 1674 06ce 01       		.byte	0x1
 1675 06cf BD       		.byte	0xbd
 1676 06d0 01       		.byte	0x1
 1677 06d1 CA000000 		.4byte	0xca
 1678 06d5 00000000 		.4byte	.LFB11
 1679 06d9 40000000 		.4byte	.LFE11
 1680 06dd D2000000 		.4byte	.LLST9
 1681 06e1 01       		.byte	0x1
 1682 06e2 71070000 		.4byte	0x771
 1683 06e6 25       		.uleb128 0x25
 1684 06e7 6E020000 		.4byte	.LASF76
 1685 06eb 01       		.byte	0x1
 1686 06ec BD       		.byte	0xbd
 1687 06ed 9E000000 		.4byte	0x9e
 1688 06f1 FE000000 		.4byte	.LLST10
 1689 06f5 25       		.uleb128 0x25
 1690 06f6 5E030000 		.4byte	.LASF77
 1691 06fa 01       		.byte	0x1
 1692 06fb BD       		.byte	0xbd
 1693 06fc E0000000 		.4byte	0xe0
 1694 0700 38010000 		.4byte	.LLST11
 1695 0704 1A       		.uleb128 0x1a
 1696 0705 0A000000 		.4byte	.LBB34
 1697 0709 26000000 		.4byte	.LBE34
 1698 070d 67070000 		.4byte	0x767
 1699 0711 19       		.uleb128 0x19
ARM GAS  /tmp/ccwzAXjk.s 			page 31


 1700 0712 767400   		.ascii	"vt\000"
 1701 0715 01       		.byte	0x1
 1702 0716 C2       		.byte	0xc2
 1703 0717 60030000 		.4byte	0x360
 1704 071b 02       		.byte	0x2
 1705 071c 91       		.byte	0x91
 1706 071d 5C       		.sleb128 -36
 1707 071e 2A       		.uleb128 0x2a
 1708 071f 16000000 		.4byte	.LVL22
 1709 0723 AF090000 		.4byte	0x9af
 1710 0727 42070000 		.4byte	0x742
 1711 072b 2B       		.uleb128 0x2b
 1712 072c 01       		.byte	0x1
 1713 072d 52       		.byte	0x52
 1714 072e 05       		.byte	0x5
 1715 072f 03       		.byte	0x3
 1716 0730 00000000 		.4byte	wakeup
 1717 0734 2B       		.uleb128 0x2b
 1718 0735 01       		.byte	0x1
 1719 0736 51       		.byte	0x51
 1720 0737 03       		.byte	0x3
 1721 0738 F3       		.byte	0xf3
 1722 0739 01       		.uleb128 0x1
 1723 073a 51       		.byte	0x51
 1724 073b 2B       		.uleb128 0x2b
 1725 073c 01       		.byte	0x1
 1726 073d 50       		.byte	0x50
 1727 073e 02       		.byte	0x2
 1728 073f 91       		.byte	0x91
 1729 0740 5C       		.sleb128 -36
 1730 0741 00       		.byte	0
 1731 0742 2A       		.uleb128 0x2a
 1732 0743 1C000000 		.4byte	.LVL23
 1733 0747 56060000 		.4byte	0x656
 1734 074b 56070000 		.4byte	0x756
 1735 074f 2B       		.uleb128 0x2b
 1736 0750 01       		.byte	0x1
 1737 0751 50       		.byte	0x50
 1738 0752 02       		.byte	0x2
 1739 0753 75       		.byte	0x75
 1740 0754 00       		.sleb128 0
 1741 0755 00       		.byte	0
 1742 0756 2C       		.uleb128 0x2c
 1743 0757 26000000 		.4byte	.LVL24
 1744 075b D2090000 		.4byte	0x9d2
 1745 075f 2B       		.uleb128 0x2b
 1746 0760 01       		.byte	0x1
 1747 0761 50       		.byte	0x50
 1748 0762 02       		.byte	0x2
 1749 0763 91       		.byte	0x91
 1750 0764 5C       		.sleb128 -36
 1751 0765 00       		.byte	0
 1752 0766 00       		.byte	0
 1753 0767 2D       		.uleb128 0x2d
 1754 0768 32000000 		.4byte	.LVL26
 1755 076c 56060000 		.4byte	0x656
 1756 0770 00       		.byte	0
ARM GAS  /tmp/ccwzAXjk.s 			page 32


 1757 0771 24       		.uleb128 0x24
 1758 0772 01       		.byte	0x1
 1759 0773 4F010000 		.4byte	.LASF79
 1760 0777 01       		.byte	0x1
 1761 0778 E1       		.byte	0xe1
 1762 0779 01       		.byte	0x1
 1763 077a 00000000 		.4byte	.LFB12
 1764 077e 58000000 		.4byte	.LFE12
 1765 0782 72010000 		.4byte	.LLST12
 1766 0786 01       		.byte	0x1
 1767 0787 28080000 		.4byte	0x828
 1768 078b 2E       		.uleb128 0x2e
 1769 078c 6E747000 		.ascii	"ntp\000"
 1770 0790 01       		.byte	0x1
 1771 0791 E1       		.byte	0xe1
 1772 0792 4B020000 		.4byte	0x24b
 1773 0796 92010000 		.4byte	.LLST13
 1774 079a 2E       		.uleb128 0x2e
 1775 079b 6D736700 		.ascii	"msg\000"
 1776 079f 01       		.byte	0x1
 1777 07a0 E1       		.byte	0xe1
 1778 07a1 CA000000 		.4byte	0xca
 1779 07a5 B0010000 		.4byte	.LLST14
 1780 07a9 26       		.uleb128 0x26
 1781 07aa 16050000 		.4byte	0x516
 1782 07ae 0E000000 		.4byte	.LBB35
 1783 07b2 40000000 		.4byte	.Ldebug_ranges0+0x40
 1784 07b6 01       		.byte	0x1
 1785 07b7 EB       		.byte	0xeb
 1786 07b8 D5070000 		.4byte	0x7d5
 1787 07bc 1D       		.uleb128 0x1d
 1788 07bd 28050000 		.4byte	0x528
 1789 07c1 DD010000 		.4byte	.LLST15
 1790 07c5 27       		.uleb128 0x27
 1791 07c6 58000000 		.4byte	.Ldebug_ranges0+0x58
 1792 07ca 1F       		.uleb128 0x1f
 1793 07cb 32050000 		.4byte	0x532
 1794 07cf F0010000 		.4byte	.LLST16
 1795 07d3 00       		.byte	0
 1796 07d4 00       		.byte	0
 1797 07d5 27       		.uleb128 0x27
 1798 07d6 70000000 		.4byte	.Ldebug_ranges0+0x70
 1799 07da 16       		.uleb128 0x16
 1800 07db 6F747000 		.ascii	"otp\000"
 1801 07df 01       		.byte	0x1
 1802 07e0 ED       		.byte	0xed
 1803 07e1 4B020000 		.4byte	0x24b
 1804 07e5 26       		.uleb128 0x26
 1805 07e6 16050000 		.4byte	0x516
 1806 07ea 2E000000 		.4byte	.LBB40
 1807 07ee 88000000 		.4byte	.Ldebug_ranges0+0x88
 1808 07f2 01       		.byte	0x1
 1809 07f3 ED       		.byte	0xed
 1810 07f4 0F080000 		.4byte	0x80f
 1811 07f8 22       		.uleb128 0x22
 1812 07f9 28050000 		.4byte	0x528
 1813 07fd 01       		.byte	0x1
ARM GAS  /tmp/ccwzAXjk.s 			page 33


 1814 07fe 56       		.byte	0x56
 1815 07ff 27       		.uleb128 0x27
 1816 0800 A8000000 		.4byte	.Ldebug_ranges0+0xa8
 1817 0804 1F       		.uleb128 0x1f
 1818 0805 32050000 		.4byte	0x532
 1819 0809 13020000 		.4byte	.LLST17
 1820 080d 00       		.byte	0
 1821 080e 00       		.byte	0
 1822 080f 2F       		.uleb128 0x2f
 1823 0810 54000000 		.4byte	.LVL39
 1824 0814 01       		.byte	0x1
 1825 0815 95090000 		.4byte	0x995
 1826 0819 2B       		.uleb128 0x2b
 1827 081a 01       		.byte	0x1
 1828 081b 51       		.byte	0x51
 1829 081c 02       		.byte	0x2
 1830 081d 76       		.byte	0x76
 1831 081e 00       		.sleb128 0
 1832 081f 2B       		.uleb128 0x2b
 1833 0820 01       		.byte	0x1
 1834 0821 50       		.byte	0x50
 1835 0822 02       		.byte	0x2
 1836 0823 74       		.byte	0x74
 1837 0824 00       		.sleb128 0
 1838 0825 00       		.byte	0
 1839 0826 00       		.byte	0
 1840 0827 00       		.byte	0
 1841 0828 30       		.uleb128 0x30
 1842 0829 01       		.byte	0x1
 1843 082a A1010000 		.4byte	.LASF80
 1844 082e 01       		.byte	0x1
 1845 082f 3001     		.2byte	0x130
 1846 0831 01       		.byte	0x1
 1847 0832 00000000 		.4byte	.LFB14
 1848 0836 40000000 		.4byte	.LFE14
 1849 083a 42020000 		.4byte	.LLST18
 1850 083e 01       		.byte	0x1
 1851 083f BB080000 		.4byte	0x8bb
 1852 0843 31       		.uleb128 0x31
 1853 0844 6F747000 		.ascii	"otp\000"
 1854 0848 01       		.byte	0x1
 1855 0849 3101     		.2byte	0x131
 1856 084b 4B020000 		.4byte	0x24b
 1857 084f 62020000 		.4byte	.LLST19
 1858 0853 32       		.uleb128 0x32
 1859 0854 3D050000 		.4byte	0x53d
 1860 0858 02000000 		.4byte	.LBB47
 1861 085c C8000000 		.4byte	.Ldebug_ranges0+0xc8
 1862 0860 01       		.byte	0x1
 1863 0861 3501     		.2byte	0x135
 1864 0863 83080000 		.4byte	0x883
 1865 0867 22       		.uleb128 0x22
 1866 0868 4E050000 		.4byte	0x54e
 1867 086c 06       		.byte	0x6
 1868 086d 03       		.byte	0x3
 1869 086e 00000000 		.4byte	rlist
 1870 0872 9F       		.byte	0x9f
ARM GAS  /tmp/ccwzAXjk.s 			page 34


 1871 0873 27       		.uleb128 0x27
 1872 0874 E8000000 		.4byte	.Ldebug_ranges0+0xe8
 1873 0878 1F       		.uleb128 0x1f
 1874 0879 59050000 		.4byte	0x559
 1875 087d 75020000 		.4byte	.LLST20
 1876 0881 00       		.byte	0
 1877 0882 00       		.byte	0
 1878 0883 32       		.uleb128 0x32
 1879 0884 16050000 		.4byte	0x516
 1880 0888 18000000 		.4byte	.LBB53
 1881 088c 08010000 		.4byte	.Ldebug_ranges0+0x108
 1882 0890 01       		.byte	0x1
 1883 0891 3A01     		.2byte	0x13a
 1884 0893 B0080000 		.4byte	0x8b0
 1885 0897 1D       		.uleb128 0x1d
 1886 0898 28050000 		.4byte	0x528
 1887 089c 88020000 		.4byte	.LLST21
 1888 08a0 27       		.uleb128 0x27
 1889 08a1 20010000 		.4byte	.Ldebug_ranges0+0x120
 1890 08a5 1F       		.uleb128 0x1f
 1891 08a6 32050000 		.4byte	0x532
 1892 08aa 9B020000 		.4byte	.LLST22
 1893 08ae 00       		.byte	0
 1894 08af 00       		.byte	0
 1895 08b0 28       		.uleb128 0x28
 1896 08b1 3A000000 		.4byte	.LVL45
 1897 08b5 01       		.byte	0x1
 1898 08b6 95090000 		.4byte	0x995
 1899 08ba 00       		.byte	0
 1900 08bb 30       		.uleb128 0x30
 1901 08bc 01       		.byte	0x1
 1902 08bd 0D000000 		.4byte	.LASF81
 1903 08c1 01       		.byte	0x1
 1904 08c2 4901     		.2byte	0x149
 1905 08c4 01       		.byte	0x1
 1906 08c5 00000000 		.4byte	.LFB15
 1907 08c9 3C000000 		.4byte	.LFE15
 1908 08cd BE020000 		.4byte	.LLST23
 1909 08d1 01       		.byte	0x1
 1910 08d2 30090000 		.4byte	0x930
 1911 08d6 31       		.uleb128 0x31
 1912 08d7 6F747000 		.ascii	"otp\000"
 1913 08db 01       		.byte	0x1
 1914 08dc 4A01     		.2byte	0x14a
 1915 08de 4B020000 		.4byte	0x24b
 1916 08e2 DE020000 		.4byte	.LLST24
 1917 08e6 31       		.uleb128 0x31
 1918 08e7 637000   		.ascii	"cp\000"
 1919 08ea 01       		.byte	0x1
 1920 08eb 4A01     		.2byte	0x14a
 1921 08ed 4B020000 		.4byte	0x24b
 1922 08f1 F1020000 		.4byte	.LLST25
 1923 08f5 32       		.uleb128 0x32
 1924 08f6 3D050000 		.4byte	0x53d
 1925 08fa 02000000 		.4byte	.LBB57
 1926 08fe 38010000 		.4byte	.Ldebug_ranges0+0x138
 1927 0902 01       		.byte	0x1
ARM GAS  /tmp/ccwzAXjk.s 			page 35


 1928 0903 4E01     		.2byte	0x14e
 1929 0905 25090000 		.4byte	0x925
 1930 0909 22       		.uleb128 0x22
 1931 090a 4E050000 		.4byte	0x54e
 1932 090e 06       		.byte	0x6
 1933 090f 03       		.byte	0x3
 1934 0910 00000000 		.4byte	rlist
 1935 0914 9F       		.byte	0x9f
 1936 0915 27       		.uleb128 0x27
 1937 0916 58010000 		.4byte	.Ldebug_ranges0+0x158
 1938 091a 1F       		.uleb128 0x1f
 1939 091b 59050000 		.4byte	0x559
 1940 091f 14030000 		.4byte	.LLST26
 1941 0923 00       		.byte	0
 1942 0924 00       		.byte	0
 1943 0925 28       		.uleb128 0x28
 1944 0926 36000000 		.4byte	.LVL50
 1945 092a 01       		.byte	0x1
 1946 092b 95090000 		.4byte	0x995
 1947 092f 00       		.byte	0
 1948 0930 33       		.uleb128 0x33
 1949 0931 01       		.byte	0x1
 1950 0932 B1000000 		.4byte	.LASF82
 1951 0936 01       		.byte	0x1
 1952 0937 FD       		.byte	0xfd
 1953 0938 01       		.byte	0x1
 1954 0939 00000000 		.4byte	.LFB13
 1955 093d 18000000 		.4byte	.LFE13
 1956 0941 02       		.byte	0x2
 1957 0942 7D       		.byte	0x7d
 1958 0943 00       		.sleb128 0
 1959 0944 01       		.byte	0x1
 1960 0945 54090000 		.4byte	0x954
 1961 0949 28       		.uleb128 0x28
 1962 094a 14000000 		.4byte	.LVL51
 1963 094e 01       		.byte	0x1
 1964 094f BB080000 		.4byte	0x8bb
 1965 0953 00       		.byte	0
 1966 0954 34       		.uleb128 0x34
 1967 0955 01       		.byte	0x1
 1968 0956 DB000000 		.4byte	.LASF83
 1969 095a 01       		.byte	0x1
 1970 095b 6A01     		.2byte	0x16a
 1971 095d 01       		.byte	0x1
 1972 095e 00000000 		.4byte	.LFB16
 1973 0962 14000000 		.4byte	.LFE16
 1974 0966 02       		.byte	0x2
 1975 0967 7D       		.byte	0x7d
 1976 0968 00       		.sleb128 0
 1977 0969 01       		.byte	0x1
 1978 096a 83090000 		.4byte	0x983
 1979 096e 28       		.uleb128 0x28
 1980 096f 0C000000 		.4byte	.LVL52
 1981 0973 01       		.byte	0x1
 1982 0974 BB080000 		.4byte	0x8bb
 1983 0978 28       		.uleb128 0x28
 1984 0979 10000000 		.4byte	.LVL53
ARM GAS  /tmp/ccwzAXjk.s 			page 36


 1985 097d 01       		.byte	0x1
 1986 097e 28080000 		.4byte	0x828
 1987 0982 00       		.byte	0
 1988 0983 35       		.uleb128 0x35
 1989 0984 85030000 		.4byte	.LASF92
 1990 0988 01       		.byte	0x1
 1991 0989 2F       		.byte	0x2f
 1992 098a 26040000 		.4byte	0x426
 1993 098e 01       		.byte	0x1
 1994 098f 05       		.byte	0x5
 1995 0990 03       		.byte	0x3
 1996 0991 00000000 		.4byte	rlist
 1997 0995 36       		.uleb128 0x36
 1998 0996 01       		.byte	0x1
 1999 0997 0F010000 		.4byte	.LASF84
 2000 099b 07       		.byte	0x7
 2001 099c 0602     		.2byte	0x206
 2002 099e 01       		.byte	0x1
 2003 099f 01       		.byte	0x1
 2004 09a0 AF090000 		.4byte	0x9af
 2005 09a4 0E       		.uleb128 0xe
 2006 09a5 4B020000 		.4byte	0x24b
 2007 09a9 0E       		.uleb128 0xe
 2008 09aa 4B020000 		.4byte	0x24b
 2009 09ae 00       		.byte	0
 2010 09af 37       		.uleb128 0x37
 2011 09b0 01       		.byte	0x1
 2012 09b1 B9010000 		.4byte	.LASF85
 2013 09b5 08       		.byte	0x8
 2014 09b6 FE       		.byte	0xfe
 2015 09b7 01       		.byte	0x1
 2016 09b8 01       		.byte	0x1
 2017 09b9 D2090000 		.4byte	0x9d2
 2018 09bd 0E       		.uleb128 0xe
 2019 09be BE030000 		.4byte	0x3be
 2020 09c2 0E       		.uleb128 0xe
 2021 09c3 E0000000 		.4byte	0xe0
 2022 09c7 0E       		.uleb128 0xe
 2023 09c8 43030000 		.4byte	0x343
 2024 09cc 0E       		.uleb128 0xe
 2025 09cd 89020000 		.4byte	0x289
 2026 09d1 00       		.byte	0
 2027 09d2 38       		.uleb128 0x38
 2028 09d3 01       		.byte	0x1
 2029 09d4 C1020000 		.4byte	.LASF93
 2030 09d8 08       		.byte	0x8
 2031 09d9 FF       		.byte	0xff
 2032 09da 01       		.byte	0x1
 2033 09db 01       		.byte	0x1
 2034 09dc 0E       		.uleb128 0xe
 2035 09dd BE030000 		.4byte	0x3be
 2036 09e1 00       		.byte	0
 2037 09e2 00       		.byte	0
 2038              		.section	.debug_abbrev,"",%progbits
 2039              	.Ldebug_abbrev0:
 2040 0000 01       		.uleb128 0x1
 2041 0001 11       		.uleb128 0x11
ARM GAS  /tmp/ccwzAXjk.s 			page 37


 2042 0002 01       		.byte	0x1
 2043 0003 25       		.uleb128 0x25
 2044 0004 0E       		.uleb128 0xe
 2045 0005 13       		.uleb128 0x13
 2046 0006 0B       		.uleb128 0xb
 2047 0007 03       		.uleb128 0x3
 2048 0008 0E       		.uleb128 0xe
 2049 0009 55       		.uleb128 0x55
 2050 000a 06       		.uleb128 0x6
 2051 000b 11       		.uleb128 0x11
 2052 000c 01       		.uleb128 0x1
 2053 000d 52       		.uleb128 0x52
 2054 000e 01       		.uleb128 0x1
 2055 000f 10       		.uleb128 0x10
 2056 0010 06       		.uleb128 0x6
 2057 0011 00       		.byte	0
 2058 0012 00       		.byte	0
 2059 0013 02       		.uleb128 0x2
 2060 0014 24       		.uleb128 0x24
 2061 0015 00       		.byte	0
 2062 0016 0B       		.uleb128 0xb
 2063 0017 0B       		.uleb128 0xb
 2064 0018 3E       		.uleb128 0x3e
 2065 0019 0B       		.uleb128 0xb
 2066 001a 03       		.uleb128 0x3
 2067 001b 08       		.uleb128 0x8
 2068 001c 00       		.byte	0
 2069 001d 00       		.byte	0
 2070 001e 03       		.uleb128 0x3
 2071 001f 24       		.uleb128 0x24
 2072 0020 00       		.byte	0
 2073 0021 0B       		.uleb128 0xb
 2074 0022 0B       		.uleb128 0xb
 2075 0023 3E       		.uleb128 0x3e
 2076 0024 0B       		.uleb128 0xb
 2077 0025 03       		.uleb128 0x3
 2078 0026 0E       		.uleb128 0xe
 2079 0027 00       		.byte	0
 2080 0028 00       		.byte	0
 2081 0029 04       		.uleb128 0x4
 2082 002a 16       		.uleb128 0x16
 2083 002b 00       		.byte	0
 2084 002c 03       		.uleb128 0x3
 2085 002d 0E       		.uleb128 0xe
 2086 002e 3A       		.uleb128 0x3a
 2087 002f 0B       		.uleb128 0xb
 2088 0030 3B       		.uleb128 0x3b
 2089 0031 0B       		.uleb128 0xb
 2090 0032 49       		.uleb128 0x49
 2091 0033 13       		.uleb128 0x13
 2092 0034 00       		.byte	0
 2093 0035 00       		.byte	0
 2094 0036 05       		.uleb128 0x5
 2095 0037 13       		.uleb128 0x13
 2096 0038 01       		.byte	0x1
 2097 0039 03       		.uleb128 0x3
 2098 003a 0E       		.uleb128 0xe
ARM GAS  /tmp/ccwzAXjk.s 			page 38


 2099 003b 0B       		.uleb128 0xb
 2100 003c 0B       		.uleb128 0xb
 2101 003d 3A       		.uleb128 0x3a
 2102 003e 0B       		.uleb128 0xb
 2103 003f 3B       		.uleb128 0x3b
 2104 0040 0B       		.uleb128 0xb
 2105 0041 01       		.uleb128 0x1
 2106 0042 13       		.uleb128 0x13
 2107 0043 00       		.byte	0
 2108 0044 00       		.byte	0
 2109 0045 06       		.uleb128 0x6
 2110 0046 0D       		.uleb128 0xd
 2111 0047 00       		.byte	0
 2112 0048 03       		.uleb128 0x3
 2113 0049 0E       		.uleb128 0xe
 2114 004a 3A       		.uleb128 0x3a
 2115 004b 0B       		.uleb128 0xb
 2116 004c 3B       		.uleb128 0x3b
 2117 004d 0B       		.uleb128 0xb
 2118 004e 49       		.uleb128 0x49
 2119 004f 13       		.uleb128 0x13
 2120 0050 38       		.uleb128 0x38
 2121 0051 0A       		.uleb128 0xa
 2122 0052 00       		.byte	0
 2123 0053 00       		.byte	0
 2124 0054 07       		.uleb128 0x7
 2125 0055 0D       		.uleb128 0xd
 2126 0056 00       		.byte	0
 2127 0057 03       		.uleb128 0x3
 2128 0058 08       		.uleb128 0x8
 2129 0059 3A       		.uleb128 0x3a
 2130 005a 0B       		.uleb128 0xb
 2131 005b 3B       		.uleb128 0x3b
 2132 005c 0B       		.uleb128 0xb
 2133 005d 49       		.uleb128 0x49
 2134 005e 13       		.uleb128 0x13
 2135 005f 38       		.uleb128 0x38
 2136 0060 0A       		.uleb128 0xa
 2137 0061 00       		.byte	0
 2138 0062 00       		.byte	0
 2139 0063 08       		.uleb128 0x8
 2140 0064 13       		.uleb128 0x13
 2141 0065 01       		.byte	0x1
 2142 0066 0B       		.uleb128 0xb
 2143 0067 0B       		.uleb128 0xb
 2144 0068 3A       		.uleb128 0x3a
 2145 0069 0B       		.uleb128 0xb
 2146 006a 3B       		.uleb128 0x3b
 2147 006b 0B       		.uleb128 0xb
 2148 006c 01       		.uleb128 0x1
 2149 006d 13       		.uleb128 0x13
 2150 006e 00       		.byte	0
 2151 006f 00       		.byte	0
 2152 0070 09       		.uleb128 0x9
 2153 0071 0F       		.uleb128 0xf
 2154 0072 00       		.byte	0
 2155 0073 0B       		.uleb128 0xb
ARM GAS  /tmp/ccwzAXjk.s 			page 39


 2156 0074 0B       		.uleb128 0xb
 2157 0075 49       		.uleb128 0x49
 2158 0076 13       		.uleb128 0x13
 2159 0077 00       		.byte	0
 2160 0078 00       		.byte	0
 2161 0079 0A       		.uleb128 0xa
 2162 007a 0F       		.uleb128 0xf
 2163 007b 00       		.byte	0
 2164 007c 0B       		.uleb128 0xb
 2165 007d 0B       		.uleb128 0xb
 2166 007e 00       		.byte	0
 2167 007f 00       		.byte	0
 2168 0080 0B       		.uleb128 0xb
 2169 0081 13       		.uleb128 0x13
 2170 0082 01       		.byte	0x1
 2171 0083 03       		.uleb128 0x3
 2172 0084 0E       		.uleb128 0xe
 2173 0085 0B       		.uleb128 0xb
 2174 0086 0B       		.uleb128 0xb
 2175 0087 3A       		.uleb128 0x3a
 2176 0088 0B       		.uleb128 0xb
 2177 0089 3B       		.uleb128 0x3b
 2178 008a 05       		.uleb128 0x5
 2179 008b 01       		.uleb128 0x1
 2180 008c 13       		.uleb128 0x13
 2181 008d 00       		.byte	0
 2182 008e 00       		.byte	0
 2183 008f 0C       		.uleb128 0xc
 2184 0090 0D       		.uleb128 0xd
 2185 0091 00       		.byte	0
 2186 0092 03       		.uleb128 0x3
 2187 0093 08       		.uleb128 0x8
 2188 0094 3A       		.uleb128 0x3a
 2189 0095 0B       		.uleb128 0xb
 2190 0096 3B       		.uleb128 0x3b
 2191 0097 05       		.uleb128 0x5
 2192 0098 49       		.uleb128 0x49
 2193 0099 13       		.uleb128 0x13
 2194 009a 38       		.uleb128 0x38
 2195 009b 0A       		.uleb128 0xa
 2196 009c 00       		.byte	0
 2197 009d 00       		.byte	0
 2198 009e 0D       		.uleb128 0xd
 2199 009f 15       		.uleb128 0x15
 2200 00a0 01       		.byte	0x1
 2201 00a1 27       		.uleb128 0x27
 2202 00a2 0C       		.uleb128 0xc
 2203 00a3 01       		.uleb128 0x1
 2204 00a4 13       		.uleb128 0x13
 2205 00a5 00       		.byte	0
 2206 00a6 00       		.byte	0
 2207 00a7 0E       		.uleb128 0xe
 2208 00a8 05       		.uleb128 0x5
 2209 00a9 00       		.byte	0
 2210 00aa 49       		.uleb128 0x49
 2211 00ab 13       		.uleb128 0x13
 2212 00ac 00       		.byte	0
ARM GAS  /tmp/ccwzAXjk.s 			page 40


 2213 00ad 00       		.byte	0
 2214 00ae 0F       		.uleb128 0xf
 2215 00af 35       		.uleb128 0x35
 2216 00b0 00       		.byte	0
 2217 00b1 49       		.uleb128 0x49
 2218 00b2 13       		.uleb128 0x13
 2219 00b3 00       		.byte	0
 2220 00b4 00       		.byte	0
 2221 00b5 10       		.uleb128 0x10
 2222 00b6 17       		.uleb128 0x17
 2223 00b7 01       		.byte	0x1
 2224 00b8 0B       		.uleb128 0xb
 2225 00b9 0B       		.uleb128 0xb
 2226 00ba 3A       		.uleb128 0x3a
 2227 00bb 0B       		.uleb128 0xb
 2228 00bc 3B       		.uleb128 0x3b
 2229 00bd 0B       		.uleb128 0xb
 2230 00be 01       		.uleb128 0x1
 2231 00bf 13       		.uleb128 0x13
 2232 00c0 00       		.byte	0
 2233 00c1 00       		.byte	0
 2234 00c2 11       		.uleb128 0x11
 2235 00c3 0D       		.uleb128 0xd
 2236 00c4 00       		.byte	0
 2237 00c5 03       		.uleb128 0x3
 2238 00c6 0E       		.uleb128 0xe
 2239 00c7 3A       		.uleb128 0x3a
 2240 00c8 0B       		.uleb128 0xb
 2241 00c9 3B       		.uleb128 0x3b
 2242 00ca 0B       		.uleb128 0xb
 2243 00cb 49       		.uleb128 0x49
 2244 00cc 13       		.uleb128 0x13
 2245 00cd 00       		.byte	0
 2246 00ce 00       		.byte	0
 2247 00cf 12       		.uleb128 0x12
 2248 00d0 26       		.uleb128 0x26
 2249 00d1 00       		.byte	0
 2250 00d2 49       		.uleb128 0x49
 2251 00d3 13       		.uleb128 0x13
 2252 00d4 00       		.byte	0
 2253 00d5 00       		.byte	0
 2254 00d6 13       		.uleb128 0x13
 2255 00d7 2E       		.uleb128 0x2e
 2256 00d8 01       		.byte	0x1
 2257 00d9 03       		.uleb128 0x3
 2258 00da 0E       		.uleb128 0xe
 2259 00db 3A       		.uleb128 0x3a
 2260 00dc 0B       		.uleb128 0xb
 2261 00dd 3B       		.uleb128 0x3b
 2262 00de 0B       		.uleb128 0xb
 2263 00df 27       		.uleb128 0x27
 2264 00e0 0C       		.uleb128 0xc
 2265 00e1 49       		.uleb128 0x49
 2266 00e2 13       		.uleb128 0x13
 2267 00e3 20       		.uleb128 0x20
 2268 00e4 0B       		.uleb128 0xb
 2269 00e5 01       		.uleb128 0x1
ARM GAS  /tmp/ccwzAXjk.s 			page 41


 2270 00e6 13       		.uleb128 0x13
 2271 00e7 00       		.byte	0
 2272 00e8 00       		.byte	0
 2273 00e9 14       		.uleb128 0x14
 2274 00ea 05       		.uleb128 0x5
 2275 00eb 00       		.byte	0
 2276 00ec 03       		.uleb128 0x3
 2277 00ed 08       		.uleb128 0x8
 2278 00ee 3A       		.uleb128 0x3a
 2279 00ef 0B       		.uleb128 0xb
 2280 00f0 3B       		.uleb128 0x3b
 2281 00f1 0B       		.uleb128 0xb
 2282 00f2 49       		.uleb128 0x49
 2283 00f3 13       		.uleb128 0x13
 2284 00f4 00       		.byte	0
 2285 00f5 00       		.byte	0
 2286 00f6 15       		.uleb128 0x15
 2287 00f7 2E       		.uleb128 0x2e
 2288 00f8 01       		.byte	0x1
 2289 00f9 3F       		.uleb128 0x3f
 2290 00fa 0C       		.uleb128 0xc
 2291 00fb 03       		.uleb128 0x3
 2292 00fc 0E       		.uleb128 0xe
 2293 00fd 3A       		.uleb128 0x3a
 2294 00fe 0B       		.uleb128 0xb
 2295 00ff 3B       		.uleb128 0x3b
 2296 0100 0B       		.uleb128 0xb
 2297 0101 27       		.uleb128 0x27
 2298 0102 0C       		.uleb128 0xc
 2299 0103 49       		.uleb128 0x49
 2300 0104 13       		.uleb128 0x13
 2301 0105 20       		.uleb128 0x20
 2302 0106 0B       		.uleb128 0xb
 2303 0107 01       		.uleb128 0x1
 2304 0108 13       		.uleb128 0x13
 2305 0109 00       		.byte	0
 2306 010a 00       		.byte	0
 2307 010b 16       		.uleb128 0x16
 2308 010c 34       		.uleb128 0x34
 2309 010d 00       		.byte	0
 2310 010e 03       		.uleb128 0x3
 2311 010f 08       		.uleb128 0x8
 2312 0110 3A       		.uleb128 0x3a
 2313 0111 0B       		.uleb128 0xb
 2314 0112 3B       		.uleb128 0x3b
 2315 0113 0B       		.uleb128 0xb
 2316 0114 49       		.uleb128 0x49
 2317 0115 13       		.uleb128 0x13
 2318 0116 00       		.byte	0
 2319 0117 00       		.byte	0
 2320 0118 17       		.uleb128 0x17
 2321 0119 2E       		.uleb128 0x2e
 2322 011a 01       		.byte	0x1
 2323 011b 03       		.uleb128 0x3
 2324 011c 0E       		.uleb128 0xe
 2325 011d 3A       		.uleb128 0x3a
 2326 011e 0B       		.uleb128 0xb
ARM GAS  /tmp/ccwzAXjk.s 			page 42


 2327 011f 3B       		.uleb128 0x3b
 2328 0120 0B       		.uleb128 0xb
 2329 0121 27       		.uleb128 0x27
 2330 0122 0C       		.uleb128 0xc
 2331 0123 11       		.uleb128 0x11
 2332 0124 01       		.uleb128 0x1
 2333 0125 12       		.uleb128 0x12
 2334 0126 01       		.uleb128 0x1
 2335 0127 40       		.uleb128 0x40
 2336 0128 0A       		.uleb128 0xa
 2337 0129 9742     		.uleb128 0x2117
 2338 012b 0C       		.uleb128 0xc
 2339 012c 01       		.uleb128 0x1
 2340 012d 13       		.uleb128 0x13
 2341 012e 00       		.byte	0
 2342 012f 00       		.byte	0
 2343 0130 18       		.uleb128 0x18
 2344 0131 05       		.uleb128 0x5
 2345 0132 00       		.byte	0
 2346 0133 03       		.uleb128 0x3
 2347 0134 08       		.uleb128 0x8
 2348 0135 3A       		.uleb128 0x3a
 2349 0136 0B       		.uleb128 0xb
 2350 0137 3B       		.uleb128 0x3b
 2351 0138 0B       		.uleb128 0xb
 2352 0139 49       		.uleb128 0x49
 2353 013a 13       		.uleb128 0x13
 2354 013b 02       		.uleb128 0x2
 2355 013c 0A       		.uleb128 0xa
 2356 013d 00       		.byte	0
 2357 013e 00       		.byte	0
 2358 013f 19       		.uleb128 0x19
 2359 0140 34       		.uleb128 0x34
 2360 0141 00       		.byte	0
 2361 0142 03       		.uleb128 0x3
 2362 0143 08       		.uleb128 0x8
 2363 0144 3A       		.uleb128 0x3a
 2364 0145 0B       		.uleb128 0xb
 2365 0146 3B       		.uleb128 0x3b
 2366 0147 0B       		.uleb128 0xb
 2367 0148 49       		.uleb128 0x49
 2368 0149 13       		.uleb128 0x13
 2369 014a 02       		.uleb128 0x2
 2370 014b 0A       		.uleb128 0xa
 2371 014c 00       		.byte	0
 2372 014d 00       		.byte	0
 2373 014e 1A       		.uleb128 0x1a
 2374 014f 0B       		.uleb128 0xb
 2375 0150 01       		.byte	0x1
 2376 0151 11       		.uleb128 0x11
 2377 0152 01       		.uleb128 0x1
 2378 0153 12       		.uleb128 0x12
 2379 0154 01       		.uleb128 0x1
 2380 0155 01       		.uleb128 0x1
 2381 0156 13       		.uleb128 0x13
 2382 0157 00       		.byte	0
 2383 0158 00       		.byte	0
ARM GAS  /tmp/ccwzAXjk.s 			page 43


 2384 0159 1B       		.uleb128 0x1b
 2385 015a 34       		.uleb128 0x34
 2386 015b 00       		.byte	0
 2387 015c 03       		.uleb128 0x3
 2388 015d 08       		.uleb128 0x8
 2389 015e 3A       		.uleb128 0x3a
 2390 015f 0B       		.uleb128 0xb
 2391 0160 3B       		.uleb128 0x3b
 2392 0161 0B       		.uleb128 0xb
 2393 0162 49       		.uleb128 0x49
 2394 0163 13       		.uleb128 0x13
 2395 0164 02       		.uleb128 0x2
 2396 0165 06       		.uleb128 0x6
 2397 0166 00       		.byte	0
 2398 0167 00       		.byte	0
 2399 0168 1C       		.uleb128 0x1c
 2400 0169 1D       		.uleb128 0x1d
 2401 016a 01       		.byte	0x1
 2402 016b 31       		.uleb128 0x31
 2403 016c 13       		.uleb128 0x13
 2404 016d 11       		.uleb128 0x11
 2405 016e 01       		.uleb128 0x1
 2406 016f 12       		.uleb128 0x12
 2407 0170 01       		.uleb128 0x1
 2408 0171 58       		.uleb128 0x58
 2409 0172 0B       		.uleb128 0xb
 2410 0173 59       		.uleb128 0x59
 2411 0174 0B       		.uleb128 0xb
 2412 0175 01       		.uleb128 0x1
 2413 0176 13       		.uleb128 0x13
 2414 0177 00       		.byte	0
 2415 0178 00       		.byte	0
 2416 0179 1D       		.uleb128 0x1d
 2417 017a 05       		.uleb128 0x5
 2418 017b 00       		.byte	0
 2419 017c 31       		.uleb128 0x31
 2420 017d 13       		.uleb128 0x13
 2421 017e 02       		.uleb128 0x2
 2422 017f 06       		.uleb128 0x6
 2423 0180 00       		.byte	0
 2424 0181 00       		.byte	0
 2425 0182 1E       		.uleb128 0x1e
 2426 0183 0B       		.uleb128 0xb
 2427 0184 01       		.byte	0x1
 2428 0185 11       		.uleb128 0x11
 2429 0186 01       		.uleb128 0x1
 2430 0187 12       		.uleb128 0x12
 2431 0188 01       		.uleb128 0x1
 2432 0189 00       		.byte	0
 2433 018a 00       		.byte	0
 2434 018b 1F       		.uleb128 0x1f
 2435 018c 34       		.uleb128 0x34
 2436 018d 00       		.byte	0
 2437 018e 31       		.uleb128 0x31
 2438 018f 13       		.uleb128 0x13
 2439 0190 02       		.uleb128 0x2
 2440 0191 06       		.uleb128 0x6
ARM GAS  /tmp/ccwzAXjk.s 			page 44


 2441 0192 00       		.byte	0
 2442 0193 00       		.byte	0
 2443 0194 20       		.uleb128 0x20
 2444 0195 2E       		.uleb128 0x2e
 2445 0196 00       		.byte	0
 2446 0197 3F       		.uleb128 0x3f
 2447 0198 0C       		.uleb128 0xc
 2448 0199 03       		.uleb128 0x3
 2449 019a 0E       		.uleb128 0xe
 2450 019b 3A       		.uleb128 0x3a
 2451 019c 0B       		.uleb128 0xb
 2452 019d 3B       		.uleb128 0x3b
 2453 019e 0B       		.uleb128 0xb
 2454 019f 27       		.uleb128 0x27
 2455 01a0 0C       		.uleb128 0xc
 2456 01a1 11       		.uleb128 0x11
 2457 01a2 01       		.uleb128 0x1
 2458 01a3 12       		.uleb128 0x12
 2459 01a4 01       		.uleb128 0x1
 2460 01a5 40       		.uleb128 0x40
 2461 01a6 0A       		.uleb128 0xa
 2462 01a7 9742     		.uleb128 0x2117
 2463 01a9 0C       		.uleb128 0xc
 2464 01aa 00       		.byte	0
 2465 01ab 00       		.byte	0
 2466 01ac 21       		.uleb128 0x21
 2467 01ad 2E       		.uleb128 0x2e
 2468 01ae 01       		.byte	0x1
 2469 01af 31       		.uleb128 0x31
 2470 01b0 13       		.uleb128 0x13
 2471 01b1 11       		.uleb128 0x11
 2472 01b2 01       		.uleb128 0x1
 2473 01b3 12       		.uleb128 0x12
 2474 01b4 01       		.uleb128 0x1
 2475 01b5 40       		.uleb128 0x40
 2476 01b6 0A       		.uleb128 0xa
 2477 01b7 9742     		.uleb128 0x2117
 2478 01b9 0C       		.uleb128 0xc
 2479 01ba 01       		.uleb128 0x1
 2480 01bb 13       		.uleb128 0x13
 2481 01bc 00       		.byte	0
 2482 01bd 00       		.byte	0
 2483 01be 22       		.uleb128 0x22
 2484 01bf 05       		.uleb128 0x5
 2485 01c0 00       		.byte	0
 2486 01c1 31       		.uleb128 0x31
 2487 01c2 13       		.uleb128 0x13
 2488 01c3 02       		.uleb128 0x2
 2489 01c4 0A       		.uleb128 0xa
 2490 01c5 00       		.byte	0
 2491 01c6 00       		.byte	0
 2492 01c7 23       		.uleb128 0x23
 2493 01c8 34       		.uleb128 0x34
 2494 01c9 00       		.byte	0
 2495 01ca 31       		.uleb128 0x31
 2496 01cb 13       		.uleb128 0x13
 2497 01cc 02       		.uleb128 0x2
ARM GAS  /tmp/ccwzAXjk.s 			page 45


 2498 01cd 0A       		.uleb128 0xa
 2499 01ce 00       		.byte	0
 2500 01cf 00       		.byte	0
 2501 01d0 24       		.uleb128 0x24
 2502 01d1 2E       		.uleb128 0x2e
 2503 01d2 01       		.byte	0x1
 2504 01d3 3F       		.uleb128 0x3f
 2505 01d4 0C       		.uleb128 0xc
 2506 01d5 03       		.uleb128 0x3
 2507 01d6 0E       		.uleb128 0xe
 2508 01d7 3A       		.uleb128 0x3a
 2509 01d8 0B       		.uleb128 0xb
 2510 01d9 3B       		.uleb128 0x3b
 2511 01da 0B       		.uleb128 0xb
 2512 01db 27       		.uleb128 0x27
 2513 01dc 0C       		.uleb128 0xc
 2514 01dd 11       		.uleb128 0x11
 2515 01de 01       		.uleb128 0x1
 2516 01df 12       		.uleb128 0x12
 2517 01e0 01       		.uleb128 0x1
 2518 01e1 40       		.uleb128 0x40
 2519 01e2 06       		.uleb128 0x6
 2520 01e3 9742     		.uleb128 0x2117
 2521 01e5 0C       		.uleb128 0xc
 2522 01e6 01       		.uleb128 0x1
 2523 01e7 13       		.uleb128 0x13
 2524 01e8 00       		.byte	0
 2525 01e9 00       		.byte	0
 2526 01ea 25       		.uleb128 0x25
 2527 01eb 05       		.uleb128 0x5
 2528 01ec 00       		.byte	0
 2529 01ed 03       		.uleb128 0x3
 2530 01ee 0E       		.uleb128 0xe
 2531 01ef 3A       		.uleb128 0x3a
 2532 01f0 0B       		.uleb128 0xb
 2533 01f1 3B       		.uleb128 0x3b
 2534 01f2 0B       		.uleb128 0xb
 2535 01f3 49       		.uleb128 0x49
 2536 01f4 13       		.uleb128 0x13
 2537 01f5 02       		.uleb128 0x2
 2538 01f6 06       		.uleb128 0x6
 2539 01f7 00       		.byte	0
 2540 01f8 00       		.byte	0
 2541 01f9 26       		.uleb128 0x26
 2542 01fa 1D       		.uleb128 0x1d
 2543 01fb 01       		.byte	0x1
 2544 01fc 31       		.uleb128 0x31
 2545 01fd 13       		.uleb128 0x13
 2546 01fe 52       		.uleb128 0x52
 2547 01ff 01       		.uleb128 0x1
 2548 0200 55       		.uleb128 0x55
 2549 0201 06       		.uleb128 0x6
 2550 0202 58       		.uleb128 0x58
 2551 0203 0B       		.uleb128 0xb
 2552 0204 59       		.uleb128 0x59
 2553 0205 0B       		.uleb128 0xb
 2554 0206 01       		.uleb128 0x1
ARM GAS  /tmp/ccwzAXjk.s 			page 46


 2555 0207 13       		.uleb128 0x13
 2556 0208 00       		.byte	0
 2557 0209 00       		.byte	0
 2558 020a 27       		.uleb128 0x27
 2559 020b 0B       		.uleb128 0xb
 2560 020c 01       		.byte	0x1
 2561 020d 55       		.uleb128 0x55
 2562 020e 06       		.uleb128 0x6
 2563 020f 00       		.byte	0
 2564 0210 00       		.byte	0
 2565 0211 28       		.uleb128 0x28
 2566 0212 898201   		.uleb128 0x4109
 2567 0215 00       		.byte	0
 2568 0216 11       		.uleb128 0x11
 2569 0217 01       		.uleb128 0x1
 2570 0218 9542     		.uleb128 0x2115
 2571 021a 0C       		.uleb128 0xc
 2572 021b 31       		.uleb128 0x31
 2573 021c 13       		.uleb128 0x13
 2574 021d 00       		.byte	0
 2575 021e 00       		.byte	0
 2576 021f 29       		.uleb128 0x29
 2577 0220 2E       		.uleb128 0x2e
 2578 0221 01       		.byte	0x1
 2579 0222 3F       		.uleb128 0x3f
 2580 0223 0C       		.uleb128 0xc
 2581 0224 03       		.uleb128 0x3
 2582 0225 0E       		.uleb128 0xe
 2583 0226 3A       		.uleb128 0x3a
 2584 0227 0B       		.uleb128 0xb
 2585 0228 3B       		.uleb128 0x3b
 2586 0229 0B       		.uleb128 0xb
 2587 022a 27       		.uleb128 0x27
 2588 022b 0C       		.uleb128 0xc
 2589 022c 49       		.uleb128 0x49
 2590 022d 13       		.uleb128 0x13
 2591 022e 11       		.uleb128 0x11
 2592 022f 01       		.uleb128 0x1
 2593 0230 12       		.uleb128 0x12
 2594 0231 01       		.uleb128 0x1
 2595 0232 40       		.uleb128 0x40
 2596 0233 06       		.uleb128 0x6
 2597 0234 9742     		.uleb128 0x2117
 2598 0236 0C       		.uleb128 0xc
 2599 0237 01       		.uleb128 0x1
 2600 0238 13       		.uleb128 0x13
 2601 0239 00       		.byte	0
 2602 023a 00       		.byte	0
 2603 023b 2A       		.uleb128 0x2a
 2604 023c 898201   		.uleb128 0x4109
 2605 023f 01       		.byte	0x1
 2606 0240 11       		.uleb128 0x11
 2607 0241 01       		.uleb128 0x1
 2608 0242 31       		.uleb128 0x31
 2609 0243 13       		.uleb128 0x13
 2610 0244 01       		.uleb128 0x1
 2611 0245 13       		.uleb128 0x13
ARM GAS  /tmp/ccwzAXjk.s 			page 47


 2612 0246 00       		.byte	0
 2613 0247 00       		.byte	0
 2614 0248 2B       		.uleb128 0x2b
 2615 0249 8A8201   		.uleb128 0x410a
 2616 024c 00       		.byte	0
 2617 024d 02       		.uleb128 0x2
 2618 024e 0A       		.uleb128 0xa
 2619 024f 9142     		.uleb128 0x2111
 2620 0251 0A       		.uleb128 0xa
 2621 0252 00       		.byte	0
 2622 0253 00       		.byte	0
 2623 0254 2C       		.uleb128 0x2c
 2624 0255 898201   		.uleb128 0x4109
 2625 0258 01       		.byte	0x1
 2626 0259 11       		.uleb128 0x11
 2627 025a 01       		.uleb128 0x1
 2628 025b 31       		.uleb128 0x31
 2629 025c 13       		.uleb128 0x13
 2630 025d 00       		.byte	0
 2631 025e 00       		.byte	0
 2632 025f 2D       		.uleb128 0x2d
 2633 0260 898201   		.uleb128 0x4109
 2634 0263 00       		.byte	0
 2635 0264 11       		.uleb128 0x11
 2636 0265 01       		.uleb128 0x1
 2637 0266 31       		.uleb128 0x31
 2638 0267 13       		.uleb128 0x13
 2639 0268 00       		.byte	0
 2640 0269 00       		.byte	0
 2641 026a 2E       		.uleb128 0x2e
 2642 026b 05       		.uleb128 0x5
 2643 026c 00       		.byte	0
 2644 026d 03       		.uleb128 0x3
 2645 026e 08       		.uleb128 0x8
 2646 026f 3A       		.uleb128 0x3a
 2647 0270 0B       		.uleb128 0xb
 2648 0271 3B       		.uleb128 0x3b
 2649 0272 0B       		.uleb128 0xb
 2650 0273 49       		.uleb128 0x49
 2651 0274 13       		.uleb128 0x13
 2652 0275 02       		.uleb128 0x2
 2653 0276 06       		.uleb128 0x6
 2654 0277 00       		.byte	0
 2655 0278 00       		.byte	0
 2656 0279 2F       		.uleb128 0x2f
 2657 027a 898201   		.uleb128 0x4109
 2658 027d 01       		.byte	0x1
 2659 027e 11       		.uleb128 0x11
 2660 027f 01       		.uleb128 0x1
 2661 0280 9542     		.uleb128 0x2115
 2662 0282 0C       		.uleb128 0xc
 2663 0283 31       		.uleb128 0x31
 2664 0284 13       		.uleb128 0x13
 2665 0285 00       		.byte	0
 2666 0286 00       		.byte	0
 2667 0287 30       		.uleb128 0x30
 2668 0288 2E       		.uleb128 0x2e
ARM GAS  /tmp/ccwzAXjk.s 			page 48


 2669 0289 01       		.byte	0x1
 2670 028a 3F       		.uleb128 0x3f
 2671 028b 0C       		.uleb128 0xc
 2672 028c 03       		.uleb128 0x3
 2673 028d 0E       		.uleb128 0xe
 2674 028e 3A       		.uleb128 0x3a
 2675 028f 0B       		.uleb128 0xb
 2676 0290 3B       		.uleb128 0x3b
 2677 0291 05       		.uleb128 0x5
 2678 0292 27       		.uleb128 0x27
 2679 0293 0C       		.uleb128 0xc
 2680 0294 11       		.uleb128 0x11
 2681 0295 01       		.uleb128 0x1
 2682 0296 12       		.uleb128 0x12
 2683 0297 01       		.uleb128 0x1
 2684 0298 40       		.uleb128 0x40
 2685 0299 06       		.uleb128 0x6
 2686 029a 9742     		.uleb128 0x2117
 2687 029c 0C       		.uleb128 0xc
 2688 029d 01       		.uleb128 0x1
 2689 029e 13       		.uleb128 0x13
 2690 029f 00       		.byte	0
 2691 02a0 00       		.byte	0
 2692 02a1 31       		.uleb128 0x31
 2693 02a2 34       		.uleb128 0x34
 2694 02a3 00       		.byte	0
 2695 02a4 03       		.uleb128 0x3
 2696 02a5 08       		.uleb128 0x8
 2697 02a6 3A       		.uleb128 0x3a
 2698 02a7 0B       		.uleb128 0xb
 2699 02a8 3B       		.uleb128 0x3b
 2700 02a9 05       		.uleb128 0x5
 2701 02aa 49       		.uleb128 0x49
 2702 02ab 13       		.uleb128 0x13
 2703 02ac 02       		.uleb128 0x2
 2704 02ad 06       		.uleb128 0x6
 2705 02ae 00       		.byte	0
 2706 02af 00       		.byte	0
 2707 02b0 32       		.uleb128 0x32
 2708 02b1 1D       		.uleb128 0x1d
 2709 02b2 01       		.byte	0x1
 2710 02b3 31       		.uleb128 0x31
 2711 02b4 13       		.uleb128 0x13
 2712 02b5 52       		.uleb128 0x52
 2713 02b6 01       		.uleb128 0x1
 2714 02b7 55       		.uleb128 0x55
 2715 02b8 06       		.uleb128 0x6
 2716 02b9 58       		.uleb128 0x58
 2717 02ba 0B       		.uleb128 0xb
 2718 02bb 59       		.uleb128 0x59
 2719 02bc 05       		.uleb128 0x5
 2720 02bd 01       		.uleb128 0x1
 2721 02be 13       		.uleb128 0x13
 2722 02bf 00       		.byte	0
 2723 02c0 00       		.byte	0
 2724 02c1 33       		.uleb128 0x33
 2725 02c2 2E       		.uleb128 0x2e
ARM GAS  /tmp/ccwzAXjk.s 			page 49


 2726 02c3 01       		.byte	0x1
 2727 02c4 3F       		.uleb128 0x3f
 2728 02c5 0C       		.uleb128 0xc
 2729 02c6 03       		.uleb128 0x3
 2730 02c7 0E       		.uleb128 0xe
 2731 02c8 3A       		.uleb128 0x3a
 2732 02c9 0B       		.uleb128 0xb
 2733 02ca 3B       		.uleb128 0x3b
 2734 02cb 0B       		.uleb128 0xb
 2735 02cc 27       		.uleb128 0x27
 2736 02cd 0C       		.uleb128 0xc
 2737 02ce 11       		.uleb128 0x11
 2738 02cf 01       		.uleb128 0x1
 2739 02d0 12       		.uleb128 0x12
 2740 02d1 01       		.uleb128 0x1
 2741 02d2 40       		.uleb128 0x40
 2742 02d3 0A       		.uleb128 0xa
 2743 02d4 9742     		.uleb128 0x2117
 2744 02d6 0C       		.uleb128 0xc
 2745 02d7 01       		.uleb128 0x1
 2746 02d8 13       		.uleb128 0x13
 2747 02d9 00       		.byte	0
 2748 02da 00       		.byte	0
 2749 02db 34       		.uleb128 0x34
 2750 02dc 2E       		.uleb128 0x2e
 2751 02dd 01       		.byte	0x1
 2752 02de 3F       		.uleb128 0x3f
 2753 02df 0C       		.uleb128 0xc
 2754 02e0 03       		.uleb128 0x3
 2755 02e1 0E       		.uleb128 0xe
 2756 02e2 3A       		.uleb128 0x3a
 2757 02e3 0B       		.uleb128 0xb
 2758 02e4 3B       		.uleb128 0x3b
 2759 02e5 05       		.uleb128 0x5
 2760 02e6 27       		.uleb128 0x27
 2761 02e7 0C       		.uleb128 0xc
 2762 02e8 11       		.uleb128 0x11
 2763 02e9 01       		.uleb128 0x1
 2764 02ea 12       		.uleb128 0x12
 2765 02eb 01       		.uleb128 0x1
 2766 02ec 40       		.uleb128 0x40
 2767 02ed 0A       		.uleb128 0xa
 2768 02ee 9742     		.uleb128 0x2117
 2769 02f0 0C       		.uleb128 0xc
 2770 02f1 01       		.uleb128 0x1
 2771 02f2 13       		.uleb128 0x13
 2772 02f3 00       		.byte	0
 2773 02f4 00       		.byte	0
 2774 02f5 35       		.uleb128 0x35
 2775 02f6 34       		.uleb128 0x34
 2776 02f7 00       		.byte	0
 2777 02f8 03       		.uleb128 0x3
 2778 02f9 0E       		.uleb128 0xe
 2779 02fa 3A       		.uleb128 0x3a
 2780 02fb 0B       		.uleb128 0xb
 2781 02fc 3B       		.uleb128 0x3b
 2782 02fd 0B       		.uleb128 0xb
ARM GAS  /tmp/ccwzAXjk.s 			page 50


 2783 02fe 49       		.uleb128 0x49
 2784 02ff 13       		.uleb128 0x13
 2785 0300 3F       		.uleb128 0x3f
 2786 0301 0C       		.uleb128 0xc
 2787 0302 02       		.uleb128 0x2
 2788 0303 0A       		.uleb128 0xa
 2789 0304 00       		.byte	0
 2790 0305 00       		.byte	0
 2791 0306 36       		.uleb128 0x36
 2792 0307 2E       		.uleb128 0x2e
 2793 0308 01       		.byte	0x1
 2794 0309 3F       		.uleb128 0x3f
 2795 030a 0C       		.uleb128 0xc
 2796 030b 03       		.uleb128 0x3
 2797 030c 0E       		.uleb128 0xe
 2798 030d 3A       		.uleb128 0x3a
 2799 030e 0B       		.uleb128 0xb
 2800 030f 3B       		.uleb128 0x3b
 2801 0310 05       		.uleb128 0x5
 2802 0311 27       		.uleb128 0x27
 2803 0312 0C       		.uleb128 0xc
 2804 0313 3C       		.uleb128 0x3c
 2805 0314 0C       		.uleb128 0xc
 2806 0315 01       		.uleb128 0x1
 2807 0316 13       		.uleb128 0x13
 2808 0317 00       		.byte	0
 2809 0318 00       		.byte	0
 2810 0319 37       		.uleb128 0x37
 2811 031a 2E       		.uleb128 0x2e
 2812 031b 01       		.byte	0x1
 2813 031c 3F       		.uleb128 0x3f
 2814 031d 0C       		.uleb128 0xc
 2815 031e 03       		.uleb128 0x3
 2816 031f 0E       		.uleb128 0xe
 2817 0320 3A       		.uleb128 0x3a
 2818 0321 0B       		.uleb128 0xb
 2819 0322 3B       		.uleb128 0x3b
 2820 0323 0B       		.uleb128 0xb
 2821 0324 27       		.uleb128 0x27
 2822 0325 0C       		.uleb128 0xc
 2823 0326 3C       		.uleb128 0x3c
 2824 0327 0C       		.uleb128 0xc
 2825 0328 01       		.uleb128 0x1
 2826 0329 13       		.uleb128 0x13
 2827 032a 00       		.byte	0
 2828 032b 00       		.byte	0
 2829 032c 38       		.uleb128 0x38
 2830 032d 2E       		.uleb128 0x2e
 2831 032e 01       		.byte	0x1
 2832 032f 3F       		.uleb128 0x3f
 2833 0330 0C       		.uleb128 0xc
 2834 0331 03       		.uleb128 0x3
 2835 0332 0E       		.uleb128 0xe
 2836 0333 3A       		.uleb128 0x3a
 2837 0334 0B       		.uleb128 0xb
 2838 0335 3B       		.uleb128 0x3b
 2839 0336 0B       		.uleb128 0xb
ARM GAS  /tmp/ccwzAXjk.s 			page 51


 2840 0337 27       		.uleb128 0x27
 2841 0338 0C       		.uleb128 0xc
 2842 0339 3C       		.uleb128 0x3c
 2843 033a 0C       		.uleb128 0xc
 2844 033b 00       		.byte	0
 2845 033c 00       		.byte	0
 2846 033d 00       		.byte	0
 2847              		.section	.debug_loc,"",%progbits
 2848              	.Ldebug_loc0:
 2849              	.LLST0:
 2850 0000 06000000 		.4byte	.LVL2
 2851 0004 08000000 		.4byte	.LVL3
 2852 0008 0100     		.2byte	0x1
 2853 000a 53       		.byte	0x53
 2854 000b 00000000 		.4byte	0
 2855 000f 00000000 		.4byte	0
 2856              	.LLST1:
 2857 0013 26000000 		.4byte	.LVL4
 2858 0017 30000000 		.4byte	.LVL5
 2859 001b 0100     		.2byte	0x1
 2860 001d 50       		.byte	0x50
 2861 001e 00000000 		.4byte	0
 2862 0022 00000000 		.4byte	0
 2863              	.LLST2:
 2864 0026 36000000 		.4byte	.LVL6
 2865 002a 50000000 		.4byte	.LVL9
 2866 002e 0100     		.2byte	0x1
 2867 0030 50       		.byte	0x50
 2868 0031 00000000 		.4byte	0
 2869 0035 00000000 		.4byte	0
 2870              	.LLST3:
 2871 0039 3E000000 		.4byte	.LVL7
 2872 003d 50000000 		.4byte	.LVL9
 2873 0041 0100     		.2byte	0x1
 2874 0043 53       		.byte	0x53
 2875 0044 00000000 		.4byte	0
 2876 0048 00000000 		.4byte	0
 2877              	.LLST4:
 2878 004c 56000000 		.4byte	.LVL11
 2879 0050 5C000000 		.4byte	.LFE10
 2880 0054 0100     		.2byte	0x1
 2881 0056 53       		.byte	0x53
 2882 0057 00000000 		.4byte	0
 2883 005b 00000000 		.4byte	0
 2884              	.LLST5:
 2885 005f 00000000 		.4byte	.LFB9
 2886 0063 0A000000 		.4byte	.LCFI0
 2887 0067 0200     		.2byte	0x2
 2888 0069 7D       		.byte	0x7d
 2889 006a 00       		.sleb128 0
 2890 006b 0A000000 		.4byte	.LCFI0
 2891 006f 28000000 		.4byte	.LFE9
 2892 0073 0200     		.2byte	0x2
 2893 0075 7D       		.byte	0x7d
 2894 0076 04       		.sleb128 4
 2895 0077 00000000 		.4byte	0
 2896 007b 00000000 		.4byte	0
ARM GAS  /tmp/ccwzAXjk.s 			page 52


 2897              	.LLST6:
 2898 007f 00000000 		.4byte	.LVL15
 2899 0083 12000000 		.4byte	.LVL17
 2900 0087 0100     		.2byte	0x1
 2901 0089 50       		.byte	0x50
 2902 008a 12000000 		.4byte	.LVL17
 2903 008e 27000000 		.4byte	.LVL19-1
 2904 0092 0200     		.2byte	0x2
 2905 0094 71       		.byte	0x71
 2906 0095 1C       		.sleb128 28
 2907 0096 27000000 		.4byte	.LVL19-1
 2908 009a 28000000 		.4byte	.LFE9
 2909 009e 0400     		.2byte	0x4
 2910 00a0 F3       		.byte	0xf3
 2911 00a1 01       		.uleb128 0x1
 2912 00a2 50       		.byte	0x50
 2913 00a3 9F       		.byte	0x9f
 2914 00a4 00000000 		.4byte	0
 2915 00a8 00000000 		.4byte	0
 2916              	.LLST7:
 2917 00ac 0C000000 		.4byte	.LVL16
 2918 00b0 27000000 		.4byte	.LVL19-1
 2919 00b4 0100     		.2byte	0x1
 2920 00b6 51       		.byte	0x51
 2921 00b7 00000000 		.4byte	0
 2922 00bb 00000000 		.4byte	0
 2923              	.LLST8:
 2924 00bf 16000000 		.4byte	.LVL18
 2925 00c3 27000000 		.4byte	.LVL19-1
 2926 00c7 0100     		.2byte	0x1
 2927 00c9 52       		.byte	0x52
 2928 00ca 00000000 		.4byte	0
 2929 00ce 00000000 		.4byte	0
 2930              	.LLST9:
 2931 00d2 00000000 		.4byte	.LFB11
 2932 00d6 02000000 		.4byte	.LCFI1
 2933 00da 0200     		.2byte	0x2
 2934 00dc 7D       		.byte	0x7d
 2935 00dd 00       		.sleb128 0
 2936 00de 02000000 		.4byte	.LCFI1
 2937 00e2 06000000 		.4byte	.LCFI2
 2938 00e6 0200     		.2byte	0x2
 2939 00e8 7D       		.byte	0x7d
 2940 00e9 0C       		.sleb128 12
 2941 00ea 06000000 		.4byte	.LCFI2
 2942 00ee 40000000 		.4byte	.LFE11
 2943 00f2 0200     		.2byte	0x2
 2944 00f4 7D       		.byte	0x7d
 2945 00f5 28       		.sleb128 40
 2946 00f6 00000000 		.4byte	0
 2947 00fa 00000000 		.4byte	0
 2948              	.LLST10:
 2949 00fe 00000000 		.4byte	.LVL20
 2950 0102 12000000 		.4byte	.LVL21
 2951 0106 0100     		.2byte	0x1
 2952 0108 50       		.byte	0x50
 2953 0109 12000000 		.4byte	.LVL21
ARM GAS  /tmp/ccwzAXjk.s 			page 53


 2954 010d 2E000000 		.4byte	.LVL25
 2955 0111 0400     		.2byte	0x4
 2956 0113 F3       		.byte	0xf3
 2957 0114 01       		.uleb128 0x1
 2958 0115 50       		.byte	0x50
 2959 0116 9F       		.byte	0x9f
 2960 0117 2E000000 		.4byte	.LVL25
 2961 011b 31000000 		.4byte	.LVL26-1
 2962 011f 0100     		.2byte	0x1
 2963 0121 50       		.byte	0x50
 2964 0122 31000000 		.4byte	.LVL26-1
 2965 0126 40000000 		.4byte	.LFE11
 2966 012a 0400     		.2byte	0x4
 2967 012c F3       		.byte	0xf3
 2968 012d 01       		.uleb128 0x1
 2969 012e 50       		.byte	0x50
 2970 012f 9F       		.byte	0x9f
 2971 0130 00000000 		.4byte	0
 2972 0134 00000000 		.4byte	0
 2973              	.LLST11:
 2974 0138 00000000 		.4byte	.LVL20
 2975 013c 15000000 		.4byte	.LVL22-1
 2976 0140 0100     		.2byte	0x1
 2977 0142 51       		.byte	0x51
 2978 0143 15000000 		.4byte	.LVL22-1
 2979 0147 2E000000 		.4byte	.LVL25
 2980 014b 0400     		.2byte	0x4
 2981 014d F3       		.byte	0xf3
 2982 014e 01       		.uleb128 0x1
 2983 014f 51       		.byte	0x51
 2984 0150 9F       		.byte	0x9f
 2985 0151 2E000000 		.4byte	.LVL25
 2986 0155 31000000 		.4byte	.LVL26-1
 2987 0159 0100     		.2byte	0x1
 2988 015b 51       		.byte	0x51
 2989 015c 31000000 		.4byte	.LVL26-1
 2990 0160 40000000 		.4byte	.LFE11
 2991 0164 0400     		.2byte	0x4
 2992 0166 F3       		.byte	0xf3
 2993 0167 01       		.uleb128 0x1
 2994 0168 51       		.byte	0x51
 2995 0169 9F       		.byte	0x9f
 2996 016a 00000000 		.4byte	0
 2997 016e 00000000 		.4byte	0
 2998              	.LLST12:
 2999 0172 00000000 		.4byte	.LFB12
 3000 0176 02000000 		.4byte	.LCFI3
 3001 017a 0200     		.2byte	0x2
 3002 017c 7D       		.byte	0x7d
 3003 017d 00       		.sleb128 0
 3004 017e 02000000 		.4byte	.LCFI3
 3005 0182 58000000 		.4byte	.LFE12
 3006 0186 0200     		.2byte	0x2
 3007 0188 7D       		.byte	0x7d
 3008 0189 10       		.sleb128 16
 3009 018a 00000000 		.4byte	0
 3010 018e 00000000 		.4byte	0
ARM GAS  /tmp/ccwzAXjk.s 			page 54


 3011              	.LLST13:
 3012 0192 00000000 		.4byte	.LVL27
 3013 0196 0C000000 		.4byte	.LVL28
 3014 019a 0100     		.2byte	0x1
 3015 019c 50       		.byte	0x50
 3016 019d 0C000000 		.4byte	.LVL28
 3017 01a1 58000000 		.4byte	.LFE12
 3018 01a5 0100     		.2byte	0x1
 3019 01a7 54       		.byte	0x54
 3020 01a8 00000000 		.4byte	0
 3021 01ac 00000000 		.4byte	0
 3022              	.LLST14:
 3023 01b0 00000000 		.4byte	.LVL27
 3024 01b4 46000000 		.4byte	.LVL37
 3025 01b8 0100     		.2byte	0x1
 3026 01ba 51       		.byte	0x51
 3027 01bb 46000000 		.4byte	.LVL37
 3028 01bf 53000000 		.4byte	.LVL39-1
 3029 01c3 0200     		.2byte	0x2
 3030 01c5 74       		.byte	0x74
 3031 01c6 24       		.sleb128 36
 3032 01c7 53000000 		.4byte	.LVL39-1
 3033 01cb 58000000 		.4byte	.LFE12
 3034 01cf 0400     		.2byte	0x4
 3035 01d1 F3       		.byte	0xf3
 3036 01d2 01       		.uleb128 0x1
 3037 01d3 51       		.byte	0x51
 3038 01d4 9F       		.byte	0x9f
 3039 01d5 00000000 		.4byte	0
 3040 01d9 00000000 		.4byte	0
 3041              	.LLST15:
 3042 01dd 14000000 		.4byte	.LVL29
 3043 01e1 2E000000 		.4byte	.LVL33
 3044 01e5 0100     		.2byte	0x1
 3045 01e7 54       		.byte	0x54
 3046 01e8 00000000 		.4byte	0
 3047 01ec 00000000 		.4byte	0
 3048              	.LLST16:
 3049 01f0 16000000 		.4byte	.LVL30
 3050 01f4 18000000 		.4byte	.LVL31
 3051 01f8 0600     		.2byte	0x6
 3052 01fa 03       		.byte	0x3
 3053 01fb 00000000 		.4byte	rlist
 3054 01ff 9F       		.byte	0x9f
 3055 0200 18000000 		.4byte	.LVL31
 3056 0204 2E000000 		.4byte	.LVL33
 3057 0208 0100     		.2byte	0x1
 3058 020a 53       		.byte	0x53
 3059 020b 00000000 		.4byte	0
 3060 020f 00000000 		.4byte	0
 3061              	.LLST17:
 3062 0213 30000000 		.4byte	.LVL34
 3063 0217 32000000 		.4byte	.LVL35
 3064 021b 0600     		.2byte	0x6
 3065 021d 03       		.byte	0x3
 3066 021e 00000000 		.4byte	rlist
 3067 0222 9F       		.byte	0x9f
ARM GAS  /tmp/ccwzAXjk.s 			page 55


 3068 0223 32000000 		.4byte	.LVL35
 3069 0227 48000000 		.4byte	.LVL38
 3070 022b 0100     		.2byte	0x1
 3071 022d 53       		.byte	0x53
 3072 022e 48000000 		.4byte	.LVL38
 3073 0232 53000000 		.4byte	.LVL39-1
 3074 0236 0200     		.2byte	0x2
 3075 0238 71       		.byte	0x71
 3076 0239 00       		.sleb128 0
 3077 023a 00000000 		.4byte	0
 3078 023e 00000000 		.4byte	0
 3079              	.LLST18:
 3080 0242 00000000 		.4byte	.LFB14
 3081 0246 0A000000 		.4byte	.LCFI4
 3082 024a 0200     		.2byte	0x2
 3083 024c 7D       		.byte	0x7d
 3084 024d 00       		.sleb128 0
 3085 024e 0A000000 		.4byte	.LCFI4
 3086 0252 40000000 		.4byte	.LFE14
 3087 0256 0200     		.2byte	0x2
 3088 0258 7D       		.byte	0x7d
 3089 0259 08       		.sleb128 8
 3090 025a 00000000 		.4byte	0
 3091 025e 00000000 		.4byte	0
 3092              	.LLST19:
 3093 0262 06000000 		.4byte	.LVL40
 3094 0266 39000000 		.4byte	.LVL45-1
 3095 026a 0100     		.2byte	0x1
 3096 026c 51       		.byte	0x51
 3097 026d 00000000 		.4byte	0
 3098 0271 00000000 		.4byte	0
 3099              	.LLST20:
 3100 0275 06000000 		.4byte	.LVL40
 3101 0279 39000000 		.4byte	.LVL45-1
 3102 027d 0100     		.2byte	0x1
 3103 027f 50       		.byte	0x50
 3104 0280 00000000 		.4byte	0
 3105 0284 00000000 		.4byte	0
 3106              	.LLST21:
 3107 0288 18000000 		.4byte	.LVL41
 3108 028c 39000000 		.4byte	.LVL45-1
 3109 0290 0100     		.2byte	0x1
 3110 0292 51       		.byte	0x51
 3111 0293 00000000 		.4byte	0
 3112 0297 00000000 		.4byte	0
 3113              	.LLST22:
 3114 029b 1E000000 		.4byte	.LVL42
 3115 029f 22000000 		.4byte	.LVL43
 3116 02a3 0600     		.2byte	0x6
 3117 02a5 03       		.byte	0x3
 3118 02a6 00000000 		.4byte	rlist
 3119 02aa 9F       		.byte	0x9f
 3120 02ab 22000000 		.4byte	.LVL43
 3121 02af 39000000 		.4byte	.LVL45-1
 3122 02b3 0100     		.2byte	0x1
 3123 02b5 53       		.byte	0x53
 3124 02b6 00000000 		.4byte	0
ARM GAS  /tmp/ccwzAXjk.s 			page 56


 3125 02ba 00000000 		.4byte	0
 3126              	.LLST23:
 3127 02be 00000000 		.4byte	.LFB15
 3128 02c2 0A000000 		.4byte	.LCFI5
 3129 02c6 0200     		.2byte	0x2
 3130 02c8 7D       		.byte	0x7d
 3131 02c9 00       		.sleb128 0
 3132 02ca 0A000000 		.4byte	.LCFI5
 3133 02ce 3C000000 		.4byte	.LFE15
 3134 02d2 0200     		.2byte	0x2
 3135 02d4 7D       		.byte	0x7d
 3136 02d5 08       		.sleb128 8
 3137 02d6 00000000 		.4byte	0
 3138 02da 00000000 		.4byte	0
 3139              	.LLST24:
 3140 02de 06000000 		.4byte	.LVL46
 3141 02e2 35000000 		.4byte	.LVL50-1
 3142 02e6 0100     		.2byte	0x1
 3143 02e8 51       		.byte	0x51
 3144 02e9 00000000 		.4byte	0
 3145 02ed 00000000 		.4byte	0
 3146              	.LLST25:
 3147 02f1 1A000000 		.4byte	.LVL47
 3148 02f5 1E000000 		.4byte	.LVL48
 3149 02f9 0600     		.2byte	0x6
 3150 02fb 03       		.byte	0x3
 3151 02fc 00000000 		.4byte	rlist
 3152 0300 9F       		.byte	0x9f
 3153 0301 1E000000 		.4byte	.LVL48
 3154 0305 35000000 		.4byte	.LVL50-1
 3155 0309 0100     		.2byte	0x1
 3156 030b 53       		.byte	0x53
 3157 030c 00000000 		.4byte	0
 3158 0310 00000000 		.4byte	0
 3159              	.LLST26:
 3160 0314 06000000 		.4byte	.LVL46
 3161 0318 35000000 		.4byte	.LVL50-1
 3162 031c 0100     		.2byte	0x1
 3163 031e 50       		.byte	0x50
 3164 031f 00000000 		.4byte	0
 3165 0323 00000000 		.4byte	0
 3166              		.section	.debug_aranges,"",%progbits
 3167 0000 64000000 		.4byte	0x64
 3168 0004 0200     		.2byte	0x2
 3169 0006 00000000 		.4byte	.Ldebug_info0
 3170 000a 04       		.byte	0x4
 3171 000b 00       		.byte	0
 3172 000c 0000     		.2byte	0
 3173 000e 0000     		.2byte	0
 3174 0010 00000000 		.4byte	.LFB10
 3175 0014 5C000000 		.4byte	.LFE10-.LFB10
 3176 0018 00000000 		.4byte	.LFB7
 3177 001c 16000000 		.4byte	.LFE7-.LFB7
 3178 0020 00000000 		.4byte	.LFB8
 3179 0024 20000000 		.4byte	.LFE8-.LFB8
 3180 0028 00000000 		.4byte	.LFB9
 3181 002c 28000000 		.4byte	.LFE9-.LFB9
ARM GAS  /tmp/ccwzAXjk.s 			page 57


 3182 0030 00000000 		.4byte	.LFB11
 3183 0034 40000000 		.4byte	.LFE11-.LFB11
 3184 0038 00000000 		.4byte	.LFB12
 3185 003c 58000000 		.4byte	.LFE12-.LFB12
 3186 0040 00000000 		.4byte	.LFB14
 3187 0044 40000000 		.4byte	.LFE14-.LFB14
 3188 0048 00000000 		.4byte	.LFB15
 3189 004c 3C000000 		.4byte	.LFE15-.LFB15
 3190 0050 00000000 		.4byte	.LFB13
 3191 0054 18000000 		.4byte	.LFE13-.LFB13
 3192 0058 00000000 		.4byte	.LFB16
 3193 005c 14000000 		.4byte	.LFE16-.LFB16
 3194 0060 00000000 		.4byte	0
 3195 0064 00000000 		.4byte	0
 3196              		.section	.debug_ranges,"",%progbits
 3197              	.Ldebug_ranges0:
 3198 0000 0C000000 		.4byte	.LBB28
 3199 0004 0E000000 		.4byte	.LBE28
 3200 0008 12000000 		.4byte	.LBB32
 3201 000c 14000000 		.4byte	.LBE32
 3202 0010 1C000000 		.4byte	.LBB33
 3203 0014 20000000 		.4byte	.LBE33
 3204 0018 00000000 		.4byte	0
 3205 001c 00000000 		.4byte	0
 3206 0020 0C000000 		.4byte	.LBB29
 3207 0024 0E000000 		.4byte	.LBE29
 3208 0028 12000000 		.4byte	.LBB30
 3209 002c 14000000 		.4byte	.LBE30
 3210 0030 1C000000 		.4byte	.LBB31
 3211 0034 20000000 		.4byte	.LBE31
 3212 0038 00000000 		.4byte	0
 3213 003c 00000000 		.4byte	0
 3214 0040 0E000000 		.4byte	.LBB35
 3215 0044 10000000 		.4byte	.LBE35
 3216 0048 14000000 		.4byte	.LBB38
 3217 004c 2A000000 		.4byte	.LBE38
 3218 0050 00000000 		.4byte	0
 3219 0054 00000000 		.4byte	0
 3220 0058 0E000000 		.4byte	.LBB36
 3221 005c 10000000 		.4byte	.LBE36
 3222 0060 14000000 		.4byte	.LBB37
 3223 0064 2A000000 		.4byte	.LBE37
 3224 0068 00000000 		.4byte	0
 3225 006c 00000000 		.4byte	0
 3226 0070 2E000000 		.4byte	.LBB39
 3227 0074 4E000000 		.4byte	.LBE39
 3228 0078 50000000 		.4byte	.LBB46
 3229 007c 58000000 		.4byte	.LBE46
 3230 0080 00000000 		.4byte	0
 3231 0084 00000000 		.4byte	0
 3232 0088 2E000000 		.4byte	.LBB40
 3233 008c 40000000 		.4byte	.LBE40
 3234 0090 42000000 		.4byte	.LBB44
 3235 0094 44000000 		.4byte	.LBE44
 3236 0098 48000000 		.4byte	.LBB45
 3237 009c 4A000000 		.4byte	.LBE45
 3238 00a0 00000000 		.4byte	0
ARM GAS  /tmp/ccwzAXjk.s 			page 58


 3239 00a4 00000000 		.4byte	0
 3240 00a8 2E000000 		.4byte	.LBB41
 3241 00ac 40000000 		.4byte	.LBE41
 3242 00b0 42000000 		.4byte	.LBB42
 3243 00b4 44000000 		.4byte	.LBE42
 3244 00b8 48000000 		.4byte	.LBB43
 3245 00bc 4A000000 		.4byte	.LBE43
 3246 00c0 00000000 		.4byte	0
 3247 00c4 00000000 		.4byte	0
 3248 00c8 02000000 		.4byte	.LBB47
 3249 00cc 04000000 		.4byte	.LBE47
 3250 00d0 06000000 		.4byte	.LBB51
 3251 00d4 08000000 		.4byte	.LBE51
 3252 00d8 0A000000 		.4byte	.LBB52
 3253 00dc 10000000 		.4byte	.LBE52
 3254 00e0 00000000 		.4byte	0
 3255 00e4 00000000 		.4byte	0
 3256 00e8 02000000 		.4byte	.LBB48
 3257 00ec 04000000 		.4byte	.LBE48
 3258 00f0 06000000 		.4byte	.LBB49
 3259 00f4 08000000 		.4byte	.LBE49
 3260 00f8 0A000000 		.4byte	.LBB50
 3261 00fc 10000000 		.4byte	.LBE50
 3262 0100 00000000 		.4byte	0
 3263 0104 00000000 		.4byte	0
 3264 0108 18000000 		.4byte	.LBB53
 3265 010c 1A000000 		.4byte	.LBE53
 3266 0110 1C000000 		.4byte	.LBB56
 3267 0114 34000000 		.4byte	.LBE56
 3268 0118 00000000 		.4byte	0
 3269 011c 00000000 		.4byte	0
 3270 0120 18000000 		.4byte	.LBB54
 3271 0124 1A000000 		.4byte	.LBE54
 3272 0128 1C000000 		.4byte	.LBB55
 3273 012c 34000000 		.4byte	.LBE55
 3274 0130 00000000 		.4byte	0
 3275 0134 00000000 		.4byte	0
 3276 0138 02000000 		.4byte	.LBB57
 3277 013c 04000000 		.4byte	.LBE57
 3278 0140 06000000 		.4byte	.LBB61
 3279 0144 08000000 		.4byte	.LBE61
 3280 0148 0A000000 		.4byte	.LBB62
 3281 014c 10000000 		.4byte	.LBE62
 3282 0150 00000000 		.4byte	0
 3283 0154 00000000 		.4byte	0
 3284 0158 02000000 		.4byte	.LBB58
 3285 015c 04000000 		.4byte	.LBE58
 3286 0160 06000000 		.4byte	.LBB59
 3287 0164 08000000 		.4byte	.LBE59
 3288 0168 0A000000 		.4byte	.LBB60
 3289 016c 10000000 		.4byte	.LBE60
 3290 0170 00000000 		.4byte	0
 3291 0174 00000000 		.4byte	0
 3292 0178 00000000 		.4byte	.LFB10
 3293 017c 5C000000 		.4byte	.LFE10
 3294 0180 00000000 		.4byte	.LFB7
 3295 0184 16000000 		.4byte	.LFE7
ARM GAS  /tmp/ccwzAXjk.s 			page 59


 3296 0188 00000000 		.4byte	.LFB8
 3297 018c 20000000 		.4byte	.LFE8
 3298 0190 00000000 		.4byte	.LFB9
 3299 0194 28000000 		.4byte	.LFE9
 3300 0198 00000000 		.4byte	.LFB11
 3301 019c 40000000 		.4byte	.LFE11
 3302 01a0 00000000 		.4byte	.LFB12
 3303 01a4 58000000 		.4byte	.LFE12
 3304 01a8 00000000 		.4byte	.LFB14
 3305 01ac 40000000 		.4byte	.LFE14
 3306 01b0 00000000 		.4byte	.LFB15
 3307 01b4 3C000000 		.4byte	.LFE15
 3308 01b8 00000000 		.4byte	.LFB13
 3309 01bc 18000000 		.4byte	.LFE13
 3310 01c0 00000000 		.4byte	.LFB16
 3311 01c4 14000000 		.4byte	.LFE16
 3312 01c8 00000000 		.4byte	0
 3313 01cc 00000000 		.4byte	0
 3314              		.section	.debug_line,"",%progbits
 3315              	.Ldebug_line0:
 3316 0000 79030000 		.section	.debug_str,"MS",%progbits,1
 3316      0200A401 
 3316      00000201 
 3316      FB0E0D00 
 3316      01010101 
 3317              	.LASF37:
 3318 0000 705F6D73 		.ascii	"p_msg\000"
 3318      6700
 3319              	.LASF69:
 3320 0006 7264796D 		.ascii	"rdymsg\000"
 3320      736700
 3321              	.LASF81:
 3322 000d 63685363 		.ascii	"chSchDoRescheduleAhead\000"
 3322      68446F52 
 3322      65736368 
 3322      6564756C 
 3322      65416865 
 3323              	.LASF11:
 3324 0024 6C6F6E67 		.ascii	"long long unsigned int\000"
 3324      206C6F6E 
 3324      6720756E 
 3324      7369676E 
 3324      65642069 
 3325              	.LASF70:
 3326 003b 65786974 		.ascii	"exitcode\000"
 3326      636F6465 
 3326      00
 3327              	.LASF25:
 3328 0044 705F7072 		.ascii	"p_prio\000"
 3328      696F00
 3329              	.LASF90:
 3330 004b 5F736368 		.ascii	"_scheduler_init\000"
 3330      6564756C 
 3330      65725F69 
 3330      6E697400 
 3331              	.LASF10:
 3332 005b 6C6F6E67 		.ascii	"long long int\000"
ARM GAS  /tmp/ccwzAXjk.s 			page 60


 3332      206C6F6E 
 3332      6720696E 
 3332      7400
 3333              	.LASF1:
 3334 0069 7369676E 		.ascii	"signed char\000"
 3334      65642063 
 3334      68617200 
 3335              	.LASF41:
 3336 0075 705F6D70 		.ascii	"p_mpool\000"
 3336      6F6F6C00 
 3337              	.LASF66:
 3338 007d 6D5F7175 		.ascii	"m_queue\000"
 3338      65756500 
 3339              	.LASF16:
 3340 0085 74736C69 		.ascii	"tslices_t\000"
 3340      6365735F 
 3340      7400
 3341              	.LASF7:
 3342 008f 6C6F6E67 		.ascii	"long int\000"
 3342      20696E74 
 3342      00
 3343              	.LASF14:
 3344 0098 74737461 		.ascii	"tstate_t\000"
 3344      74655F74 
 3344      00
 3345              	.LASF27:
 3346 00a1 705F6E65 		.ascii	"p_newer\000"
 3346      77657200 
 3347              	.LASF63:
 3348 00a9 735F7175 		.ascii	"s_queue\000"
 3348      65756500 
 3349              	.LASF82:
 3350 00b1 63685363 		.ascii	"chSchRescheduleS\000"
 3350      68526573 
 3350      63686564 
 3350      756C6553 
 3350      00
 3351              	.LASF58:
 3352 00c2 725F6E65 		.ascii	"r_newer\000"
 3352      77657200 
 3353              	.LASF44:
 3354 00ca 72656761 		.ascii	"regarm_t\000"
 3354      726D5F74 
 3354      00
 3355              	.LASF51:
 3356 00d3 76745F70 		.ascii	"vt_prev\000"
 3356      72657600 
 3357              	.LASF83:
 3358 00db 63685363 		.ascii	"chSchDoReschedule\000"
 3358      68446F52 
 3358      65736368 
 3358      6564756C 
 3358      6500
 3359              	.LASF21:
 3360 00ed 636E745F 		.ascii	"cnt_t\000"
 3360      7400
 3361              	.LASF0:
ARM GAS  /tmp/ccwzAXjk.s 			page 61


 3362 00f3 756E7369 		.ascii	"unsigned int\000"
 3362      676E6564 
 3362      20696E74 
 3362      00
 3363              	.LASF89:
 3364 0100 77616B65 		.ascii	"wakeup\000"
 3364      757000
 3365              	.LASF50:
 3366 0107 76745F6E 		.ascii	"vt_next\000"
 3366      65787400 
 3367              	.LASF84:
 3368 010f 5F706F72 		.ascii	"_port_switch\000"
 3368      745F7377 
 3368      69746368 
 3368      00
 3369              	.LASF9:
 3370 011c 6C6F6E67 		.ascii	"long unsigned int\000"
 3370      20756E73 
 3370      69676E65 
 3370      6420696E 
 3370      7400
 3371              	.LASF64:
 3372 012e 735F636E 		.ascii	"s_cnt\000"
 3372      7400
 3373              	.LASF46:
 3374 0134 636F6E74 		.ascii	"context\000"
 3374      65787400 
 3375              	.LASF4:
 3376 013c 73686F72 		.ascii	"short unsigned int\000"
 3376      7420756E 
 3376      7369676E 
 3376      65642069 
 3376      6E7400
 3377              	.LASF79:
 3378 014f 63685363 		.ascii	"chSchWakeupS\000"
 3378      6857616B 
 3378      65757053 
 3378      00
 3379              	.LASF18:
 3380 015c 6D73675F 		.ascii	"msg_t\000"
 3380      7400
 3381              	.LASF13:
 3382 0162 746D6F64 		.ascii	"tmode_t\000"
 3382      655F7400 
 3383              	.LASF43:
 3384 016a 54687265 		.ascii	"ThreadsList\000"
 3384      6164734C 
 3384      69737400 
 3385              	.LASF19:
 3386 0176 6576656E 		.ascii	"eventmask_t\000"
 3386      746D6173 
 3386      6B5F7400 
 3387              	.LASF65:
 3388 0182 4D757465 		.ascii	"Mutex\000"
 3388      7800
 3389              	.LASF52:
 3390 0188 76745F74 		.ascii	"vt_time\000"
ARM GAS  /tmp/ccwzAXjk.s 			page 62


 3390      696D6500 
 3391              	.LASF47:
 3392 0190 73697A65 		.ascii	"sizetype\000"
 3392      74797065 
 3392      00
 3393              	.LASF53:
 3394 0199 76745F66 		.ascii	"vt_func\000"
 3394      756E6300 
 3395              	.LASF80:
 3396 01a1 63685363 		.ascii	"chSchDoRescheduleBehind\000"
 3396      68446F52 
 3396      65736368 
 3396      6564756C 
 3396      65426568 
 3397              	.LASF85:
 3398 01b9 63685654 		.ascii	"chVTSetI\000"
 3398      53657449 
 3398      00
 3399              	.LASF28:
 3400 01c2 705F6F6C 		.ascii	"p_older\000"
 3400      64657200 
 3401              	.LASF57:
 3402 01ca 725F6374 		.ascii	"r_ctx\000"
 3402      7800
 3403              	.LASF42:
 3404 01d0 54687265 		.ascii	"ThreadsQueue\000"
 3404      61647351 
 3404      75657565 
 3404      00
 3405              	.LASF74:
 3406 01dd 64657175 		.ascii	"dequeue\000"
 3406      65756500 
 3407              	.LASF86:
 3408 01e5 474E5520 		.ascii	"GNU C 4.7.2\000"
 3408      4320342E 
 3408      372E3200 
 3409              	.LASF60:
 3410 01f1 725F6375 		.ascii	"r_current\000"
 3410      7272656E 
 3410      7400
 3411              	.LASF59:
 3412 01fb 725F6F6C 		.ascii	"r_older\000"
 3412      64657200 
 3413              	.LASF15:
 3414 0203 74726566 		.ascii	"trefs_t\000"
 3414      735F7400 
 3415              	.LASF24:
 3416 020b 705F7072 		.ascii	"p_prev\000"
 3416      657600
 3417              	.LASF17:
 3418 0212 74707269 		.ascii	"tprio_t\000"
 3418      6F5F7400 
 3419              	.LASF12:
 3420 021a 5F426F6F 		.ascii	"_Bool\000"
 3420      6C00
 3421              	.LASF6:
 3422 0220 696E7433 		.ascii	"int32_t\000"
ARM GAS  /tmp/ccwzAXjk.s 			page 63


 3422      325F7400 
 3423              	.LASF2:
 3424 0228 756E7369 		.ascii	"unsigned char\000"
 3424      676E6564 
 3424      20636861 
 3424      7200
 3425              	.LASF87:
 3426 0236 2F686F6D 		.ascii	"/home/wicker/tools/ChibiOS_2.6.3/os/kernel/src/chsc"
 3426      652F7769 
 3426      636B6572 
 3426      2F746F6F 
 3426      6C732F43 
 3427 0269 68642E63 		.ascii	"hd.c\000"
 3427      00
 3428              	.LASF76:
 3429 026e 6E657773 		.ascii	"newstate\000"
 3429      74617465 
 3429      00
 3430              	.LASF39:
 3431 0277 705F6D74 		.ascii	"p_mtxlist\000"
 3431      786C6973 
 3431      7400
 3432              	.LASF3:
 3433 0281 73686F72 		.ascii	"short int\000"
 3433      7420696E 
 3433      7400
 3434              	.LASF30:
 3435 028b 705F7374 		.ascii	"p_state\000"
 3435      61746500 
 3436              	.LASF33:
 3437 0293 705F7072 		.ascii	"p_preempt\000"
 3437      65656D70 
 3437      7400
 3438              	.LASF56:
 3439 029d 725F7072 		.ascii	"r_prio\000"
 3439      696F00
 3440              	.LASF72:
 3441 02a4 65776D61 		.ascii	"ewmask\000"
 3441      736B00
 3442              	.LASF23:
 3443 02ab 705F6E65 		.ascii	"p_next\000"
 3443      787400
 3444              	.LASF31:
 3445 02b2 705F666C 		.ascii	"p_flags\000"
 3445      61677300 
 3446              	.LASF22:
 3447 02ba 54687265 		.ascii	"Thread\000"
 3447      616400
 3448              	.LASF93:
 3449 02c1 63685654 		.ascii	"chVTResetI\000"
 3449      52657365 
 3449      744900
 3450              	.LASF78:
 3451 02cc 63685363 		.ascii	"chSchGoSleepS\000"
 3451      68476F53 
 3451      6C656570 
 3451      5300
ARM GAS  /tmp/ccwzAXjk.s 			page 64


 3452              	.LASF38:
 3453 02da 705F6570 		.ascii	"p_epending\000"
 3453      656E6469 
 3453      6E6700
 3454              	.LASF8:
 3455 02e5 75696E74 		.ascii	"uint32_t\000"
 3455      33325F74 
 3455      00
 3456              	.LASF55:
 3457 02ee 725F7175 		.ascii	"r_queue\000"
 3457      65756500 
 3458              	.LASF49:
 3459 02f6 56697274 		.ascii	"VirtualTimer\000"
 3459      75616C54 
 3459      696D6572 
 3459      00
 3460              	.LASF73:
 3461 0303 63686172 		.ascii	"char\000"
 3461      00
 3462              	.LASF75:
 3463 0308 6669666F 		.ascii	"fifo_remove\000"
 3463      5F72656D 
 3463      6F766500 
 3464              	.LASF88:
 3465 0314 63685363 		.ascii	"chSchReadyI\000"
 3465      68526561 
 3465      64794900 
 3466              	.LASF68:
 3467 0320 6D5F6E65 		.ascii	"m_next\000"
 3467      787400
 3468              	.LASF20:
 3469 0327 73797374 		.ascii	"systime_t\000"
 3469      696D655F 
 3469      7400
 3470              	.LASF40:
 3471 0331 705F7265 		.ascii	"p_realprio\000"
 3471      616C7072 
 3471      696F00
 3472              	.LASF48:
 3473 033c 76746675 		.ascii	"vtfunc_t\000"
 3473      6E635F74 
 3473      00
 3474              	.LASF34:
 3475 0345 705F7469 		.ascii	"p_time\000"
 3475      6D6500
 3476              	.LASF45:
 3477 034c 696E7463 		.ascii	"intctx\000"
 3477      747800
 3478              	.LASF36:
 3479 0353 705F6D73 		.ascii	"p_msgqueue\000"
 3479      67717565 
 3479      756500
 3480              	.LASF77:
 3481 035e 74696D65 		.ascii	"time\000"
 3481      00
 3482              	.LASF54:
 3483 0363 76745F70 		.ascii	"vt_par\000"
ARM GAS  /tmp/ccwzAXjk.s 			page 65


 3483      617200
 3484              	.LASF62:
 3485 036a 53656D61 		.ascii	"Semaphore\000"
 3485      70686F72 
 3485      6500
 3486              	.LASF32:
 3487 0374 705F7265 		.ascii	"p_refs\000"
 3487      667300
 3488              	.LASF61:
 3489 037b 52656164 		.ascii	"ReadyList\000"
 3489      794C6973 
 3489      7400
 3490              	.LASF92:
 3491 0385 726C6973 		.ascii	"rlist\000"
 3491      7400
 3492              	.LASF5:
 3493 038b 75696E74 		.ascii	"uint8_t\000"
 3493      385F7400 
 3494              	.LASF71:
 3495 0393 77746F62 		.ascii	"wtobjp\000"
 3495      6A7000
 3496              	.LASF29:
 3497 039a 705F6E61 		.ascii	"p_name\000"
 3497      6D6500
 3498              	.LASF91:
 3499 03a1 63685363 		.ascii	"chSchGoSleepTimeoutS\000"
 3499      68476F53 
 3499      6C656570 
 3499      54696D65 
 3499      6F757453 
 3500              	.LASF67:
 3501 03b6 6D5F6F77 		.ascii	"m_owner\000"
 3501      6E657200 
 3502              	.LASF26:
 3503 03be 705F6374 		.ascii	"p_ctx\000"
 3503      7800
 3504              	.LASF35:
 3505 03c4 705F7761 		.ascii	"p_waiting\000"
 3505      6974696E 
 3505      6700
 3506              		.ident	"GCC: (crosstool-NG 1.17.0 - PSAS ST32F4 GFE) 4.7.2"
ARM GAS  /tmp/ccwzAXjk.s 			page 66


DEFINED SYMBOLS
                            *ABS*:0000000000000000 chschd.c
     /tmp/ccwzAXjk.s:21     .text.wakeup:0000000000000000 $t
     /tmp/ccwzAXjk.s:26     .text.wakeup:0000000000000000 wakeup
     /tmp/ccwzAXjk.s:52     .text.wakeup:0000000000000010 $d
     /tmp/ccwzAXjk.s:66     .text.wakeup:000000000000001e $t
     /tmp/ccwzAXjk.s:135    .text.wakeup:0000000000000058 $d
     /tmp/ccwzAXjk.s:141    .text._scheduler_init:0000000000000000 $t
     /tmp/ccwzAXjk.s:147    .text._scheduler_init:0000000000000000 _scheduler_init
     /tmp/ccwzAXjk.s:762    .bss.rlist:0000000000000000 .LANCHOR0
     /tmp/ccwzAXjk.s:172    .text.chSchReadyI:0000000000000000 $t
     /tmp/ccwzAXjk.s:178    .text.chSchReadyI:0000000000000000 chSchReadyI
     /tmp/ccwzAXjk.s:216    .text.chSchReadyI:000000000000001c $d
     /tmp/ccwzAXjk.s:221    .text.chSchGoSleepS:0000000000000000 $t
     /tmp/ccwzAXjk.s:227    .text.chSchGoSleepS:0000000000000000 chSchGoSleepS
     /tmp/ccwzAXjk.s:289    .text.chSchGoSleepTimeoutS:0000000000000000 $t
     /tmp/ccwzAXjk.s:295    .text.chSchGoSleepTimeoutS:0000000000000000 chSchGoSleepTimeoutS
     /tmp/ccwzAXjk.s:356    .text.chSchGoSleepTimeoutS:0000000000000038 $d
     /tmp/ccwzAXjk.s:362    .text.chSchWakeupS:0000000000000000 $t
     /tmp/ccwzAXjk.s:368    .text.chSchWakeupS:0000000000000000 chSchWakeupS
     /tmp/ccwzAXjk.s:495    .text.chSchWakeupS:0000000000000054 $d
     /tmp/ccwzAXjk.s:501    .text.chSchDoRescheduleBehind:0000000000000000 $t
     /tmp/ccwzAXjk.s:507    .text.chSchDoRescheduleBehind:0000000000000000 chSchDoRescheduleBehind
     /tmp/ccwzAXjk.s:597    .text.chSchDoRescheduleBehind:000000000000003c $d
     /tmp/ccwzAXjk.s:602    .text.chSchDoRescheduleAhead:0000000000000000 $t
     /tmp/ccwzAXjk.s:608    .text.chSchDoRescheduleAhead:0000000000000000 chSchDoRescheduleAhead
     /tmp/ccwzAXjk.s:685    .text.chSchDoRescheduleAhead:0000000000000038 $d
     /tmp/ccwzAXjk.s:690    .text.chSchRescheduleS:0000000000000000 $t
     /tmp/ccwzAXjk.s:696    .text.chSchRescheduleS:0000000000000000 chSchRescheduleS
     /tmp/ccwzAXjk.s:720    .text.chSchRescheduleS:0000000000000014 $d
     /tmp/ccwzAXjk.s:725    .text.chSchDoReschedule:0000000000000000 $t
     /tmp/ccwzAXjk.s:731    .text.chSchDoReschedule:0000000000000000 chSchDoReschedule
     /tmp/ccwzAXjk.s:755    .text.chSchDoReschedule:0000000000000010 $d
     /tmp/ccwzAXjk.s:765    .bss.rlist:0000000000000000 rlist
     /tmp/ccwzAXjk.s:761    .bss.rlist:0000000000000000 $d
                     .debug_frame:0000000000000010 $d
     /tmp/ccwzAXjk.s:140    .text.wakeup:000000000000005c $t
     /tmp/ccwzAXjk.s:500    .text.chSchWakeupS:0000000000000058 $t
     /tmp/ccwzAXjk.s:689    .text.chSchDoRescheduleAhead:000000000000003c $t
     /tmp/ccwzAXjk.s:724    .text.chSchRescheduleS:0000000000000018 $t
     /tmp/ccwzAXjk.s:760    .text.chSchDoReschedule:0000000000000014 $t

UNDEFINED SYMBOLS
_port_switch
chVTSetI
chVTResetI
