ARM GAS  /tmp/ccwzAXjk.s 			page 1


   1              		.syntax unified
   2              		.cpu cortex-m4
   3              		.eabi_attribute 27, 3
   4              		.eabi_attribute 28, 1
   5              		.fpu fpv4-sp-d16
   6              		.eabi_attribute 20, 1
   7              		.eabi_attribute 21, 1
   8              		.eabi_attribute 23, 3
   9              		.eabi_attribute 24, 1
  10              		.eabi_attribute 25, 1
  11              		.eabi_attribute 26, 1
  12              		.eabi_attribute 30, 2
  13              		.eabi_attribute 34, 1
  14              		.eabi_attribute 18, 4
  15              		.thumb
  16              		.file	"chschd.c"
  17              		.text
  18              	.Ltext0:
  19              		.cfi_sections	.debug_frame
  20              		.section	.text.wakeup,"ax",%progbits
  21              		.align	2
  22              		.p2align 4,,15
  23              		.thumb
  24              		.thumb_func
  25              		.type	wakeup, %function
  26              	wakeup:
  27              	.LFB10:
  28              		.file 1 "/home/wicker/tools/ChibiOS_2.6.3/os/kernel/src/chschd.c"
  29              		.loc 1 136 0
  30              		.cfi_startproc
  31              		@ args = 0, pretend = 0, frame = 0
  32              		@ frame_needed = 0, uses_anonymous_args = 0
  33              		@ link register save eliminated.
  34              	.LVL0:
  35              	.LBB22:
  36              		.loc 1 139 0
  37 0000 2023     		movs	r3, #32
  38              	.LVL1:
  39              	@ 139 "/home/wicker/tools/ChibiOS_2.6.3/os/kernel/src/chschd.c" 1
  40 0002 83F31188 		msr     BASEPRI, r3
  41              	@ 0 "" 2
  42              	.LVL2:
  43              		.thumb
  44              	.LBE22:
  45              		.loc 1 140 0
  46 0006 037F     		ldrb	r3, [r0, #28]	@ zero_extendqisi2
  47              	.LVL3:
  48 0008 0D2B     		cmp	r3, #13
  49 000a 11D8     		bhi	.L2
  50 000c DFE803F0 		tbb	[pc, r3]
  51              	.L6:
  52 0010 20       		.byte	(.L10-.L6)/2
  53 0011 10       		.byte	(.L2-.L6)/2
  54 0012 10       		.byte	(.L2-.L6)/2
  55 0013 07       		.byte	(.L4-.L6)/2
  56 0014 10       		.byte	(.L2-.L6)/2
  57 0015 0B       		.byte	(.L5-.L6)/2
ARM GAS  /tmp/ccwzAXjk.s 			page 2


  58 0016 10       		.byte	(.L2-.L6)/2
  59 0017 10       		.byte	(.L2-.L6)/2
  60 0018 10       		.byte	(.L2-.L6)/2
  61 0019 10       		.byte	(.L2-.L6)/2
  62 001a 10       		.byte	(.L2-.L6)/2
  63 001b 10       		.byte	(.L2-.L6)/2
  64 001c 10       		.byte	(.L2-.L6)/2
  65 001d 0B       		.byte	(.L5-.L6)/2
  66              		.align	1
  67              	.L4:
  68              		.loc 1 150 0
  69 001e 436A     		ldr	r3, [r0, #36]
  70 0020 9A68     		ldr	r2, [r3, #8]
  71 0022 0132     		adds	r2, r2, #1
  72 0024 9A60     		str	r2, [r3, #8]
  73              	.L5:
  74              	.LVL4:
  75              	.LBB23:
  76              	.LBB24:
  77              		.file 2 "/home/wicker/tools/ChibiOS_2.6.3/os/kernel/include/chinline.h"
  78              		.loc 2 75 0
  79 0026 90E80C00 		ldmia	r0, {r2, r3}
  80 002a 1A60     		str	r2, [r3, #0]
  81              		.loc 2 76 0
  82 002c 0268     		ldr	r2, [r0, #0]
  83 002e 5360     		str	r3, [r2, #4]
  84              	.LVL5:
  85              	.L2:
  86              	.LBE24:
  87              	.LBE23:
  88              		.loc 1 163 0
  89 0030 4FF0FF32 		mov	r2, #-1
  90 0034 4262     		str	r2, [r0, #36]
  91              	.LVL6:
  92 0036 8168     		ldr	r1, [r0, #8]
  93              	.LBB25:
  94              	.LBB26:
  95              		.loc 1 93 0
  96 0038 074B     		ldr	r3, .L12
  97              		.loc 1 92 0
  98 003a 0022     		movs	r2, #0
  99 003c 0277     		strb	r2, [r0, #28]
 100              	.LVL7:
 101              	.L8:
 102              		.loc 1 95 0
 103 003e 1B68     		ldr	r3, [r3, #0]
 104              	.LVL8:
 105              		.loc 1 96 0
 106 0040 9A68     		ldr	r2, [r3, #8]
 107 0042 8A42     		cmp	r2, r1
 108 0044 FBD2     		bcs	.L8
 109              		.loc 1 99 0
 110 0046 5A68     		ldr	r2, [r3, #4]
 111              		.loc 1 98 0
 112 0048 0360     		str	r3, [r0, #0]
 113              		.loc 1 99 0
 114 004a 4260     		str	r2, [r0, #4]
ARM GAS  /tmp/ccwzAXjk.s 			page 3


 115              		.loc 1 100 0
 116 004c 1060     		str	r0, [r2, #0]
 117 004e 5860     		str	r0, [r3, #4]
 118              	.LVL9:
 119              	.L10:
 120              	.LBE26:
 121              	.LBE25:
 122              	.LBB27:
 123              		.loc 1 165 0
 124 0050 0023     		movs	r3, #0
 125              	.LVL10:
 126              	@ 165 "/home/wicker/tools/ChibiOS_2.6.3/os/kernel/src/chschd.c" 1
 127 0052 83F31188 		msr     BASEPRI, r3
 128              	@ 0 "" 2
 129              	.LVL11:
 130              		.thumb
 131 0056 7047     		bx	lr
 132              	.L13:
 133              		.align	2
 134              	.L12:
 135 0058 00000000 		.word	.LANCHOR0
 136              	.LBE27:
 137              		.cfi_endproc
 138              	.LFE10:
 139              		.size	wakeup, .-wakeup
 140 005c AFF30080 		.section	.text._scheduler_init,"ax",%progbits
 141              		.align	2
 142              		.p2align 4,,15
 143              		.global	_scheduler_init
 144              		.thumb
 145              		.thumb_func
 146              		.type	_scheduler_init, %function
 147              	_scheduler_init:
 148              	.LFB7:
 149              		.loc 1 55 0
 150              		.cfi_startproc
 151              		@ args = 0, pretend = 0, frame = 0
 152              		@ frame_needed = 0, uses_anonymous_args = 0
 153              		@ link register save eliminated.
 154              		.loc 1 57 0
 155 0000 40F20003 		movw	r3, #:lower16:.LANCHOR0
 156 0004 C0F20003 		movt	r3, #:upper16:.LANCHOR0
 157              		.loc 1 58 0
 158 0008 0022     		movs	r2, #0
 159              		.loc 1 57 0
 160 000a 5B60     		str	r3, [r3, #4]
 161 000c 1B60     		str	r3, [r3, #0]
 162              		.loc 1 58 0
 163 000e 9A60     		str	r2, [r3, #8]
 164              		.loc 1 60 0
 165 0010 5B61     		str	r3, [r3, #20]
 166 0012 1B61     		str	r3, [r3, #16]
 167 0014 7047     		bx	lr
 168              		.cfi_endproc
 169              	.LFE7:
 170              		.size	_scheduler_init, .-_scheduler_init
 171 0016 00BFAFF3 		.section	.text.chSchReadyI,"ax",%progbits
ARM GAS  /tmp/ccwzAXjk.s 			page 4


 171      0080AFF3 
 171      0080
 172              		.align	2
 173              		.p2align 4,,15
 174              		.global	chSchReadyI
 175              		.thumb
 176              		.thumb_func
 177              		.type	chSchReadyI, %function
 178              	chSchReadyI:
 179              	.LFB8:
 180              		.loc 1 81 0
 181              		.cfi_startproc
 182              		@ args = 0, pretend = 0, frame = 0
 183              		@ frame_needed = 0, uses_anonymous_args = 0
 184              		@ link register save eliminated.
 185              	.LVL12:
 186              		.loc 1 92 0
 187 0000 0022     		movs	r2, #0
 188 0002 8168     		ldr	r1, [r0, #8]
 189              		.loc 1 93 0
 190 0004 054B     		ldr	r3, .L18
 191              		.loc 1 92 0
 192 0006 0277     		strb	r2, [r0, #28]
 193              	.LVL13:
 194              	.L16:
 195              		.loc 1 95 0 discriminator 1
 196 0008 1B68     		ldr	r3, [r3, #0]
 197              	.LVL14:
 198              		.loc 1 96 0 discriminator 1
 199 000a 9A68     		ldr	r2, [r3, #8]
 200 000c 8A42     		cmp	r2, r1
 201 000e FBD2     		bcs	.L16
 202              		.loc 1 99 0
 203 0010 5A68     		ldr	r2, [r3, #4]
 204              		.loc 1 98 0
 205 0012 0360     		str	r3, [r0, #0]
 206              		.loc 1 99 0
 207 0014 4260     		str	r2, [r0, #4]
 208              		.loc 1 100 0
 209 0016 1060     		str	r0, [r2, #0]
 210 0018 5860     		str	r0, [r3, #4]
 211              		.loc 1 102 0
 212 001a 7047     		bx	lr
 213              	.L19:
 214              		.align	2
 215              	.L18:
 216 001c 00000000 		.word	.LANCHOR0
 217              		.cfi_endproc
 218              	.LFE8:
 219              		.size	chSchReadyI, .-chSchReadyI
 220              		.section	.text.chSchGoSleepS,"ax",%progbits
 221              		.align	2
 222              		.p2align 4,,15
 223              		.global	chSchGoSleepS
 224              		.thumb
 225              		.thumb_func
 226              		.type	chSchGoSleepS, %function
ARM GAS  /tmp/ccwzAXjk.s 			page 5


 227              	chSchGoSleepS:
 228              	.LFB9:
 229              		.loc 1 115 0
 230              		.cfi_startproc
 231              		@ args = 0, pretend = 0, frame = 0
 232              		@ frame_needed = 0, uses_anonymous_args = 0
 233              		@ link register save eliminated.
 234              	.LVL15:
 235              		.loc 1 120 0
 236 0000 40F20003 		movw	r3, #:lower16:.LANCHOR0
 237 0004 C0F20003 		movt	r3, #:upper16:.LANCHOR0
 238              		.loc 1 115 0
 239 0008 10B4     		push	{r4}
 240              	.LCFI0:
 241              		.cfi_def_cfa_offset 4
 242              		.cfi_offset 4, -4
 243              		.loc 1 120 0
 244 000a 9969     		ldr	r1, [r3, #24]
 245              	.LVL16:
 246              	.LBB28:
 247              	.LBB29:
 248              		.loc 2 60 0
 249 000c 1A68     		ldr	r2, [r3, #0]
 250              	.LBE29:
 251              	.LBE28:
 252              		.loc 1 120 0
 253 000e 0877     		strb	r0, [r1, #28]
 254              		.loc 1 124 0
 255 0010 1420     		movs	r0, #20
 256              	.LVL17:
 257              	.LBB32:
 258              	.LBB30:
 259              		.loc 2 62 0
 260 0012 1468     		ldr	r4, [r2, #0]
 261              	.LBE30:
 262              	.LBE32:
 263              		.loc 1 124 0
 264 0014 C877     		strb	r0, [r1, #31]
 265              	.LVL18:
 266              		.loc 1 127 0
 267 0016 0120     		movs	r0, #1
 268 0018 1077     		strb	r0, [r2, #28]
 269              		.loc 1 128 0
 270 001a 1046     		mov	r0, r2
 271              	.LBB33:
 272              	.LBB31:
 273              		.loc 2 62 0
 274 001c 6360     		str	r3, [r4, #4]
 275 001e 1C60     		str	r4, [r3, #0]
 276              	.LBE31:
 277              	.LBE33:
 278              		.loc 1 126 0
 279 0020 9A61     		str	r2, [r3, #24]
 280              		.loc 1 129 0
 281 0022 10BC     		pop	{r4}
 282              		.loc 1 128 0
 283 0024 FFF7FEBF 		b	_port_switch
ARM GAS  /tmp/ccwzAXjk.s 			page 6


 284              	.LVL19:
 285              		.cfi_endproc
 286              	.LFE9:
 287              		.size	chSchGoSleepS, .-chSchGoSleepS
 288 0028 AFF30080 		.section	.text.chSchGoSleepTimeoutS,"ax",%progbits
 288      AFF30080 
 289              		.align	2
 290              		.p2align 4,,15
 291              		.global	chSchGoSleepTimeoutS
 292              		.thumb
 293              		.thumb_func
 294              		.type	chSchGoSleepTimeoutS, %function
 295              	chSchGoSleepTimeoutS:
 296              	.LFB11:
 297              		.loc 1 189 0
 298              		.cfi_startproc
 299              		@ args = 0, pretend = 0, frame = 24
 300              		@ frame_needed = 0, uses_anonymous_args = 0
 301              	.LVL20:
 302 0000 30B5     		push	{r4, r5, lr}
 303              	.LCFI1:
 304              		.cfi_def_cfa_offset 12
 305              		.cfi_offset 4, -12
 306              		.cfi_offset 5, -8
 307              		.cfi_offset 14, -4
 308              		.loc 1 193 0
 309 0002 4B1C     		adds	r3, r1, #1
 310              		.loc 1 189 0
 311 0004 87B0     		sub	sp, sp, #28
 312              	.LCFI2:
 313              		.cfi_def_cfa_offset 40
 314              		.loc 1 189 0
 315 0006 0546     		mov	r5, r0
 316              		.loc 1 193 0
 317 0008 11D0     		beq	.L22
 318              	.LBB34:
 319              		.loc 1 196 0
 320 000a 0B4C     		ldr	r4, .L28
 321 000c 0B4A     		ldr	r2, .L28+4
 322 000e A369     		ldr	r3, [r4, #24]
 323 0010 01A8     		add	r0, sp, #4
 324              	.LVL21:
 325 0012 FFF7FEFF 		bl	chVTSetI
 326              	.LVL22:
 327              		.loc 1 197 0
 328 0016 2846     		mov	r0, r5
 329 0018 FFF7FEFF 		bl	chSchGoSleepS
 330              	.LVL23:
 331              		.loc 1 198 0
 332 001c 049B     		ldr	r3, [sp, #16]
 333 001e 13B1     		cbz	r3, .L24
 334              		.loc 1 199 0
 335 0020 01A8     		add	r0, sp, #4
 336 0022 FFF7FEFF 		bl	chVTResetI
 337              	.LVL24:
 338              	.L24:
 339              	.LBE34:
ARM GAS  /tmp/ccwzAXjk.s 			page 7


 340              		.loc 1 203 0
 341 0026 A369     		ldr	r3, [r4, #24]
 342              		.loc 1 204 0
 343 0028 586A     		ldr	r0, [r3, #36]
 344 002a 07B0     		add	sp, sp, #28
 345 002c 30BD     		pop	{r4, r5, pc}
 346              	.LVL25:
 347              	.L22:
 348              		.loc 1 202 0
 349 002e FFF7FEFF 		bl	chSchGoSleepS
 350              	.LVL26:
 351 0032 014C     		ldr	r4, .L28
 352 0034 F7E7     		b	.L24
 353              	.L29:
 354 0036 00BF     		.align	2
 355              	.L28:
 356 0038 00000000 		.word	.LANCHOR0
 357 003c 00000000 		.word	wakeup
 358              		.cfi_endproc
 359              	.LFE11:
 360              		.size	chSchGoSleepTimeoutS, .-chSchGoSleepTimeoutS
 361              		.section	.text.chSchWakeupS,"ax",%progbits
 362              		.align	2
 363              		.p2align 4,,15
 364              		.global	chSchWakeupS
 365              		.thumb
 366              		.thumb_func
 367              		.type	chSchWakeupS, %function
 368              	chSchWakeupS:
 369              	.LFB12:
 370              		.loc 1 225 0
 371              		.cfi_startproc
 372              		@ args = 0, pretend = 0, frame = 0
 373              		@ frame_needed = 0, uses_anonymous_args = 0
 374              		@ link register save eliminated.
 375              	.LVL27:
 376 0000 F0B4     		push	{r4, r5, r6, r7}
 377              	.LCFI3:
 378              		.cfi_def_cfa_offset 16
 379              		.cfi_offset 4, -16
 380              		.cfi_offset 5, -12
 381              		.cfi_offset 6, -8
 382              		.cfi_offset 7, -4
 383              		.loc 1 234 0
 384 0002 144F     		ldr	r7, .L38
 385 0004 8568     		ldr	r5, [r0, #8]
 386 0006 BE69     		ldr	r6, [r7, #24]
 387              		.loc 1 225 0
 388 0008 0446     		mov	r4, r0
 389              		.loc 1 234 0
 390 000a B068     		ldr	r0, [r6, #8]
 391              	.LVL28:
 392              		.loc 1 229 0
 393 000c 6162     		str	r1, [r4, #36]
 394              	.LBB35:
 395              	.LBB36:
 396              		.loc 1 92 0
ARM GAS  /tmp/ccwzAXjk.s 			page 8


 397 000e 0023     		movs	r3, #0
 398              	.LBE36:
 399              	.LBE35:
 400              		.loc 1 234 0
 401 0010 8542     		cmp	r5, r0
 402 0012 0CD8     		bhi	.L31
 403              	.LVL29:
 404              	.LBB38:
 405              	.LBB37:
 406              		.loc 1 92 0
 407 0014 2377     		strb	r3, [r4, #28]
 408              	.LVL30:
 409              		.loc 1 93 0
 410 0016 3B46     		mov	r3, r7
 411              	.LVL31:
 412              	.L32:
 413              		.loc 1 95 0
 414 0018 1B68     		ldr	r3, [r3, #0]
 415              	.LVL32:
 416              		.loc 1 96 0
 417 001a 9A68     		ldr	r2, [r3, #8]
 418 001c 9542     		cmp	r5, r2
 419 001e FBD9     		bls	.L32
 420              		.loc 1 99 0
 421 0020 5A68     		ldr	r2, [r3, #4]
 422              		.loc 1 98 0
 423 0022 2360     		str	r3, [r4, #0]
 424              		.loc 1 99 0
 425 0024 6260     		str	r2, [r4, #4]
 426              		.loc 1 100 0
 427 0026 1460     		str	r4, [r2, #0]
 428 0028 5C60     		str	r4, [r3, #4]
 429              	.LBE37:
 430              	.LBE38:
 431              		.loc 1 242 0
 432 002a F0BC     		pop	{r4, r5, r6, r7}
 433 002c 7047     		bx	lr
 434              	.LVL33:
 435              	.L31:
 436              	.LBB39:
 437              	.LBB40:
 438              	.LBB41:
 439              		.loc 1 92 0
 440 002e 3377     		strb	r3, [r6, #28]
 441              	.LVL34:
 442              		.loc 1 93 0
 443 0030 3B46     		mov	r3, r7
 444              	.LVL35:
 445              	.L34:
 446              		.loc 1 95 0
 447 0032 1B68     		ldr	r3, [r3, #0]
 448              	.LVL36:
 449              		.loc 1 96 0
 450 0034 9A68     		ldr	r2, [r3, #8]
 451 0036 9042     		cmp	r0, r2
 452 0038 FBD9     		bls	.L34
 453              		.loc 1 99 0
ARM GAS  /tmp/ccwzAXjk.s 			page 9


 454 003a 5A68     		ldr	r2, [r3, #4]
 455              		.loc 1 98 0
 456 003c 3360     		str	r3, [r6, #0]
 457              		.loc 1 99 0
 458 003e 7260     		str	r2, [r6, #4]
 459              	.LBE41:
 460              	.LBE40:
 461              		.loc 1 240 0
 462 0040 2046     		mov	r0, r4
 463              	.LBB44:
 464              	.LBB42:
 465              		.loc 1 100 0
 466 0042 5E60     		str	r6, [r3, #4]
 467              	.LBE42:
 468              	.LBE44:
 469              		.loc 1 240 0
 470 0044 3146     		mov	r1, r6
 471              	.LVL37:
 472              		.loc 1 239 0
 473 0046 0123     		movs	r3, #1
 474              	.LVL38:
 475              	.LBB45:
 476              	.LBB43:
 477              		.loc 1 100 0
 478 0048 1660     		str	r6, [r2, #0]
 479              	.LBE43:
 480              	.LBE45:
 481              		.loc 1 239 0
 482 004a 2377     		strb	r3, [r4, #28]
 483              		.loc 1 238 0
 484 004c BC61     		str	r4, [r7, #24]
 485              	.LBE39:
 486              		.loc 1 242 0
 487 004e F0BC     		pop	{r4, r5, r6, r7}
 488              	.LBB46:
 489              		.loc 1 240 0
 490 0050 FFF7FEBF 		b	_port_switch
 491              	.LVL39:
 492              	.L39:
 493              		.align	2
 494              	.L38:
 495 0054 00000000 		.word	.LANCHOR0
 496              	.LBE46:
 497              		.cfi_endproc
 498              	.LFE12:
 499              		.size	chSchWakeupS, .-chSchWakeupS
 500 0058 AFF30080 		.section	.text.chSchDoRescheduleBehind,"ax",%progbits
 500      AFF30080 
 501              		.align	2
 502              		.p2align 4,,15
 503              		.global	chSchDoRescheduleBehind
 504              		.thumb
 505              		.thumb_func
 506              		.type	chSchDoRescheduleBehind, %function
 507              	chSchDoRescheduleBehind:
 508              	.LFB14:
 509              		.loc 1 304 0
ARM GAS  /tmp/ccwzAXjk.s 			page 10


 510              		.cfi_startproc
 511              		@ args = 0, pretend = 0, frame = 0
 512              		@ frame_needed = 0, uses_anonymous_args = 0
 513              		@ link register save eliminated.
 514              		.loc 1 307 0
 515 0000 0E4B     		ldr	r3, .L44
 516              	.LBB47:
 517              	.LBB48:
 518              		.loc 2 60 0
 519 0002 1868     		ldr	r0, [r3, #0]
 520              	.LBE48:
 521              	.LBE47:
 522              		.loc 1 307 0
 523 0004 9969     		ldr	r1, [r3, #24]
 524              	.LVL40:
 525              	.LBB51:
 526              	.LBB49:
 527              		.loc 2 62 0
 528 0006 0268     		ldr	r2, [r0, #0]
 529              	.LBE49:
 530              	.LBE51:
 531              		.loc 1 304 0
 532 0008 30B4     		push	{r4, r5}
 533              	.LCFI4:
 534              		.cfi_def_cfa_offset 8
 535              		.cfi_offset 4, -8
 536              		.cfi_offset 5, -4
 537              	.LBB52:
 538              	.LBB50:
 539              		.loc 2 62 0
 540 000a 5360     		str	r3, [r2, #4]
 541 000c 8C68     		ldr	r4, [r1, #8]
 542 000e 1A60     		str	r2, [r3, #0]
 543              	.LBE50:
 544              	.LBE52:
 545              		.loc 1 309 0
 546 0010 9861     		str	r0, [r3, #24]
 547              		.loc 1 312 0
 548 0012 1423     		movs	r3, #20
 549              		.loc 1 310 0
 550 0014 0125     		movs	r5, #1
 551              		.loc 1 312 0
 552 0016 CB77     		strb	r3, [r1, #31]
 553              	.LVL41:
 554              	.LBB53:
 555              	.LBB54:
 556              		.loc 1 92 0
 557 0018 0023     		movs	r3, #0
 558              	.LBE54:
 559              	.LBE53:
 560              		.loc 1 310 0
 561 001a 0577     		strb	r5, [r0, #28]
 562              	.LBB56:
 563              	.LBB55:
 564              		.loc 1 92 0
 565 001c 0B77     		strb	r3, [r1, #28]
 566              	.LVL42:
ARM GAS  /tmp/ccwzAXjk.s 			page 11


 567 001e 0346     		mov	r3, r0
 568 0020 00E0     		b	.L42
 569              	.LVL43:
 570              	.L43:
 571 0022 1B68     		ldr	r3, [r3, #0]
 572              	.LVL44:
 573              	.L42:
 574              		.loc 1 96 0
 575 0024 9A68     		ldr	r2, [r3, #8]
 576 0026 A242     		cmp	r2, r4
 577 0028 FBD2     		bcs	.L43
 578              		.loc 1 99 0
 579 002a 5A68     		ldr	r2, [r3, #4]
 580              		.loc 1 98 0
 581 002c 0B60     		str	r3, [r1, #0]
 582              		.loc 1 99 0
 583 002e 4A60     		str	r2, [r1, #4]
 584              		.loc 1 100 0
 585 0030 1160     		str	r1, [r2, #0]
 586 0032 5960     		str	r1, [r3, #4]
 587              	.LBE55:
 588              	.LBE56:
 589              		.loc 1 316 0
 590 0034 30BC     		pop	{r4, r5}
 591              		.loc 1 315 0
 592 0036 FFF7FEBF 		b	_port_switch
 593              	.LVL45:
 594              	.L45:
 595 003a 00BF     		.align	2
 596              	.L44:
 597 003c 00000000 		.word	.LANCHOR0
 598              		.cfi_endproc
 599              	.LFE14:
 600              		.size	chSchDoRescheduleBehind, .-chSchDoRescheduleBehind
 601              		.section	.text.chSchDoRescheduleAhead,"ax",%progbits
 602              		.align	2
 603              		.p2align 4,,15
 604              		.global	chSchDoRescheduleAhead
 605              		.thumb
 606              		.thumb_func
 607              		.type	chSchDoRescheduleAhead, %function
 608              	chSchDoRescheduleAhead:
 609              	.LFB15:
 610              		.loc 1 329 0
 611              		.cfi_startproc
 612              		@ args = 0, pretend = 0, frame = 0
 613              		@ frame_needed = 0, uses_anonymous_args = 0
 614              		@ link register save eliminated.
 615              		.loc 1 332 0
 616 0000 0D4B     		ldr	r3, .L50
 617              	.LBB57:
 618              	.LBB58:
 619              		.loc 2 60 0
 620 0002 1868     		ldr	r0, [r3, #0]
 621              	.LBE58:
 622              	.LBE57:
 623              		.loc 1 332 0
ARM GAS  /tmp/ccwzAXjk.s 			page 12


 624 0004 9969     		ldr	r1, [r3, #24]
 625              	.LVL46:
 626              	.LBB61:
 627              	.LBB59:
 628              		.loc 2 62 0
 629 0006 0268     		ldr	r2, [r0, #0]
 630              	.LBE59:
 631              	.LBE61:
 632              		.loc 1 329 0
 633 0008 30B4     		push	{r4, r5}
 634              	.LCFI5:
 635              		.cfi_def_cfa_offset 8
 636              		.cfi_offset 4, -8
 637              		.cfi_offset 5, -4
 638              	.LBB62:
 639              	.LBB60:
 640              		.loc 2 62 0
 641 000a 5360     		str	r3, [r2, #4]
 642 000c 8C68     		ldr	r4, [r1, #8]
 643 000e 1A60     		str	r2, [r3, #0]
 644              	.LBE60:
 645              	.LBE62:
 646              		.loc 1 335 0
 647 0010 0125     		movs	r5, #1
 648              		.loc 1 334 0
 649 0012 9861     		str	r0, [r3, #24]
 650              		.loc 1 337 0
 651 0014 0023     		movs	r3, #0
 652              		.loc 1 335 0
 653 0016 0577     		strb	r5, [r0, #28]
 654              		.loc 1 337 0
 655 0018 0B77     		strb	r3, [r1, #28]
 656              	.LVL47:
 657 001a 0346     		mov	r3, r0
 658 001c 00E0     		b	.L48
 659              	.LVL48:
 660              	.L49:
 661 001e 1B68     		ldr	r3, [r3, #0]
 662              	.LVL49:
 663              	.L48:
 664              		.loc 1 341 0 discriminator 1
 665 0020 9A68     		ldr	r2, [r3, #8]
 666 0022 A242     		cmp	r2, r4
 667 0024 FBD8     		bhi	.L49
 668              		.loc 1 344 0
 669 0026 5A68     		ldr	r2, [r3, #4]
 670              		.loc 1 343 0
 671 0028 0B60     		str	r3, [r1, #0]
 672              		.loc 1 344 0
 673 002a 4A60     		str	r2, [r1, #4]
 674              		.loc 1 345 0
 675 002c 1160     		str	r1, [r2, #0]
 676 002e 5960     		str	r1, [r3, #4]
 677              		.loc 1 348 0
 678 0030 30BC     		pop	{r4, r5}
 679              		.loc 1 347 0
 680 0032 FFF7FEBF 		b	_port_switch
ARM GAS  /tmp/ccwzAXjk.s 			page 13


 681              	.LVL50:
 682              	.L51:
 683 0036 00BF     		.align	2
 684              	.L50:
 685 0038 00000000 		.word	.LANCHOR0
 686              		.cfi_endproc
 687              	.LFE15:
 688              		.size	chSchDoRescheduleAhead, .-chSchDoRescheduleAhead
 689 003c AFF30080 		.section	.text.chSchRescheduleS,"ax",%progbits
 690              		.align	2
 691              		.p2align 4,,15
 692              		.global	chSchRescheduleS
 693              		.thumb
 694              		.thumb_func
 695              		.type	chSchRescheduleS, %function
 696              	chSchRescheduleS:
 697              	.LFB13:
 698              		.loc 1 253 0
 699              		.cfi_startproc
 700              		@ args = 0, pretend = 0, frame = 0
 701              		@ frame_needed = 0, uses_anonymous_args = 0
 702              		@ link register save eliminated.
 703              		.loc 1 257 0
 704 0000 044B     		ldr	r3, .L55
 705 0002 1A68     		ldr	r2, [r3, #0]
 706 0004 9B69     		ldr	r3, [r3, #24]
 707 0006 9268     		ldr	r2, [r2, #8]
 708 0008 9B68     		ldr	r3, [r3, #8]
 709 000a 9A42     		cmp	r2, r3
 710 000c 00D8     		bhi	.L54
 711 000e 7047     		bx	lr
 712              	.L54:
 713              		.loc 1 259 0
 714              		.loc 1 258 0
 715 0010 FFF7FEBF 		b	chSchDoRescheduleAhead
 716              	.LVL51:
 717              	.L56:
 718              		.align	2
 719              	.L55:
 720 0014 00000000 		.word	.LANCHOR0
 721              		.cfi_endproc
 722              	.LFE13:
 723              		.size	chSchRescheduleS, .-chSchRescheduleS
 724 0018 AFF30080 		.section	.text.chSchDoReschedule,"ax",%progbits
 724      AFF30080 
 725              		.align	2
 726              		.p2align 4,,15
 727              		.global	chSchDoReschedule
 728              		.thumb
 729              		.thumb_func
 730              		.type	chSchDoReschedule, %function
 731              	chSchDoReschedule:
 732              	.LFB16:
 733              		.loc 1 362 0
 734              		.cfi_startproc
 735              		@ args = 0, pretend = 0, frame = 0
 736              		@ frame_needed = 0, uses_anonymous_args = 0
ARM GAS  /tmp/ccwzAXjk.s 			page 14


 737              		@ link register save eliminated.
 738              		.loc 1 367 0
 739 0000 034B     		ldr	r3, .L60
 740 0002 9B69     		ldr	r3, [r3, #24]
 741 0004 DB7F     		ldrb	r3, [r3, #31]	@ zero_extendqisi2
 742 0006 0BB1     		cbz	r3, .L59
 743              		.loc 1 382 0
 744              		.loc 1 375 0
 745 0008 FFF7FEBF 		b	chSchDoRescheduleAhead
 746              	.LVL52:
 747              	.L59:
 748              		.loc 1 382 0
 749              		.loc 1 370 0
 750 000c FFF7FEBF 		b	chSchDoRescheduleBehind
 751              	.LVL53:
 752              	.L61:
 753              		.align	2
 754              	.L60:
 755 0010 00000000 		.word	.LANCHOR0
 756              		.cfi_endproc
 757              	.LFE16:
 758              		.size	chSchDoReschedule, .-chSchDoReschedule
 759              		.global	rlist
 760 0014 AFF30080 		.section	.bss.rlist,"aw",%nobits
 760      AFF30080 
 760      AFF30080 
 761              		.align	2
 762              		.set	.LANCHOR0,. + 0
 763              		.type	rlist, %object
 764              		.size	rlist, 28
 765              	rlist:
 766 0000 00000000 		.space	28
 766      00000000 
 766      00000000 
 766      00000000 
 766      00000000 
 767              		.text
 768              	.Letext0:
 769              		.file 3 "/opt/psas/x-tools/stm32f407/arm-psas-eabi/bin/../lib/gcc/arm-psas-eabi/4.7.2/../../../../
 770              		.file 4 "/home/wicker/tools/ChibiOS_2.6.3/os/ports/GCC/ARMCMx/chtypes.h"
 771              		.file 5 "/home/wicker/tools/ChibiOS_2.6.3/os/kernel/include/chlists.h"
 772              		.file 6 "/home/wicker/tools/ChibiOS_2.6.3/os/kernel/include/chthreads.h"
 773              		.file 7 "/home/wicker/tools/ChibiOS_2.6.3/os/ports/GCC/ARMCMx/chcore_v7m.h"
 774              		.file 8 "/home/wicker/tools/ChibiOS_2.6.3/os/kernel/include/chvt.h"
 775              		.file 9 "/home/wicker/tools/ChibiOS_2.6.3/os/kernel/include/chschd.h"
 776              		.file 10 "/home/wicker/tools/ChibiOS_2.6.3/os/kernel/include/chsem.h"
 777              		.file 11 "/home/wicker/tools/ChibiOS_2.6.3/os/kernel/include/chmtx.h"