ARM GAS  /tmp/ccrcEjLd.s 			page 1


   1              		.syntax unified
   2              		.cpu cortex-m4
   3              		.eabi_attribute 27, 3
   4              		.eabi_attribute 28, 1
   5              		.fpu fpv4-sp-d16
   6              		.eabi_attribute 20, 1
   7              		.eabi_attribute 21, 1
   8              		.eabi_attribute 23, 3
   9              		.eabi_attribute 24, 1
  10              		.eabi_attribute 25, 1
  11              		.eabi_attribute 26, 1
  12              		.eabi_attribute 30, 2
  13              		.eabi_attribute 34, 1
  14              		.eabi_attribute 18, 4
  15              		.thumb
  16              		.file	"chvt.c"
  17              		.text
  18              	.Ltext0:
  19              		.cfi_sections	.debug_frame
  20              		.section	.text._vt_init,"ax",%progbits
  21              		.align	2
  22              		.p2align 4,,15
  23              		.global	_vt_init
  24              		.thumb
  25              		.thumb_func
  26              		.type	_vt_init, %function
  27              	_vt_init:
  28              	.LFB7:
  29              		.file 1 "/home/wicker/tools/ChibiOS_2.6.3/os/kernel/src/chvt.c"
  30              		.loc 1 50 0
  31              		.cfi_startproc
  32              		@ args = 0, pretend = 0, frame = 0
  33              		@ frame_needed = 0, uses_anonymous_args = 0
  34              		@ link register save eliminated.
  35              		.loc 1 52 0
  36 0000 40F20003 		movw	r3, #:lower16:.LANCHOR0
  37 0004 C0F20003 		movt	r3, #:upper16:.LANCHOR0
  38              		.loc 1 53 0
  39 0008 4FF0FF32 		mov	r2, #-1
  40 000c 9A60     		str	r2, [r3, #8]
  41              		.loc 1 54 0
  42 000e 0022     		movs	r2, #0
  43              		.loc 1 52 0
  44 0010 5B60     		str	r3, [r3, #4]
  45 0012 1B60     		str	r3, [r3, #0]
  46              		.loc 1 54 0
  47 0014 DA60     		str	r2, [r3, #12]
  48 0016 7047     		bx	lr
  49              		.cfi_endproc
  50              	.LFE7:
  51              		.size	_vt_init, .-_vt_init
  52 0018 AFF30080 		.section	.text.chVTSetI,"ax",%progbits
  52      AFF30080 
  53              		.align	2
  54              		.p2align 4,,15
  55              		.global	chVTSetI
  56              		.thumb
ARM GAS  /tmp/ccrcEjLd.s 			page 2


  57              		.thumb_func
  58              		.type	chVTSetI, %function
  59              	chVTSetI:
  60              	.LFB8:
  61              		.loc 1 76 0
  62              		.cfi_startproc
  63              		@ args = 0, pretend = 0, frame = 0
  64              		@ frame_needed = 0, uses_anonymous_args = 0
  65              		@ link register save eliminated.
  66              	.LVL0:
  67 0000 70B4     		push	{r4, r5, r6}
  68              	.LCFI0:
  69              		.cfi_def_cfa_offset 12
  70              		.cfi_offset 4, -12
  71              		.cfi_offset 5, -8
  72              		.cfi_offset 6, -4
  73              		.loc 1 85 0
  74 0002 0D4E     		ldr	r6, .L9
  75              		.loc 1 83 0
  76 0004 0361     		str	r3, [r0, #16]
  77              		.loc 1 85 0
  78 0006 3468     		ldr	r4, [r6, #0]
  79              	.LVL1:
  80              		.loc 1 84 0
  81 0008 C260     		str	r2, [r0, #12]
  82              		.loc 1 86 0
  83 000a A568     		ldr	r5, [r4, #8]
  84 000c A942     		cmp	r1, r5
  85 000e 04D9     		bls	.L3
  86              	.L6:
  87              		.loc 1 88 0
  88 0010 2468     		ldr	r4, [r4, #0]
  89              	.LVL2:
  90              		.loc 1 87 0
  91 0012 491B     		subs	r1, r1, r5
  92              	.LVL3:
  93              		.loc 1 86 0
  94 0014 A568     		ldr	r5, [r4, #8]
  95 0016 8D42     		cmp	r5, r1
  96 0018 FAD3     		bcc	.L6
  97              	.L3:
  98              		.loc 1 91 0
  99 001a 6368     		ldr	r3, [r4, #4]
 100              	.LVL4:
 101              		.loc 1 93 0
 102 001c 8160     		str	r1, [r0, #8]
 103              		.loc 1 94 0
 104 001e B442     		cmp	r4, r6
 105              		.loc 1 91 0
 106 0020 4360     		str	r3, [r0, #4]
 107 0022 0460     		str	r4, [r0, #0]
 108              		.loc 1 92 0
 109 0024 1860     		str	r0, [r3, #0]
 110              		.loc 1 95 0
 111 0026 18BF     		it	ne
 112 0028 A368     		ldrne	r3, [r4, #8]
 113              		.loc 1 92 0
ARM GAS  /tmp/ccrcEjLd.s 			page 3


 114 002a 6060     		str	r0, [r4, #4]
 115              		.loc 1 95 0
 116 002c 1CBF     		itt	ne
 117 002e C1EB0301 		rsbne	r1, r1, r3
 118              	.LVL5:
 119 0032 A160     		strne	r1, [r4, #8]
 120              		.loc 1 96 0
 121 0034 70BC     		pop	{r4, r5, r6}
 122 0036 7047     		bx	lr
 123              	.L10:
 124              		.align	2
 125              	.L9:
 126 0038 00000000 		.word	.LANCHOR0
 127              		.cfi_endproc
 128              	.LFE8:
 129              		.size	chVTSetI, .-chVTSetI
 130 003c AFF30080 		.section	.text.chVTResetI,"ax",%progbits
 131              		.align	2
 132              		.p2align 4,,15
 133              		.global	chVTResetI
 134              		.thumb
 135              		.thumb_func
 136              		.type	chVTResetI, %function
 137              	chVTResetI:
 138              	.LFB9:
 139              		.loc 1 106 0
 140              		.cfi_startproc
 141              		@ args = 0, pretend = 0, frame = 0
 142              		@ frame_needed = 0, uses_anonymous_args = 0
 143              		@ link register save eliminated.
 144              	.LVL6:
 145              		.loc 1 114 0
 146 0000 0368     		ldr	r3, [r0, #0]
 147 0002 074A     		ldr	r2, .L13
 148 0004 9342     		cmp	r3, r2
 149              		.loc 1 115 0
 150 0006 1FBF     		itttt	ne
 151 0008 9968     		ldrne	r1, [r3, #8]
 152 000a 8268     		ldrne	r2, [r0, #8]
 153 000c 8A18     		addne	r2, r1, r2
 154 000e 9A60     		strne	r2, [r3, #8]
 155              		.loc 1 116 0
 156 0010 4268     		ldr	r2, [r0, #4]
 157 0012 1360     		str	r3, [r2, #0]
 158              		.loc 1 117 0
 159 0014 0368     		ldr	r3, [r0, #0]
 160 0016 5A60     		str	r2, [r3, #4]
 161              		.loc 1 118 0
 162 0018 0023     		movs	r3, #0
 163 001a C360     		str	r3, [r0, #12]
 164 001c 7047     		bx	lr
 165              	.L14:
 166 001e 00BF     		.align	2
 167              	.L13:
 168 0020 00000000 		.word	.LANCHOR0
 169              		.cfi_endproc
 170              	.LFE9:
ARM GAS  /tmp/ccrcEjLd.s 			page 4


 171              		.size	chVTResetI, .-chVTResetI
 172              		.global	vtlist
 173 0024 AFF30080 		.section	.bss.vtlist,"aw",%nobits
 173      AFF30080 
 173      AFF30080 
 174              		.align	2
 175              		.set	.LANCHOR0,. + 0
 176              		.type	vtlist, %object
 177              		.size	vtlist, 16
 178              	vtlist:
 179 0000 00000000 		.space	16
 179      00000000 
 179      00000000 
 179      00000000 
 180              		.text
 181              	.Letext0:
 182              		.file 2 "/opt/psas/x-tools/stm32f407/arm-psas-eabi/bin/../lib/gcc/arm-psas-eabi/4.7.2/../../../../
 183              		.file 3 "/home/wicker/tools/ChibiOS_2.6.3/os/ports/GCC/ARMCMx/chtypes.h"
 184              		.file 4 "/home/wicker/tools/ChibiOS_2.6.3/os/kernel/include/chvt.h"
 185              		.section	.debug_info,"",%progbits
 186              	.Ldebug_info0:
 187 0000 15020000 		.4byte	0x215
 188 0004 0200     		.2byte	0x2
 189 0006 00000000 		.4byte	.Ldebug_abbrev0
 190 000a 04       		.byte	0x4
 191 000b 01       		.uleb128 0x1
 192 000c D3000000 		.4byte	.LASF27
 193 0010 01       		.byte	0x1
 194 0011 36010000 		.4byte	.LASF28
 195 0015 00000000 		.4byte	.Ldebug_ranges0+0
 196 0019 00000000 		.4byte	0
 197 001d 00000000 		.4byte	0
 198 0021 00000000 		.4byte	.Ldebug_line0
 199 0025 02       		.uleb128 0x2
 200 0026 04       		.byte	0x4
 201 0027 05       		.byte	0x5
 202 0028 696E7400 		.ascii	"int\000"
 203 002c 03       		.uleb128 0x3
 204 002d 04       		.byte	0x4
 205 002e 07       		.byte	0x7
 206 002f 65000000 		.4byte	.LASF0
 207 0033 03       		.uleb128 0x3
 208 0034 01       		.byte	0x1
 209 0035 06       		.byte	0x6
 210 0036 0A010000 		.4byte	.LASF1
 211 003a 03       		.uleb128 0x3
 212 003b 01       		.byte	0x1
 213 003c 08       		.byte	0x8
 214 003d 4E000000 		.4byte	.LASF2
 215 0041 03       		.uleb128 0x3
 216 0042 02       		.byte	0x2
 217 0043 05       		.byte	0x5
 218 0044 E6000000 		.4byte	.LASF3
 219 0048 03       		.uleb128 0x3
 220 0049 02       		.byte	0x2
 221 004a 07       		.byte	0x7
 222 004b 2E000000 		.4byte	.LASF4
ARM GAS  /tmp/ccrcEjLd.s 			page 5


 223 004f 03       		.uleb128 0x3
 224 0050 04       		.byte	0x4
 225 0051 05       		.byte	0x5
 226 0052 01010000 		.4byte	.LASF5
 227 0056 04       		.uleb128 0x4
 228 0057 F8000000 		.4byte	.LASF10
 229 005b 02       		.byte	0x2
 230 005c 50       		.byte	0x50
 231 005d 61000000 		.4byte	0x61
 232 0061 03       		.uleb128 0x3
 233 0062 04       		.byte	0x4
 234 0063 07       		.byte	0x7
 235 0064 1C000000 		.4byte	.LASF6
 236 0068 03       		.uleb128 0x3
 237 0069 08       		.byte	0x8
 238 006a 05       		.byte	0x5
 239 006b B1000000 		.4byte	.LASF7
 240 006f 03       		.uleb128 0x3
 241 0070 08       		.byte	0x8
 242 0071 07       		.byte	0x7
 243 0072 72000000 		.4byte	.LASF8
 244 0076 03       		.uleb128 0x3
 245 0077 01       		.byte	0x1
 246 0078 02       		.byte	0x2
 247 0079 30010000 		.4byte	.LASF9
 248 007d 04       		.uleb128 0x4
 249 007e 09000000 		.4byte	.LASF11
 250 0082 03       		.byte	0x3
 251 0083 35       		.byte	0x35
 252 0084 56000000 		.4byte	0x56
 253 0088 05       		.uleb128 0x5
 254 0089 04       		.byte	0x4
 255 008a 03       		.uleb128 0x3
 256 008b 04       		.byte	0x4
 257 008c 07       		.byte	0x7
 258 008d 9D000000 		.4byte	.LASF12
 259 0091 04       		.uleb128 0x4
 260 0092 13000000 		.4byte	.LASF13
 261 0096 04       		.byte	0x4
 262 0097 58       		.byte	0x58
 263 0098 9C000000 		.4byte	0x9c
 264 009c 06       		.uleb128 0x6
 265 009d 04       		.byte	0x4
 266 009e A2000000 		.4byte	0xa2
 267 00a2 07       		.uleb128 0x7
 268 00a3 01       		.byte	0x1
 269 00a4 AE000000 		.4byte	0xae
 270 00a8 08       		.uleb128 0x8
 271 00a9 88000000 		.4byte	0x88
 272 00ad 00       		.byte	0
 273 00ae 04       		.uleb128 0x4
 274 00af 41000000 		.4byte	.LASF14
 275 00b3 04       		.byte	0x4
 276 00b4 5D       		.byte	0x5d
 277 00b5 B9000000 		.4byte	0xb9
 278 00b9 09       		.uleb128 0x9
 279 00ba 41000000 		.4byte	.LASF14
ARM GAS  /tmp/ccrcEjLd.s 			page 6


 280 00be 14       		.byte	0x14
 281 00bf 04       		.byte	0x4
 282 00c0 64       		.byte	0x64
 283 00c1 0C010000 		.4byte	0x10c
 284 00c5 0A       		.uleb128 0xa
 285 00c6 1D010000 		.4byte	.LASF15
 286 00ca 04       		.byte	0x4
 287 00cb 65       		.byte	0x65
 288 00cc 0C010000 		.4byte	0x10c
 289 00d0 02       		.byte	0x2
 290 00d1 23       		.byte	0x23
 291 00d2 00       		.uleb128 0
 292 00d3 0A       		.uleb128 0xa
 293 00d4 F0000000 		.4byte	.LASF16
 294 00d8 04       		.byte	0x4
 295 00d9 67       		.byte	0x67
 296 00da 0C010000 		.4byte	0x10c
 297 00de 02       		.byte	0x2
 298 00df 23       		.byte	0x23
 299 00e0 04       		.uleb128 0x4
 300 00e1 0A       		.uleb128 0xa
 301 00e2 95000000 		.4byte	.LASF17
 302 00e6 04       		.byte	0x4
 303 00e7 69       		.byte	0x69
 304 00e8 7D000000 		.4byte	0x7d
 305 00ec 02       		.byte	0x2
 306 00ed 23       		.byte	0x23
 307 00ee 08       		.uleb128 0x8
 308 00ef 0A       		.uleb128 0xa
 309 00f0 BF000000 		.4byte	.LASF18
 310 00f4 04       		.byte	0x4
 311 00f5 6A       		.byte	0x6a
 312 00f6 91000000 		.4byte	0x91
 313 00fa 02       		.byte	0x2
 314 00fb 23       		.byte	0x23
 315 00fc 0C       		.uleb128 0xc
 316 00fd 0A       		.uleb128 0xa
 317 00fe DF000000 		.4byte	.LASF19
 318 0102 04       		.byte	0x4
 319 0103 6C       		.byte	0x6c
 320 0104 88000000 		.4byte	0x88
 321 0108 02       		.byte	0x2
 322 0109 23       		.byte	0x23
 323 010a 10       		.uleb128 0x10
 324 010b 00       		.byte	0
 325 010c 06       		.uleb128 0x6
 326 010d 04       		.byte	0x4
 327 010e AE000000 		.4byte	0xae
 328 0112 0B       		.uleb128 0xb
 329 0113 10       		.byte	0x10
 330 0114 04       		.byte	0x4
 331 0115 76       		.byte	0x76
 332 0116 53010000 		.4byte	0x153
 333 011a 0A       		.uleb128 0xa
 334 011b 1D010000 		.4byte	.LASF15
 335 011f 04       		.byte	0x4
 336 0120 77       		.byte	0x77
ARM GAS  /tmp/ccrcEjLd.s 			page 7


 337 0121 0C010000 		.4byte	0x10c
 338 0125 02       		.byte	0x2
 339 0126 23       		.byte	0x23
 340 0127 00       		.uleb128 0
 341 0128 0A       		.uleb128 0xa
 342 0129 F0000000 		.4byte	.LASF16
 343 012d 04       		.byte	0x4
 344 012e 79       		.byte	0x79
 345 012f 0C010000 		.4byte	0x10c
 346 0133 02       		.byte	0x2
 347 0134 23       		.byte	0x23
 348 0135 04       		.uleb128 0x4
 349 0136 0A       		.uleb128 0xa
 350 0137 95000000 		.4byte	.LASF17
 351 013b 04       		.byte	0x4
 352 013c 7B       		.byte	0x7b
 353 013d 7D000000 		.4byte	0x7d
 354 0141 02       		.byte	0x2
 355 0142 23       		.byte	0x23
 356 0143 08       		.uleb128 0x8
 357 0144 0A       		.uleb128 0xa
 358 0145 A6000000 		.4byte	.LASF20
 359 0149 04       		.byte	0x4
 360 014a 7C       		.byte	0x7c
 361 014b 53010000 		.4byte	0x153
 362 014f 02       		.byte	0x2
 363 0150 23       		.byte	0x23
 364 0151 0C       		.uleb128 0xc
 365 0152 00       		.byte	0
 366 0153 0C       		.uleb128 0xc
 367 0154 7D000000 		.4byte	0x7d
 368 0158 04       		.uleb128 0x4
 369 0159 16010000 		.4byte	.LASF21
 370 015d 04       		.byte	0x4
 371 015e 7D       		.byte	0x7d
 372 015f 12010000 		.4byte	0x112
 373 0163 03       		.uleb128 0x3
 374 0164 01       		.byte	0x1
 375 0165 08       		.byte	0x8
 376 0166 CE000000 		.4byte	.LASF22
 377 016a 0D       		.uleb128 0xd
 378 016b 01       		.byte	0x1
 379 016c 5C000000 		.4byte	.LASF29
 380 0170 01       		.byte	0x1
 381 0171 32       		.byte	0x32
 382 0172 01       		.byte	0x1
 383 0173 00000000 		.4byte	.LFB7
 384 0177 18000000 		.4byte	.LFE7
 385 017b 02       		.byte	0x2
 386 017c 7D       		.byte	0x7d
 387 017d 00       		.sleb128 0
 388 017e 01       		.byte	0x1
 389 017f 0E       		.uleb128 0xe
 390 0180 01       		.byte	0x1
 391 0181 00000000 		.4byte	.LASF25
 392 0185 01       		.byte	0x1
 393 0186 4C       		.byte	0x4c
ARM GAS  /tmp/ccrcEjLd.s 			page 8


 394 0187 01       		.byte	0x1
 395 0188 00000000 		.4byte	.LFB8
 396 018c 3C000000 		.4byte	.LFE8
 397 0190 00000000 		.4byte	.LLST0
 398 0194 01       		.byte	0x1
 399 0195 DF010000 		.4byte	0x1df
 400 0199 0F       		.uleb128 0xf
 401 019a 76747000 		.ascii	"vtp\000"
 402 019e 01       		.byte	0x1
 403 019f 4C       		.byte	0x4c
 404 01a0 0C010000 		.4byte	0x10c
 405 01a4 01       		.byte	0x1
 406 01a5 50       		.byte	0x50
 407 01a6 10       		.uleb128 0x10
 408 01a7 90000000 		.4byte	.LASF23
 409 01ab 01       		.byte	0x1
 410 01ac 4C       		.byte	0x4c
 411 01ad 7D000000 		.4byte	0x7d
 412 01b1 20000000 		.4byte	.LLST1
 413 01b5 11       		.uleb128 0x11
 414 01b6 C7000000 		.4byte	.LASF24
 415 01ba 01       		.byte	0x1
 416 01bb 4C       		.byte	0x4c
 417 01bc 91000000 		.4byte	0x91
 418 01c0 01       		.byte	0x1
 419 01c1 52       		.byte	0x52
 420 01c2 12       		.uleb128 0x12
 421 01c3 70617200 		.ascii	"par\000"
 422 01c7 01       		.byte	0x1
 423 01c8 4C       		.byte	0x4c
 424 01c9 88000000 		.4byte	0x88
 425 01cd 4D000000 		.4byte	.LLST2
 426 01d1 13       		.uleb128 0x13
 427 01d2 7000     		.ascii	"p\000"
 428 01d4 01       		.byte	0x1
 429 01d5 4D       		.byte	0x4d
 430 01d6 0C010000 		.4byte	0x10c
 431 01da 6C000000 		.4byte	.LLST3
 432 01de 00       		.byte	0
 433 01df 14       		.uleb128 0x14
 434 01e0 01       		.byte	0x1
 435 01e1 25010000 		.4byte	.LASF26
 436 01e5 01       		.byte	0x1
 437 01e6 6A       		.byte	0x6a
 438 01e7 01       		.byte	0x1
 439 01e8 00000000 		.4byte	.LFB9
 440 01ec 24000000 		.4byte	.LFE9
 441 01f0 02       		.byte	0x2
 442 01f1 7D       		.byte	0x7d
 443 01f2 00       		.sleb128 0
 444 01f3 01       		.byte	0x1
 445 01f4 06020000 		.4byte	0x206
 446 01f8 0F       		.uleb128 0xf
 447 01f9 76747000 		.ascii	"vtp\000"
 448 01fd 01       		.byte	0x1
 449 01fe 6A       		.byte	0x6a
 450 01ff 0C010000 		.4byte	0x10c
ARM GAS  /tmp/ccrcEjLd.s 			page 9


 451 0203 01       		.byte	0x1
 452 0204 50       		.byte	0x50
 453 0205 00       		.byte	0
 454 0206 15       		.uleb128 0x15
 455 0207 89000000 		.4byte	.LASF30
 456 020b 01       		.byte	0x1
 457 020c 2A       		.byte	0x2a
 458 020d 58010000 		.4byte	0x158
 459 0211 01       		.byte	0x1
 460 0212 05       		.byte	0x5
 461 0213 03       		.byte	0x3
 462 0214 00000000 		.4byte	vtlist
 463 0218 00       		.byte	0
 464              		.section	.debug_abbrev,"",%progbits
 465              	.Ldebug_abbrev0:
 466 0000 01       		.uleb128 0x1
 467 0001 11       		.uleb128 0x11
 468 0002 01       		.byte	0x1
 469 0003 25       		.uleb128 0x25
 470 0004 0E       		.uleb128 0xe
 471 0005 13       		.uleb128 0x13
 472 0006 0B       		.uleb128 0xb
 473 0007 03       		.uleb128 0x3
 474 0008 0E       		.uleb128 0xe
 475 0009 55       		.uleb128 0x55
 476 000a 06       		.uleb128 0x6
 477 000b 11       		.uleb128 0x11
 478 000c 01       		.uleb128 0x1
 479 000d 52       		.uleb128 0x52
 480 000e 01       		.uleb128 0x1
 481 000f 10       		.uleb128 0x10
 482 0010 06       		.uleb128 0x6
 483 0011 00       		.byte	0
 484 0012 00       		.byte	0
 485 0013 02       		.uleb128 0x2
 486 0014 24       		.uleb128 0x24
 487 0015 00       		.byte	0
 488 0016 0B       		.uleb128 0xb
 489 0017 0B       		.uleb128 0xb
 490 0018 3E       		.uleb128 0x3e
 491 0019 0B       		.uleb128 0xb
 492 001a 03       		.uleb128 0x3
 493 001b 08       		.uleb128 0x8
 494 001c 00       		.byte	0
 495 001d 00       		.byte	0
 496 001e 03       		.uleb128 0x3
 497 001f 24       		.uleb128 0x24
 498 0020 00       		.byte	0
 499 0021 0B       		.uleb128 0xb
 500 0022 0B       		.uleb128 0xb
 501 0023 3E       		.uleb128 0x3e
 502 0024 0B       		.uleb128 0xb
 503 0025 03       		.uleb128 0x3
 504 0026 0E       		.uleb128 0xe
 505 0027 00       		.byte	0
 506 0028 00       		.byte	0
 507 0029 04       		.uleb128 0x4
ARM GAS  /tmp/ccrcEjLd.s 			page 10


 508 002a 16       		.uleb128 0x16
 509 002b 00       		.byte	0
 510 002c 03       		.uleb128 0x3
 511 002d 0E       		.uleb128 0xe
 512 002e 3A       		.uleb128 0x3a
 513 002f 0B       		.uleb128 0xb
 514 0030 3B       		.uleb128 0x3b
 515 0031 0B       		.uleb128 0xb
 516 0032 49       		.uleb128 0x49
 517 0033 13       		.uleb128 0x13
 518 0034 00       		.byte	0
 519 0035 00       		.byte	0
 520 0036 05       		.uleb128 0x5
 521 0037 0F       		.uleb128 0xf
 522 0038 00       		.byte	0
 523 0039 0B       		.uleb128 0xb
 524 003a 0B       		.uleb128 0xb
 525 003b 00       		.byte	0
 526 003c 00       		.byte	0
 527 003d 06       		.uleb128 0x6
 528 003e 0F       		.uleb128 0xf
 529 003f 00       		.byte	0
 530 0040 0B       		.uleb128 0xb
 531 0041 0B       		.uleb128 0xb
 532 0042 49       		.uleb128 0x49
 533 0043 13       		.uleb128 0x13
 534 0044 00       		.byte	0
 535 0045 00       		.byte	0
 536 0046 07       		.uleb128 0x7
 537 0047 15       		.uleb128 0x15
 538 0048 01       		.byte	0x1
 539 0049 27       		.uleb128 0x27
 540 004a 0C       		.uleb128 0xc
 541 004b 01       		.uleb128 0x1
 542 004c 13       		.uleb128 0x13
 543 004d 00       		.byte	0
 544 004e 00       		.byte	0
 545 004f 08       		.uleb128 0x8
 546 0050 05       		.uleb128 0x5
 547 0051 00       		.byte	0
 548 0052 49       		.uleb128 0x49
 549 0053 13       		.uleb128 0x13
 550 0054 00       		.byte	0
 551 0055 00       		.byte	0
 552 0056 09       		.uleb128 0x9
 553 0057 13       		.uleb128 0x13
 554 0058 01       		.byte	0x1
 555 0059 03       		.uleb128 0x3
 556 005a 0E       		.uleb128 0xe
 557 005b 0B       		.uleb128 0xb
 558 005c 0B       		.uleb128 0xb
 559 005d 3A       		.uleb128 0x3a
 560 005e 0B       		.uleb128 0xb
 561 005f 3B       		.uleb128 0x3b
 562 0060 0B       		.uleb128 0xb
 563 0061 01       		.uleb128 0x1
 564 0062 13       		.uleb128 0x13
ARM GAS  /tmp/ccrcEjLd.s 			page 11


 565 0063 00       		.byte	0
 566 0064 00       		.byte	0
 567 0065 0A       		.uleb128 0xa
 568 0066 0D       		.uleb128 0xd
 569 0067 00       		.byte	0
 570 0068 03       		.uleb128 0x3
 571 0069 0E       		.uleb128 0xe
 572 006a 3A       		.uleb128 0x3a
 573 006b 0B       		.uleb128 0xb
 574 006c 3B       		.uleb128 0x3b
 575 006d 0B       		.uleb128 0xb
 576 006e 49       		.uleb128 0x49
 577 006f 13       		.uleb128 0x13
 578 0070 38       		.uleb128 0x38
 579 0071 0A       		.uleb128 0xa
 580 0072 00       		.byte	0
 581 0073 00       		.byte	0
 582 0074 0B       		.uleb128 0xb
 583 0075 13       		.uleb128 0x13
 584 0076 01       		.byte	0x1
 585 0077 0B       		.uleb128 0xb
 586 0078 0B       		.uleb128 0xb
 587 0079 3A       		.uleb128 0x3a
 588 007a 0B       		.uleb128 0xb
 589 007b 3B       		.uleb128 0x3b
 590 007c 0B       		.uleb128 0xb
 591 007d 01       		.uleb128 0x1
 592 007e 13       		.uleb128 0x13
 593 007f 00       		.byte	0
 594 0080 00       		.byte	0
 595 0081 0C       		.uleb128 0xc
 596 0082 35       		.uleb128 0x35
 597 0083 00       		.byte	0
 598 0084 49       		.uleb128 0x49
 599 0085 13       		.uleb128 0x13
 600 0086 00       		.byte	0
 601 0087 00       		.byte	0
 602 0088 0D       		.uleb128 0xd
 603 0089 2E       		.uleb128 0x2e
 604 008a 00       		.byte	0
 605 008b 3F       		.uleb128 0x3f
 606 008c 0C       		.uleb128 0xc
 607 008d 03       		.uleb128 0x3
 608 008e 0E       		.uleb128 0xe
 609 008f 3A       		.uleb128 0x3a
 610 0090 0B       		.uleb128 0xb
 611 0091 3B       		.uleb128 0x3b
 612 0092 0B       		.uleb128 0xb
 613 0093 27       		.uleb128 0x27
 614 0094 0C       		.uleb128 0xc
 615 0095 11       		.uleb128 0x11
 616 0096 01       		.uleb128 0x1
 617 0097 12       		.uleb128 0x12
 618 0098 01       		.uleb128 0x1
 619 0099 40       		.uleb128 0x40
 620 009a 0A       		.uleb128 0xa
 621 009b 9742     		.uleb128 0x2117
ARM GAS  /tmp/ccrcEjLd.s 			page 12


 622 009d 0C       		.uleb128 0xc
 623 009e 00       		.byte	0
 624 009f 00       		.byte	0
 625 00a0 0E       		.uleb128 0xe
 626 00a1 2E       		.uleb128 0x2e
 627 00a2 01       		.byte	0x1
 628 00a3 3F       		.uleb128 0x3f
 629 00a4 0C       		.uleb128 0xc
 630 00a5 03       		.uleb128 0x3
 631 00a6 0E       		.uleb128 0xe
 632 00a7 3A       		.uleb128 0x3a
 633 00a8 0B       		.uleb128 0xb
 634 00a9 3B       		.uleb128 0x3b
 635 00aa 0B       		.uleb128 0xb
 636 00ab 27       		.uleb128 0x27
 637 00ac 0C       		.uleb128 0xc
 638 00ad 11       		.uleb128 0x11
 639 00ae 01       		.uleb128 0x1
 640 00af 12       		.uleb128 0x12
 641 00b0 01       		.uleb128 0x1
 642 00b1 40       		.uleb128 0x40
 643 00b2 06       		.uleb128 0x6
 644 00b3 9742     		.uleb128 0x2117
 645 00b5 0C       		.uleb128 0xc
 646 00b6 01       		.uleb128 0x1
 647 00b7 13       		.uleb128 0x13
 648 00b8 00       		.byte	0
 649 00b9 00       		.byte	0
 650 00ba 0F       		.uleb128 0xf
 651 00bb 05       		.uleb128 0x5
 652 00bc 00       		.byte	0
 653 00bd 03       		.uleb128 0x3
 654 00be 08       		.uleb128 0x8
 655 00bf 3A       		.uleb128 0x3a
 656 00c0 0B       		.uleb128 0xb
 657 00c1 3B       		.uleb128 0x3b
 658 00c2 0B       		.uleb128 0xb
 659 00c3 49       		.uleb128 0x49
 660 00c4 13       		.uleb128 0x13
 661 00c5 02       		.uleb128 0x2
 662 00c6 0A       		.uleb128 0xa
 663 00c7 00       		.byte	0
 664 00c8 00       		.byte	0
 665 00c9 10       		.uleb128 0x10
 666 00ca 05       		.uleb128 0x5
 667 00cb 00       		.byte	0
 668 00cc 03       		.uleb128 0x3
 669 00cd 0E       		.uleb128 0xe
 670 00ce 3A       		.uleb128 0x3a
 671 00cf 0B       		.uleb128 0xb
 672 00d0 3B       		.uleb128 0x3b
 673 00d1 0B       		.uleb128 0xb
 674 00d2 49       		.uleb128 0x49
 675 00d3 13       		.uleb128 0x13
 676 00d4 02       		.uleb128 0x2
 677 00d5 06       		.uleb128 0x6
 678 00d6 00       		.byte	0
ARM GAS  /tmp/ccrcEjLd.s 			page 13


 679 00d7 00       		.byte	0
 680 00d8 11       		.uleb128 0x11
 681 00d9 05       		.uleb128 0x5
 682 00da 00       		.byte	0
 683 00db 03       		.uleb128 0x3
 684 00dc 0E       		.uleb128 0xe
 685 00dd 3A       		.uleb128 0x3a
 686 00de 0B       		.uleb128 0xb
 687 00df 3B       		.uleb128 0x3b
 688 00e0 0B       		.uleb128 0xb
 689 00e1 49       		.uleb128 0x49
 690 00e2 13       		.uleb128 0x13
 691 00e3 02       		.uleb128 0x2
 692 00e4 0A       		.uleb128 0xa
 693 00e5 00       		.byte	0
 694 00e6 00       		.byte	0
 695 00e7 12       		.uleb128 0x12
 696 00e8 05       		.uleb128 0x5
 697 00e9 00       		.byte	0
 698 00ea 03       		.uleb128 0x3
 699 00eb 08       		.uleb128 0x8
 700 00ec 3A       		.uleb128 0x3a
 701 00ed 0B       		.uleb128 0xb
 702 00ee 3B       		.uleb128 0x3b
 703 00ef 0B       		.uleb128 0xb
 704 00f0 49       		.uleb128 0x49
 705 00f1 13       		.uleb128 0x13
 706 00f2 02       		.uleb128 0x2
 707 00f3 06       		.uleb128 0x6
 708 00f4 00       		.byte	0
 709 00f5 00       		.byte	0
 710 00f6 13       		.uleb128 0x13
 711 00f7 34       		.uleb128 0x34
 712 00f8 00       		.byte	0
 713 00f9 03       		.uleb128 0x3
 714 00fa 08       		.uleb128 0x8
 715 00fb 3A       		.uleb128 0x3a
 716 00fc 0B       		.uleb128 0xb
 717 00fd 3B       		.uleb128 0x3b
 718 00fe 0B       		.uleb128 0xb
 719 00ff 49       		.uleb128 0x49
 720 0100 13       		.uleb128 0x13
 721 0101 02       		.uleb128 0x2
 722 0102 06       		.uleb128 0x6
 723 0103 00       		.byte	0
 724 0104 00       		.byte	0
 725 0105 14       		.uleb128 0x14
 726 0106 2E       		.uleb128 0x2e
 727 0107 01       		.byte	0x1
 728 0108 3F       		.uleb128 0x3f
 729 0109 0C       		.uleb128 0xc
 730 010a 03       		.uleb128 0x3
 731 010b 0E       		.uleb128 0xe
 732 010c 3A       		.uleb128 0x3a
 733 010d 0B       		.uleb128 0xb
 734 010e 3B       		.uleb128 0x3b
 735 010f 0B       		.uleb128 0xb
ARM GAS  /tmp/ccrcEjLd.s 			page 14


 736 0110 27       		.uleb128 0x27
 737 0111 0C       		.uleb128 0xc
 738 0112 11       		.uleb128 0x11
 739 0113 01       		.uleb128 0x1
 740 0114 12       		.uleb128 0x12
 741 0115 01       		.uleb128 0x1
 742 0116 40       		.uleb128 0x40
 743 0117 0A       		.uleb128 0xa
 744 0118 9742     		.uleb128 0x2117
 745 011a 0C       		.uleb128 0xc
 746 011b 01       		.uleb128 0x1
 747 011c 13       		.uleb128 0x13
 748 011d 00       		.byte	0
 749 011e 00       		.byte	0
 750 011f 15       		.uleb128 0x15
 751 0120 34       		.uleb128 0x34
 752 0121 00       		.byte	0
 753 0122 03       		.uleb128 0x3
 754 0123 0E       		.uleb128 0xe
 755 0124 3A       		.uleb128 0x3a
 756 0125 0B       		.uleb128 0xb
 757 0126 3B       		.uleb128 0x3b
 758 0127 0B       		.uleb128 0xb
 759 0128 49       		.uleb128 0x49
 760 0129 13       		.uleb128 0x13
 761 012a 3F       		.uleb128 0x3f
 762 012b 0C       		.uleb128 0xc
 763 012c 02       		.uleb128 0x2
 764 012d 0A       		.uleb128 0xa
 765 012e 00       		.byte	0
 766 012f 00       		.byte	0
 767 0130 00       		.byte	0
 768              		.section	.debug_loc,"",%progbits
 769              	.Ldebug_loc0:
 770              	.LLST0:
 771 0000 00000000 		.4byte	.LFB8
 772 0004 02000000 		.4byte	.LCFI0
 773 0008 0200     		.2byte	0x2
 774 000a 7D       		.byte	0x7d
 775 000b 00       		.sleb128 0
 776 000c 02000000 		.4byte	.LCFI0
 777 0010 3C000000 		.4byte	.LFE8
 778 0014 0200     		.2byte	0x2
 779 0016 7D       		.byte	0x7d
 780 0017 0C       		.sleb128 12
 781 0018 00000000 		.4byte	0
 782 001c 00000000 		.4byte	0
 783              	.LLST1:
 784 0020 00000000 		.4byte	.LVL0
 785 0024 14000000 		.4byte	.LVL3
 786 0028 0100     		.2byte	0x1
 787 002a 51       		.byte	0x51
 788 002b 14000000 		.4byte	.LVL3
 789 002f 32000000 		.4byte	.LVL5
 790 0033 0100     		.2byte	0x1
 791 0035 51       		.byte	0x51
 792 0036 32000000 		.4byte	.LVL5
ARM GAS  /tmp/ccrcEjLd.s 			page 15


 793 003a 3C000000 		.4byte	.LFE8
 794 003e 0500     		.2byte	0x5
 795 0040 74       		.byte	0x74
 796 0041 04       		.sleb128 4
 797 0042 06       		.byte	0x6
 798 0043 23       		.byte	0x23
 799 0044 08       		.uleb128 0x8
 800 0045 00000000 		.4byte	0
 801 0049 00000000 		.4byte	0
 802              	.LLST2:
 803 004d 00000000 		.4byte	.LVL0
 804 0051 1C000000 		.4byte	.LVL4
 805 0055 0100     		.2byte	0x1
 806 0057 53       		.byte	0x53
 807 0058 1C000000 		.4byte	.LVL4
 808 005c 3C000000 		.4byte	.LFE8
 809 0060 0200     		.2byte	0x2
 810 0062 70       		.byte	0x70
 811 0063 10       		.sleb128 16
 812 0064 00000000 		.4byte	0
 813 0068 00000000 		.4byte	0
 814              	.LLST3:
 815 006c 08000000 		.4byte	.LVL1
 816 0070 12000000 		.4byte	.LVL2
 817 0074 0100     		.2byte	0x1
 818 0076 54       		.byte	0x54
 819 0077 14000000 		.4byte	.LVL3
 820 007b 3C000000 		.4byte	.LFE8
 821 007f 0100     		.2byte	0x1
 822 0081 54       		.byte	0x54
 823 0082 00000000 		.4byte	0
 824 0086 00000000 		.4byte	0
 825              		.section	.debug_aranges,"",%progbits
 826 0000 2C000000 		.4byte	0x2c
 827 0004 0200     		.2byte	0x2
 828 0006 00000000 		.4byte	.Ldebug_info0
 829 000a 04       		.byte	0x4
 830 000b 00       		.byte	0
 831 000c 0000     		.2byte	0
 832 000e 0000     		.2byte	0
 833 0010 00000000 		.4byte	.LFB7
 834 0014 18000000 		.4byte	.LFE7-.LFB7
 835 0018 00000000 		.4byte	.LFB8
 836 001c 3C000000 		.4byte	.LFE8-.LFB8
 837 0020 00000000 		.4byte	.LFB9
 838 0024 24000000 		.4byte	.LFE9-.LFB9
 839 0028 00000000 		.4byte	0
 840 002c 00000000 		.4byte	0
 841              		.section	.debug_ranges,"",%progbits
 842              	.Ldebug_ranges0:
 843 0000 00000000 		.4byte	.LFB7
 844 0004 18000000 		.4byte	.LFE7
 845 0008 00000000 		.4byte	.LFB8
 846 000c 3C000000 		.4byte	.LFE8
 847 0010 00000000 		.4byte	.LFB9
 848 0014 24000000 		.4byte	.LFE9
 849 0018 00000000 		.4byte	0
ARM GAS  /tmp/ccrcEjLd.s 			page 16


 850 001c 00000000 		.4byte	0
 851              		.section	.debug_line,"",%progbits
 852              	.Ldebug_line0:
 853 0000 98010000 		.section	.debug_str,"MS",%progbits,1
 853      02004601 
 853      00000201 
 853      FB0E0D00 
 853      01010101 
 854              	.LASF25:
 855 0000 63685654 		.ascii	"chVTSetI\000"
 855      53657449 
 855      00
 856              	.LASF11:
 857 0009 73797374 		.ascii	"systime_t\000"
 857      696D655F 
 857      7400
 858              	.LASF13:
 859 0013 76746675 		.ascii	"vtfunc_t\000"
 859      6E635F74 
 859      00
 860              	.LASF6:
 861 001c 6C6F6E67 		.ascii	"long unsigned int\000"
 861      20756E73 
 861      69676E65 
 861      6420696E 
 861      7400
 862              	.LASF4:
 863 002e 73686F72 		.ascii	"short unsigned int\000"
 863      7420756E 
 863      7369676E 
 863      65642069 
 863      6E7400
 864              	.LASF14:
 865 0041 56697274 		.ascii	"VirtualTimer\000"
 865      75616C54 
 865      696D6572 
 865      00
 866              	.LASF2:
 867 004e 756E7369 		.ascii	"unsigned char\000"
 867      676E6564 
 867      20636861 
 867      7200
 868              	.LASF29:
 869 005c 5F76745F 		.ascii	"_vt_init\000"
 869      696E6974 
 869      00
 870              	.LASF0:
 871 0065 756E7369 		.ascii	"unsigned int\000"
 871      676E6564 
 871      20696E74 
 871      00
 872              	.LASF8:
 873 0072 6C6F6E67 		.ascii	"long long unsigned int\000"
 873      206C6F6E 
 873      6720756E 
 873      7369676E 
 873      65642069 
ARM GAS  /tmp/ccrcEjLd.s 			page 17


 874              	.LASF30:
 875 0089 76746C69 		.ascii	"vtlist\000"
 875      737400
 876              	.LASF23:
 877 0090 74696D65 		.ascii	"time\000"
 877      00
 878              	.LASF17:
 879 0095 76745F74 		.ascii	"vt_time\000"
 879      696D6500 
 880              	.LASF12:
 881 009d 73697A65 		.ascii	"sizetype\000"
 881      74797065 
 881      00
 882              	.LASF20:
 883 00a6 76745F73 		.ascii	"vt_systime\000"
 883      79737469 
 883      6D6500
 884              	.LASF7:
 885 00b1 6C6F6E67 		.ascii	"long long int\000"
 885      206C6F6E 
 885      6720696E 
 885      7400
 886              	.LASF18:
 887 00bf 76745F66 		.ascii	"vt_func\000"
 887      756E6300 
 888              	.LASF24:
 889 00c7 76746675 		.ascii	"vtfunc\000"
 889      6E6300
 890              	.LASF22:
 891 00ce 63686172 		.ascii	"char\000"
 891      00
 892              	.LASF27:
 893 00d3 474E5520 		.ascii	"GNU C 4.7.2\000"
 893      4320342E 
 893      372E3200 
 894              	.LASF19:
 895 00df 76745F70 		.ascii	"vt_par\000"
 895      617200
 896              	.LASF3:
 897 00e6 73686F72 		.ascii	"short int\000"
 897      7420696E 
 897      7400
 898              	.LASF16:
 899 00f0 76745F70 		.ascii	"vt_prev\000"
 899      72657600 
 900              	.LASF10:
 901 00f8 75696E74 		.ascii	"uint32_t\000"
 901      33325F74 
 901      00
 902              	.LASF5:
 903 0101 6C6F6E67 		.ascii	"long int\000"
 903      20696E74 
 903      00
 904              	.LASF1:
 905 010a 7369676E 		.ascii	"signed char\000"
 905      65642063 
 905      68617200 
ARM GAS  /tmp/ccrcEjLd.s 			page 18


 906              	.LASF21:
 907 0116 56544C69 		.ascii	"VTList\000"
 907      737400
 908              	.LASF15:
 909 011d 76745F6E 		.ascii	"vt_next\000"
 909      65787400 
 910              	.LASF26:
 911 0125 63685654 		.ascii	"chVTResetI\000"
 911      52657365 
 911      744900
 912              	.LASF9:
 913 0130 5F426F6F 		.ascii	"_Bool\000"
 913      6C00
 914              	.LASF28:
 915 0136 2F686F6D 		.ascii	"/home/wicker/tools/ChibiOS_2.6.3/os/kernel/src/chvt"
 915      652F7769 
 915      636B6572 
 915      2F746F6F 
 915      6C732F43 
 916 0169 2E6300   		.ascii	".c\000"
 917              		.ident	"GCC: (crosstool-NG 1.17.0 - PSAS ST32F4 GFE) 4.7.2"
ARM GAS  /tmp/ccrcEjLd.s 			page 19


DEFINED SYMBOLS
                            *ABS*:0000000000000000 chvt.c
     /tmp/ccrcEjLd.s:21     .text._vt_init:0000000000000000 $t
     /tmp/ccrcEjLd.s:27     .text._vt_init:0000000000000000 _vt_init
     /tmp/ccrcEjLd.s:175    .bss.vtlist:0000000000000000 .LANCHOR0
     /tmp/ccrcEjLd.s:53     .text.chVTSetI:0000000000000000 $t
     /tmp/ccrcEjLd.s:59     .text.chVTSetI:0000000000000000 chVTSetI
     /tmp/ccrcEjLd.s:126    .text.chVTSetI:0000000000000038 $d
     /tmp/ccrcEjLd.s:131    .text.chVTResetI:0000000000000000 $t
     /tmp/ccrcEjLd.s:137    .text.chVTResetI:0000000000000000 chVTResetI
     /tmp/ccrcEjLd.s:168    .text.chVTResetI:0000000000000020 $d
     /tmp/ccrcEjLd.s:178    .bss.vtlist:0000000000000000 vtlist
     /tmp/ccrcEjLd.s:174    .bss.vtlist:0000000000000000 $d
                     .debug_frame:0000000000000010 $d
     /tmp/ccrcEjLd.s:130    .text.chVTSetI:000000000000003c $t
     /tmp/ccrcEjLd.s:173    .text.chVTResetI:0000000000000024 $t

NO UNDEFINED SYMBOLS
