ARM GAS  /tmp/ccrcEjLd.s 			page 1


   1              		.syntax unified
   2              		.cpu cortex-m4
   3              		.eabi_attribute 27, 3
   4              		.eabi_attribute 28, 1
   5              		.fpu fpv4-sp-d16
   6              		.eabi_attribute 20, 1
   7              		.eabi_attribute 21, 1
   8              		.eabi_attribute 23, 3
   9              		.eabi_attribute 24, 1
  10              		.eabi_attribute 25, 1
  11              		.eabi_attribute 26, 1
  12              		.eabi_attribute 30, 2
  13              		.eabi_attribute 34, 1
  14              		.eabi_attribute 18, 4
  15              		.thumb
  16              		.file	"chvt.c"
  17              		.text
  18              	.Ltext0:
  19              		.cfi_sections	.debug_frame
  20              		.section	.text._vt_init,"ax",%progbits
  21              		.align	2
  22              		.p2align 4,,15
  23              		.global	_vt_init
  24              		.thumb
  25              		.thumb_func
  26              		.type	_vt_init, %function
  27              	_vt_init:
  28              	.LFB7:
  29              		.file 1 "/home/wicker/tools/ChibiOS_2.6.3/os/kernel/src/chvt.c"
  30              		.loc 1 50 0
  31              		.cfi_startproc
  32              		@ args = 0, pretend = 0, frame = 0
  33              		@ frame_needed = 0, uses_anonymous_args = 0
  34              		@ link register save eliminated.
  35              		.loc 1 52 0
  36 0000 40F20003 		movw	r3, #:lower16:.LANCHOR0
  37 0004 C0F20003 		movt	r3, #:upper16:.LANCHOR0
  38              		.loc 1 53 0
  39 0008 4FF0FF32 		mov	r2, #-1
  40 000c 9A60     		str	r2, [r3, #8]
  41              		.loc 1 54 0
  42 000e 0022     		movs	r2, #0
  43              		.loc 1 52 0
  44 0010 5B60     		str	r3, [r3, #4]
  45 0012 1B60     		str	r3, [r3, #0]
  46              		.loc 1 54 0
  47 0014 DA60     		str	r2, [r3, #12]
  48 0016 7047     		bx	lr
  49              		.cfi_endproc
  50              	.LFE7:
  51              		.size	_vt_init, .-_vt_init
  52 0018 AFF30080 		.section	.text.chVTSetI,"ax",%progbits
  52      AFF30080 
  53              		.align	2
  54              		.p2align 4,,15
  55              		.global	chVTSetI
  56              		.thumb
ARM GAS  /tmp/ccrcEjLd.s 			page 2


  57              		.thumb_func
  58              		.type	chVTSetI, %function
  59              	chVTSetI:
  60              	.LFB8:
  61              		.loc 1 76 0
  62              		.cfi_startproc
  63              		@ args = 0, pretend = 0, frame = 0
  64              		@ frame_needed = 0, uses_anonymous_args = 0
  65              		@ link register save eliminated.
  66              	.LVL0:
  67 0000 70B4     		push	{r4, r5, r6}
  68              	.LCFI0:
  69              		.cfi_def_cfa_offset 12
  70              		.cfi_offset 4, -12
  71              		.cfi_offset 5, -8
  72              		.cfi_offset 6, -4
  73              		.loc 1 85 0
  74 0002 0D4E     		ldr	r6, .L9
  75              		.loc 1 83 0
  76 0004 0361     		str	r3, [r0, #16]
  77              		.loc 1 85 0
  78 0006 3468     		ldr	r4, [r6, #0]
  79              	.LVL1:
  80              		.loc 1 84 0
  81 0008 C260     		str	r2, [r0, #12]
  82              		.loc 1 86 0
  83 000a A568     		ldr	r5, [r4, #8]
  84 000c A942     		cmp	r1, r5
  85 000e 04D9     		bls	.L3
  86              	.L6:
  87              		.loc 1 88 0
  88 0010 2468     		ldr	r4, [r4, #0]
  89              	.LVL2:
  90              		.loc 1 87 0
  91 0012 491B     		subs	r1, r1, r5
  92              	.LVL3:
  93              		.loc 1 86 0
  94 0014 A568     		ldr	r5, [r4, #8]
  95 0016 8D42     		cmp	r5, r1
  96 0018 FAD3     		bcc	.L6
  97              	.L3:
  98              		.loc 1 91 0
  99 001a 6368     		ldr	r3, [r4, #4]
 100              	.LVL4:
 101              		.loc 1 93 0
 102 001c 8160     		str	r1, [r0, #8]
 103              		.loc 1 94 0
 104 001e B442     		cmp	r4, r6
 105              		.loc 1 91 0
 106 0020 4360     		str	r3, [r0, #4]
 107 0022 0460     		str	r4, [r0, #0]
 108              		.loc 1 92 0
 109 0024 1860     		str	r0, [r3, #0]
 110              		.loc 1 95 0
 111 0026 18BF     		it	ne
 112 0028 A368     		ldrne	r3, [r4, #8]
 113              		.loc 1 92 0
ARM GAS  /tmp/ccrcEjLd.s 			page 3


 114 002a 6060     		str	r0, [r4, #4]
 115              		.loc 1 95 0
 116 002c 1CBF     		itt	ne
 117 002e C1EB0301 		rsbne	r1, r1, r3
 118              	.LVL5:
 119 0032 A160     		strne	r1, [r4, #8]
 120              		.loc 1 96 0
 121 0034 70BC     		pop	{r4, r5, r6}
 122 0036 7047     		bx	lr
 123              	.L10:
 124              		.align	2
 125              	.L9:
 126 0038 00000000 		.word	.LANCHOR0
 127              		.cfi_endproc
 128              	.LFE8:
 129              		.size	chVTSetI, .-chVTSetI
 130 003c AFF30080 		.section	.text.chVTResetI,"ax",%progbits
 131              		.align	2
 132              		.p2align 4,,15
 133              		.global	chVTResetI
 134              		.thumb
 135              		.thumb_func
 136              		.type	chVTResetI, %function
 137              	chVTResetI:
 138              	.LFB9:
 139              		.loc 1 106 0
 140              		.cfi_startproc
 141              		@ args = 0, pretend = 0, frame = 0
 142              		@ frame_needed = 0, uses_anonymous_args = 0
 143              		@ link register save eliminated.
 144              	.LVL6:
 145              		.loc 1 114 0
 146 0000 0368     		ldr	r3, [r0, #0]
 147 0002 074A     		ldr	r2, .L13
 148 0004 9342     		cmp	r3, r2
 149              		.loc 1 115 0
 150 0006 1FBF     		itttt	ne
 151 0008 9968     		ldrne	r1, [r3, #8]
 152 000a 8268     		ldrne	r2, [r0, #8]
 153 000c 8A18     		addne	r2, r1, r2
 154 000e 9A60     		strne	r2, [r3, #8]
 155              		.loc 1 116 0
 156 0010 4268     		ldr	r2, [r0, #4]
 157 0012 1360     		str	r3, [r2, #0]
 158              		.loc 1 117 0
 159 0014 0368     		ldr	r3, [r0, #0]
 160 0016 5A60     		str	r2, [r3, #4]
 161              		.loc 1 118 0
 162 0018 0023     		movs	r3, #0
 163 001a C360     		str	r3, [r0, #12]
 164 001c 7047     		bx	lr
 165              	.L14:
 166 001e 00BF     		.align	2
 167              	.L13:
 168 0020 00000000 		.word	.LANCHOR0
 169              		.cfi_endproc
 170              	.LFE9:
ARM GAS  /tmp/ccrcEjLd.s 			page 4


 171              		.size	chVTResetI, .-chVTResetI
 172              		.global	vtlist
 173 0024 AFF30080 		.section	.bss.vtlist,"aw",%nobits
 173      AFF30080 
 173      AFF30080 
 174              		.align	2
 175              		.set	.LANCHOR0,. + 0
 176              		.type	vtlist, %object
 177              		.size	vtlist, 16
 178              	vtlist:
 179 0000 00000000 		.space	16
 179      00000000 
 179      00000000 
 179      00000000 
 180              		.text
 181              	.Letext0:
 182              		.file 2 "/opt/psas/x-tools/stm32f407/arm-psas-eabi/bin/../lib/gcc/arm-psas-eabi/4.7.2/../../../../
 183              		.file 3 "/home/wicker/tools/ChibiOS_2.6.3/os/ports/GCC/ARMCMx/chtypes.h"
 184              		.file 4 "/home/wicker/tools/ChibiOS_2.6.3/os/kernel/include/chvt.h"