ARM GAS  /tmp/cchnAUeO.s 			page 1


   1              		.syntax unified
   2              		.cpu cortex-m4
   3              		.eabi_attribute 27, 3
   4              		.eabi_attribute 28, 1
   5              		.fpu fpv4-sp-d16
   6              		.eabi_attribute 20, 1
   7              		.eabi_attribute 21, 1
   8              		.eabi_attribute 23, 3
   9              		.eabi_attribute 24, 1
  10              		.eabi_attribute 25, 1
  11              		.eabi_attribute 26, 1
  12              		.eabi_attribute 30, 2
  13              		.eabi_attribute 34, 1
  14              		.eabi_attribute 18, 4
  15              		.thumb
  16              		.file	"hal.c"
  17              		.text
  18              	.Ltext0:
  19              		.cfi_sections	.debug_frame
  20              		.section	.text.halInit,"ax",%progbits
  21              		.align	2
  22              		.p2align 4,,15
  23              		.global	halInit
  24              		.thumb
  25              		.thumb_func
  26              		.type	halInit, %function
  27              	halInit:
  28              	.LFB118:
  29              		.file 1 "/home/wicker/tools/ChibiOS_2.6.3/os/hal/src/hal.c"
  30              		.loc 1 68 0
  31              		.cfi_startproc
  32              		@ args = 0, pretend = 0, frame = 0
  33              		@ frame_needed = 0, uses_anonymous_args = 0
  34 0000 08B5     		push	{r3, lr}
  35              	.LCFI0:
  36              		.cfi_def_cfa_offset 8
  37              		.cfi_offset 3, -8
  38              		.cfi_offset 14, -4
  39              		.loc 1 70 0
  40 0002 FFF7FEFF 		bl	hal_lld_init
  41              	.LVL0:
  42              		.loc 1 76 0
  43 0006 40F20000 		movw	r0, #:lower16:pal_default_config
  44 000a C0F20000 		movt	r0, #:upper16:pal_default_config
  45 000e FFF7FEFF 		bl	_pal_lld_init
  46              	.LVL1:
  47              		.loc 1 79 0
  48 0012 FFF7FEFF 		bl	adcInit
  49              	.LVL2:
  50              		.loc 1 100 0
  51 0016 FFF7FEFF 		bl	pwmInit
  52              	.LVL3:
  53              		.loc 1 103 0
  54 001a FFF7FEFF 		bl	sdInit
  55              	.LVL4:
  56              		.loc 1 109 0
  57 001e FFF7FEFF 		bl	spiInit
ARM GAS  /tmp/cchnAUeO.s 			page 2


  58              	.LVL5:
  59              		.loc 1 128 0
  60 0022 BDE80840 		pop	{r3, lr}
  61              		.loc 1 127 0
  62 0026 FFF7FEBF 		b	boardInit
  63              	.LVL6:
  64              		.cfi_endproc
  65              	.LFE118:
  66              		.size	halInit, .-halInit
  67 002a 00BFAFF3 		.section	.text.halIsCounterWithin,"ax",%progbits
  67      0080
  68              		.align	2
  69              		.p2align 4,,15
  70              		.global	halIsCounterWithin
  71              		.thumb
  72              		.thumb_func
  73              		.type	halIsCounterWithin, %function
  74              	halIsCounterWithin:
  75              	.LFB119:
  76              		.loc 1 174 0
  77              		.cfi_startproc
  78              		@ args = 0, pretend = 0, frame = 0
  79              		@ frame_needed = 0, uses_anonymous_args = 0
  80              		@ link register save eliminated.
  81              	.LVL7:
  82              		.loc 1 175 0
  83 0000 4FF48053 		mov	r3, #4096
  84 0004 CEF20003 		movt	r3, 57344
  85              		.loc 1 177 0
  86 0008 8142     		cmp	r1, r0
  87              		.loc 1 174 0
  88 000a 0246     		mov	r2, r0
  89              		.loc 1 175 0
  90 000c 5B68     		ldr	r3, [r3, #4]
  91              	.LVL8:
  92              		.loc 1 177 0
  93 000e 09D8     		bhi	.L6
  94              		.loc 1 178 0 discriminator 2
  95 0010 8342     		cmp	r3, r0
  96 0012 34BF     		ite	cc
  97 0014 0022     		movcc	r2, #0
  98 0016 0122     		movcs	r2, #1
  99 0018 8B42     		cmp	r3, r1
 100 001a 2CBF     		ite	cs
 101 001c 1046     		movcs	r0, r2
 102 001e 42F00100 		orrcc	r0, r2, #1
 103              	.LVL9:
 104              		.loc 1 179 0 discriminator 2
 105 0022 7047     		bx	lr
 106              	.LVL10:
 107              	.L6:
 108              		.loc 1 177 0 discriminator 1
 109 0024 8B42     		cmp	r3, r1
 110 0026 2CBF     		ite	cs
 111 0028 0020     		movcs	r0, #0
 112              	.LVL11:
 113 002a 0120     		movcc	r0, #1
ARM GAS  /tmp/cchnAUeO.s 			page 3


 114 002c 9342     		cmp	r3, r2
 115 002e 38BF     		it	cc
 116 0030 0020     		movcc	r0, #0
 117 0032 7047     		bx	lr
 118              		.cfi_endproc
 119              	.LFE119:
 120              		.size	halIsCounterWithin, .-halIsCounterWithin
 121 0034 AFF30080 		.section	.text.halPolledDelay,"ax",%progbits
 121      AFF30080 
 121      AFF30080 
 122              		.align	2
 123              		.p2align 4,,15
 124              		.global	halPolledDelay
 125              		.thumb
 126              		.thumb_func
 127              		.type	halPolledDelay, %function
 128              	halPolledDelay:
 129              	.LFB120:
 130              		.loc 1 193 0
 131              		.cfi_startproc
 132              		@ args = 0, pretend = 0, frame = 0
 133              		@ frame_needed = 0, uses_anonymous_args = 0
 134              		@ link register save eliminated.
 135              	.LVL12:
 136              		.loc 1 194 0
 137 0000 4FF48053 		mov	r3, #4096
 138 0004 CEF20003 		movt	r3, 57344
 139              		.loc 1 193 0
 140 0008 10B4     		push	{r4}
 141              	.LCFI1:
 142              		.cfi_def_cfa_offset 4
 143              		.cfi_offset 4, -4
 144              		.loc 1 194 0
 145 000a 5A68     		ldr	r2, [r3, #4]
 146              	.LVL13:
 147              	.LBB4:
 148              	.LBB5:
 149              		.loc 1 175 0
 150 000c 1C46     		mov	r4, r3
 151              	.LBE5:
 152              	.LBE4:
 153              		.loc 1 195 0
 154 000e 8018     		adds	r0, r0, r2
 155              	.LVL14:
 156              	.L10:
 157              	.LBB8:
 158              	.LBB6:
 159              		.loc 1 177 0 discriminator 1
 160 0010 8242     		cmp	r2, r0
 161              		.loc 1 175 0 discriminator 1
 162 0012 6368     		ldr	r3, [r4, #4]
 163              	.LVL15:
 164              		.loc 1 177 0 discriminator 1
 165 0014 0AD2     		bcs	.L8
 166              		.loc 1 177 0 is_stmt 0
 167 0016 9842     		cmp	r0, r3
 168 0018 94BF     		ite	ls
ARM GAS  /tmp/cchnAUeO.s 			page 4


 169 001a 0021     		movls	r1, #0
 170 001c 0121     		movhi	r1, #1
 171 001e 9A42     		cmp	r2, r3
 172 0020 88BF     		it	hi
 173 0022 0021     		movhi	r1, #0
 174              	.LBE6:
 175              	.LBE8:
 176              		.loc 1 196 0 is_stmt 1
 177 0024 0029     		cmp	r1, #0
 178 0026 F3D1     		bne	.L10
 179              	.L12:
 180              		.loc 1 198 0
 181 0028 10BC     		pop	{r4}
 182 002a 7047     		bx	lr
 183              	.L8:
 184              	.LBB9:
 185              	.LBB7:
 186              		.loc 1 178 0
 187 002c 9A42     		cmp	r2, r3
 188 002e 8CBF     		ite	hi
 189 0030 0021     		movhi	r1, #0
 190 0032 0121     		movls	r1, #1
 191 0034 9842     		cmp	r0, r3
 192 0036 88BF     		it	hi
 193 0038 41F00101 		orrhi	r1, r1, #1
 194              	.LBE7:
 195              	.LBE9:
 196              		.loc 1 196 0
 197 003c 0029     		cmp	r1, #0
 198 003e E7D1     		bne	.L10
 199 0040 F2E7     		b	.L12
 200              		.cfi_endproc
 201              	.LFE120:
 202              		.size	halPolledDelay, .-halPolledDelay
 203 0042 00BFAFF3 		.text
 203      0080AFF3 
 203      0080AFF3 
 203      0080
 204              	.Letext0:
 205              		.file 2 "/opt/psas/x-tools/stm32f407/arm-psas-eabi/bin/../lib/gcc/arm-psas-eabi/4.7.2/../../../../
 206              		.file 3 "/home/wicker/tools/ChibiOS_2.6.3/os/ports/GCC/ARMCMx/chtypes.h"
 207              		.file 4 "/home/wicker/tools/ChibiOS_2.6.3/os/ports/common/ARMCMx/nvic.h"
 208              		.file 5 "/home/wicker/tools/ChibiOS_2.6.3/os/hal/platforms/STM32F4xx/hal_lld.h"
 209              		.file 6 "/home/wicker/tools/ChibiOS_2.6.3/os/hal/platforms/STM32/GPIOv2/pal_lld.h"
 210              		.file 7 "/home/wicker/tools/ChibiOS_2.6.3/os/ports/common/ARMCMx/CMSIS/include/core_cm4.h"
 211              		.file 8 "/home/wicker/tools/ChibiOS_2.6.3/os/hal/include/adc.h"
 212              		.file 9 "/home/wicker/tools/ChibiOS_2.6.3/os/hal/include/pwm.h"
 213              		.file 10 "/home/wicker/tools/ChibiOS_2.6.3/os/hal/include/serial.h"
 214              		.file 11 "/home/wicker/tools/ChibiOS_2.6.3/os/hal/include/spi.h"
 215              		.file 12 "/home/wicker/tools/ChibiOS_2.6.3/boards/ST_STM32F4_DISCOVERY/board.h"