ARM GAS  /tmp/cc0NuQBJ.s 			page 1


   1              		.syntax unified
   2              		.cpu cortex-m4
   3              		.eabi_attribute 27, 3
   4              		.eabi_attribute 28, 1
   5              		.fpu fpv4-sp-d16
   6              		.eabi_attribute 20, 1
   7              		.eabi_attribute 21, 1
   8              		.eabi_attribute 23, 3
   9              		.eabi_attribute 24, 1
  10              		.eabi_attribute 25, 1
  11              		.eabi_attribute 26, 1
  12              		.eabi_attribute 30, 2
  13              		.eabi_attribute 34, 1
  14              		.eabi_attribute 18, 4
  15              		.thumb
  16              		.file	"lis302dl.c"
  17              		.text
  18              	.Ltext0:
  19              		.cfi_sections	.debug_frame
  20              		.section	.text.lis302dlReadRegister,"ax",%progbits
  21              		.align	2
  22              		.p2align 4,,15
  23              		.global	lis302dlReadRegister
  24              		.thumb
  25              		.thumb_func
  26              		.type	lis302dlReadRegister, %function
  27              	lis302dlReadRegister:
  28              	.LFB118:
  29              		.file 1 "/home/wicker/tools/ChibiOS_2.6.3/os/various/devices_lib/accel/lis302dl.c"
  30              		.loc 1 60 0
  31              		.cfi_startproc
  32              		@ args = 0, pretend = 0, frame = 0
  33              		@ frame_needed = 0, uses_anonymous_args = 0
  34              	.LVL0:
  35 0000 F8B5     		push	{r3, r4, r5, r6, r7, lr}
  36              	.LCFI0:
  37              		.cfi_def_cfa_offset 24
  38              		.cfi_offset 3, -24
  39              		.cfi_offset 4, -20
  40              		.cfi_offset 5, -16
  41              		.cfi_offset 6, -12
  42              		.cfi_offset 7, -8
  43              		.cfi_offset 14, -4
  44              		.loc 1 63 0
  45 0002 40F20004 		movw	r4, #:lower16:.LANCHOR0
  46 0006 C0F20004 		movt	r4, #:upper16:.LANCHOR0
  47              		.loc 1 60 0
  48 000a 0F46     		mov	r7, r1
  49              		.loc 1 65 0
  50 000c 40F20005 		movw	r5, #:lower16:.LANCHOR1
  51              		.loc 1 60 0
  52 0010 0646     		mov	r6, r0
  53              		.loc 1 65 0
  54 0012 C0F20005 		movt	r5, #:upper16:.LANCHOR1
  55              		.loc 1 63 0
  56 0016 67F07F07 		orn	r7, r7, #127
  57              		.loc 1 62 0
ARM GAS  /tmp/cc0NuQBJ.s 			page 2


  58 001a FFF7FEFF 		bl	spiSelect
  59              	.LVL1:
  60              		.loc 1 65 0
  61 001e 0221     		movs	r1, #2
  62 0020 2246     		mov	r2, r4
  63 0022 2B46     		mov	r3, r5
  64 0024 3046     		mov	r0, r6
  65              		.loc 1 63 0
  66 0026 2770     		strb	r7, [r4, #0]
  67              		.loc 1 64 0
  68 0028 FF27     		movs	r7, #255
  69 002a 6770     		strb	r7, [r4, #1]
  70              		.loc 1 65 0
  71 002c FFF7FEFF 		bl	spiExchange
  72              	.LVL2:
  73              		.loc 1 66 0
  74 0030 3046     		mov	r0, r6
  75 0032 FFF7FEFF 		bl	spiUnselect
  76              	.LVL3:
  77              		.loc 1 68 0
  78 0036 6878     		ldrb	r0, [r5, #1]	@ zero_extendqisi2
  79 0038 F8BD     		pop	{r3, r4, r5, r6, r7, pc}
  80              		.cfi_endproc
  81              	.LFE118:
  82              		.size	lis302dlReadRegister, .-lis302dlReadRegister
  83 003a 00BFAFF3 		.section	.text.lis302dlWriteRegister,"ax",%progbits
  83      0080
  84              		.align	2
  85              		.p2align 4,,15
  86              		.global	lis302dlWriteRegister
  87              		.thumb
  88              		.thumb_func
  89              		.type	lis302dlWriteRegister, %function
  90              	lis302dlWriteRegister:
  91              	.LFB119:
  92              		.loc 1 78 0
  93              		.cfi_startproc
  94              		@ args = 0, pretend = 0, frame = 0
  95              		@ frame_needed = 0, uses_anonymous_args = 0
  96              	.LVL4:
  97 0000 F8B5     		push	{r3, r4, r5, r6, r7, lr}
  98              	.LCFI1:
  99              		.cfi_def_cfa_offset 24
 100              		.cfi_offset 3, -24
 101              		.cfi_offset 4, -20
 102              		.cfi_offset 5, -16
 103              		.cfi_offset 6, -12
 104              		.cfi_offset 7, -8
 105              		.cfi_offset 14, -4
 106              		.loc 1 80 0
 107 0002 A1F12003 		sub	r3, r1, #32
 108              		.loc 1 78 0
 109 0006 0D46     		mov	r5, r1
 110              		.loc 1 80 0
 111 0008 D9B2     		uxtb	r1, r3
 112              	.LVL5:
 113 000a 1F29     		cmp	r1, #31
ARM GAS  /tmp/cc0NuQBJ.s 			page 3


 114              		.loc 1 78 0
 115 000c 0646     		mov	r6, r0
 116 000e 1746     		mov	r7, r2
 117              		.loc 1 80 0
 118 0010 17D8     		bhi	.L2
 119 0012 5BB2     		sxtb	r3, r3
 120 0014 0724     		movs	r4, #7
 121 0016 0122     		movs	r2, #1
 122              	.LVL6:
 123 0018 02FA03F3 		lsl	r3, r2, r3
 124 001c CFF6DD14 		movt	r4, 63965
 125 0020 1C40     		ands	r4, r4, r3
 126 0022 74B1     		cbz	r4, .L2
 127              		.loc 1 111 0
 128 0024 FFF7FEFF 		bl	spiSelect
 129              	.LVL7:
 130              		.loc 1 112 0
 131 0028 064B     		ldr	r3, .L6
 132              		.loc 1 114 0
 133 002a 3046     		mov	r0, r6
 134 002c 0221     		movs	r1, #2
 135 002e 1A46     		mov	r2, r3
 136              		.loc 1 112 0
 137 0030 1D70     		strb	r5, [r3, #0]
 138              		.loc 1 113 0
 139 0032 5F70     		strb	r7, [r3, #1]
 140              		.loc 1 114 0
 141 0034 FFF7FEFF 		bl	spiSend
 142              	.LVL8:
 143              		.loc 1 115 0
 144 0038 3046     		mov	r0, r6
 145              		.loc 1 117 0
 146 003a BDE8F840 		pop	{r3, r4, r5, r6, r7, lr}
 147              		.loc 1 115 0
 148 003e FFF7FEBF 		b	spiUnselect
 149              	.LVL9:
 150              	.L2:
 151 0042 F8BD     		pop	{r3, r4, r5, r6, r7, pc}
 152              	.L7:
 153              		.align	2
 154              	.L6:
 155 0044 00000000 		.word	.LANCHOR0
 156              		.cfi_endproc
 157              	.LFE119:
 158              		.size	lis302dlWriteRegister, .-lis302dlWriteRegister
 159 0048 AFF30080 		.section	.bss.rxbuf,"aw",%nobits
 159      AFF30080 
 160              		.align	2
 161              		.set	.LANCHOR1,. + 0
 162              		.type	rxbuf, %object
 163              		.size	rxbuf, 2
 164              	rxbuf:
 165 0000 0000     		.space	2
 166 0002 0000     		.section	.bss.txbuf,"aw",%nobits
 167              		.align	2
 168              		.set	.LANCHOR0,. + 0
 169              		.type	txbuf, %object
ARM GAS  /tmp/cc0NuQBJ.s 			page 4


 170              		.size	txbuf, 2
 171              	txbuf:
 172 0000 0000     		.space	2
 173 0002 0000     		.text
 174              	.Letext0:
 175              		.file 2 "/opt/psas/x-tools/stm32f407/arm-psas-eabi/bin/../lib/gcc/arm-psas-eabi/4.7.2/include/stdd
 176              		.file 3 "/opt/psas/x-tools/stm32f407/arm-psas-eabi/bin/../lib/gcc/arm-psas-eabi/4.7.2/../../../../
 177              		.file 4 "/home/wicker/tools/ChibiOS_2.6.3/os/ports/GCC/ARMCMx/chtypes.h"
 178              		.file 5 "/home/wicker/tools/ChibiOS_2.6.3/os/kernel/include/chlists.h"
 179              		.file 6 "/home/wicker/tools/ChibiOS_2.6.3/os/kernel/include/chthreads.h"
 180              		.file 7 "/home/wicker/tools/ChibiOS_2.6.3/os/ports/GCC/ARMCMx/chcore_v7m.h"
 181              		.file 8 "/home/wicker/tools/ChibiOS_2.6.3/os/kernel/include/chmtx.h"
 182              		.file 9 "/home/wicker/tools/ChibiOS_2.6.3/os/hal/platforms/STM32F4xx/stm32f4xx.h"
 183              		.file 10 "/home/wicker/tools/ChibiOS_2.6.3/os/hal/platforms/STM32F4xx/stm32_dma.h"
 184              		.file 11 "/home/wicker/tools/ChibiOS_2.6.3/os/hal/platforms/STM32/GPIOv2/pal_lld.h"
 185              		.file 12 "/home/wicker/tools/ChibiOS_2.6.3/os/hal/include/spi.h"
 186              		.file 13 "/home/wicker/tools/ChibiOS_2.6.3/os/hal/platforms/STM32/SPIv1/spi_lld.h"
 187              		.file 14 "/home/wicker/tools/ChibiOS_2.6.3/os/ports/common/ARMCMx/CMSIS/include/core_cm4.h"