ARM GAS  /tmp/cc2DS7Gt.s 			page 1


   1              		.syntax unified
   2              		.cpu cortex-m4
   3              		.eabi_attribute 27, 3
   4              		.eabi_attribute 28, 1
   5              		.fpu fpv4-sp-d16
   6              		.eabi_attribute 20, 1
   7              		.eabi_attribute 21, 1
   8              		.eabi_attribute 23, 3
   9              		.eabi_attribute 24, 1
  10              		.eabi_attribute 25, 1
  11              		.eabi_attribute 26, 1
  12              		.eabi_attribute 30, 2
  13              		.eabi_attribute 34, 1
  14              		.eabi_attribute 18, 4
  15              		.thumb
  16              		.file	"main.c"
  17              		.text
  18              	.Ltext0:
  19              		.cfi_sections	.debug_frame
  20              		.section	.text.startup.main,"ax",%progbits
  21              		.align	2
  22              		.p2align 4,,15
  23              		.global	main
  24              		.thumb
  25              		.thumb_func
  26              		.type	main, %function
  27              	main:
  28              	.LFB118:
  29              		.file 1 "main.c"
  30              		.loc 1 7 0
  31              		.cfi_startproc
  32              		@ args = 0, pretend = 0, frame = 0
  33              		@ frame_needed = 0, uses_anonymous_args = 0
  34 0000 70B5     		push	{r4, r5, r6, lr}
  35              	.LCFI0:
  36              		.cfi_def_cfa_offset 16
  37              		.cfi_offset 4, -16
  38              		.cfi_offset 5, -12
  39              		.cfi_offset 6, -8
  40              		.cfi_offset 14, -4
  41              		.loc 1 9 0
  42 0002 FFF7FEFF 		bl	halInit
  43              	.LVL0:
  44              		.loc 1 10 0
  45 0006 FFF7FEFF 		bl	chSysInit
  46              	.LVL1:
  47              		.loc 1 12 0
  48 000a 4FF44060 		mov	r0, #3072
  49 000e C4F20200 		movt	r0, 16386
  50 0012 4FF40041 		mov	r1, #32768
  51 0016 0122     		movs	r2, #1
  52 0018 FFF7FEFF 		bl	_pal_lld_setgroupmode
  53              	.LVL2:
  54              		.loc 1 15 0
  55 001c 4FF44064 		mov	r4, #3072
  56 0020 C4F20204 		movt	r4, 16386
  57 0024 4FF40046 		mov	r6, #32768
ARM GAS  /tmp/cc2DS7Gt.s 			page 2


  58 0028 48F20005 		movw	r5, 32768	@ movhi
  59              	.L2:
  60              		.loc 1 15 0 is_stmt 0 discriminator 1
  61 002c 2583     		strh	r5, [r4, #24]	@ movhi
  62              		.loc 1 16 0 is_stmt 1 discriminator 1
  63 002e 4FF4FA60 		mov	r0, #2000
  64 0032 FFF7FEFF 		bl	chThdSleep
  65              	.LVL3:
  66              		.loc 1 17 0 discriminator 1
  67 0036 6683     		strh	r6, [r4, #26]	@ movhi
  68              		.loc 1 18 0 discriminator 1
  69 0038 4FF4FA60 		mov	r0, #2000
  70 003c FFF7FEFF 		bl	chThdSleep
  71              	.LVL4:
  72 0040 F4E7     		b	.L2
  73              		.cfi_endproc
  74              	.LFE118:
  75              		.size	main, .-main
  76 0042 00BFAFF3 		.text
  76      0080AFF3 
  76      0080AFF3 
  76      0080
  77              	.Letext0:
  78              		.file 2 "/opt/psas/x-tools/stm32f407/arm-psas-eabi/bin/../lib/gcc/arm-psas-eabi/4.7.2/../../../../
  79              		.file 3 "/home/wicker/tools/ChibiOS_2.6.3/os/ports/GCC/ARMCMx/chtypes.h"
  80              		.file 4 "/home/wicker/tools/ChibiOS_2.6.3/os/hal/platforms/STM32/GPIOv2/pal_lld.h"
  81              		.file 5 "/home/wicker/tools/ChibiOS_2.6.3/os/hal/include/hal.h"
  82              		.file 6 "/home/wicker/tools/ChibiOS_2.6.3/os/kernel/include/chsys.h"
  83              		.file 7 "/home/wicker/tools/ChibiOS_2.6.3/os/ports/common/ARMCMx/CMSIS/include/core_cm4.h"
  84              		.file 8 "/home/wicker/tools/ChibiOS_2.6.3/os/kernel/include/chthreads.h"