ARM GAS  /tmp/ccpSuMZ3.s 			page 1


   1              		.syntax unified
   2              		.cpu cortex-m4
   3              		.eabi_attribute 27, 3
   4              		.eabi_attribute 28, 1
   5              		.fpu fpv4-sp-d16
   6              		.eabi_attribute 20, 1
   7              		.eabi_attribute 21, 1
   8              		.eabi_attribute 23, 3
   9              		.eabi_attribute 24, 1
  10              		.eabi_attribute 25, 1
  11              		.eabi_attribute 26, 1
  12              		.eabi_attribute 30, 2
  13              		.eabi_attribute 34, 1
  14              		.eabi_attribute 18, 4
  15              		.thumb
  16              		.file	"nvic.c"
  17              		.text
  18              	.Ltext0:
  19              		.cfi_sections	.debug_frame
  20              		.section	.text.nvicEnableVector,"ax",%progbits
  21              		.align	2
  22              		.p2align 4,,15
  23              		.global	nvicEnableVector
  24              		.thumb
  25              		.thumb_func
  26              		.type	nvicEnableVector, %function
  27              	nvicEnableVector:
  28              	.LFB7:
  29              		.file 1 "/home/wicker/tools/ChibiOS_2.6.3/os/ports/common/ARMCMx/nvic.c"
  30              		.loc 1 46 0
  31              		.cfi_startproc
  32              		@ args = 0, pretend = 0, frame = 0
  33              		@ frame_needed = 0, uses_anonymous_args = 0
  34              		@ link register save eliminated.
  35              	.LVL0:
  36 0000 F0B4     		push	{r4, r5, r6, r7}
  37              	.LCFI0:
  38              		.cfi_def_cfa_offset 16
  39              		.cfi_offset 4, -16
  40              		.cfi_offset 5, -12
  41              		.cfi_offset 6, -8
  42              		.cfi_offset 7, -4
  43              		.loc 1 49 0
  44 0002 4FF46143 		mov	r3, #57600
  45 0006 8408     		lsrs	r4, r0, #2
  46 0008 CEF20003 		movt	r3, 57344
  47 000c C034     		adds	r4, r4, #192
  48              		.loc 1 47 0
  49 000e 00F00305 		and	r5, r0, #3
  50              		.loc 1 49 0
  51 0012 53F82470 		ldr	r7, [r3, r4, lsl #2]
  52              		.loc 1 47 0
  53 0016 ED00     		lsls	r5, r5, #3
  54              	.LVL1:
  55              		.loc 1 49 0
  56 0018 FF26     		movs	r6, #255
  57              		.loc 1 50 0
ARM GAS  /tmp/ccpSuMZ3.s 			page 2


  58 001a 4209     		lsrs	r2, r0, #5
  59              		.loc 1 49 0
  60 001c 06FA05F6 		lsl	r6, r6, r5
  61 0020 27EA0606 		bic	r6, r7, r6
  62 0024 01FA05F5 		lsl	r5, r1, r5
  63              	.LVL2:
  64              		.loc 1 50 0
  65 0028 00F01F00 		and	r0, r0, #31
  66              	.LVL3:
  67 002c 02F16007 		add	r7, r2, #96
  68 0030 0121     		movs	r1, #1
  69              	.LVL4:
  70 0032 01FA00F0 		lsl	r0, r1, r0
  71              		.loc 1 49 0
  72 0036 2E43     		orrs	r6, r6, r5
  73 0038 43F82460 		str	r6, [r3, r4, lsl #2]
  74              		.loc 1 50 0
  75 003c 43F82700 		str	r0, [r3, r7, lsl #2]
  76              		.loc 1 51 0
  77 0040 43F82200 		str	r0, [r3, r2, lsl #2]
  78              		.loc 1 52 0
  79 0044 F0BC     		pop	{r4, r5, r6, r7}
  80 0046 7047     		bx	lr
  81              		.cfi_endproc
  82              	.LFE7:
  83              		.size	nvicEnableVector, .-nvicEnableVector
  84 0048 AFF30080 		.section	.text.nvicDisableVector,"ax",%progbits
  84      AFF30080 
  85              		.align	2
  86              		.p2align 4,,15
  87              		.global	nvicDisableVector
  88              		.thumb
  89              		.thumb_func
  90              		.type	nvicDisableVector, %function
  91              	nvicDisableVector:
  92              	.LFB8:
  93              		.loc 1 60 0
  94              		.cfi_startproc
  95              		@ args = 0, pretend = 0, frame = 0
  96              		@ frame_needed = 0, uses_anonymous_args = 0
  97              		@ link register save eliminated.
  98              	.LVL5:
  99              		.loc 1 63 0
 100 0000 4109     		lsrs	r1, r0, #5
 101 0002 4FF46143 		mov	r3, #57600
 102              		.loc 1 60 0
 103 0006 10B4     		push	{r4}
 104              	.LCFI1:
 105              		.cfi_def_cfa_offset 4
 106              		.cfi_offset 4, -4
 107              		.loc 1 63 0
 108 0008 CEF20003 		movt	r3, 57344
 109 000c 00F01F02 		and	r2, r0, #31
 110 0010 2031     		adds	r1, r1, #32
 111 0012 0124     		movs	r4, #1
 112 0014 04FA02F4 		lsl	r4, r4, r2
 113              		.loc 1 64 0
ARM GAS  /tmp/ccpSuMZ3.s 			page 3


 114 0018 8208     		lsrs	r2, r0, #2
 115              		.loc 1 63 0
 116 001a 43F82140 		str	r4, [r3, r1, lsl #2]
 117              		.loc 1 64 0
 118 001e C032     		adds	r2, r2, #192
 119              		.loc 1 61 0
 120 0020 00F00300 		and	r0, r0, #3
 121              	.LVL6:
 122              		.loc 1 64 0
 123 0024 53F82210 		ldr	r1, [r3, r2, lsl #2]
 124              		.loc 1 61 0
 125 0028 C000     		lsls	r0, r0, #3
 126              	.LVL7:
 127              		.loc 1 64 0
 128 002a FF24     		movs	r4, #255
 129 002c 04FA00F0 		lsl	r0, r4, r0
 130              	.LVL8:
 131 0030 21EA0000 		bic	r0, r1, r0
 132 0034 43F82200 		str	r0, [r3, r2, lsl #2]
 133              		.loc 1 65 0
 134 0038 10BC     		pop	{r4}
 135 003a 7047     		bx	lr
 136              		.cfi_endproc
 137              	.LFE8:
 138              		.size	nvicDisableVector, .-nvicDisableVector
 139 003c AFF30080 		.section	.text.nvicSetSystemHandlerPriority,"ax",%progbits
 140              		.align	2
 141              		.p2align 4,,15
 142              		.global	nvicSetSystemHandlerPriority
 143              		.thumb
 144              		.thumb_func
 145              		.type	nvicSetSystemHandlerPriority, %function
 146              	nvicSetSystemHandlerPriority:
 147              	.LFB9:
 148              		.loc 1 74 0
 149              		.cfi_startproc
 150              		@ args = 0, pretend = 0, frame = 0
 151              		@ frame_needed = 0, uses_anonymous_args = 0
 152              		@ link register save eliminated.
 153              	.LVL9:
 154              		.loc 1 77 0
 155 0000 8208     		lsrs	r2, r0, #2
 156 0002 4FF46D43 		mov	r3, #60672
 157 0006 CEF20003 		movt	r3, 57344
 158 000a 0632     		adds	r2, r2, #6
 159              		.loc 1 75 0
 160 000c 00F00300 		and	r0, r0, #3
 161              	.LVL10:
 162              		.loc 1 74 0
 163 0010 30B4     		push	{r4, r5}
 164              	.LCFI2:
 165              		.cfi_def_cfa_offset 8
 166              		.cfi_offset 4, -8
 167              		.cfi_offset 5, -4
 168              		.loc 1 75 0
 169 0012 C000     		lsls	r0, r0, #3
 170              	.LVL11:
ARM GAS  /tmp/ccpSuMZ3.s 			page 4


 171              		.loc 1 77 0
 172 0014 53F82250 		ldr	r5, [r3, r2, lsl #2]
 173              		.loc 1 78 0
 174 0018 FF24     		movs	r4, #255
 175 001a 04FA00F4 		lsl	r4, r4, r0
 176              		.loc 1 77 0
 177 001e 25EA0404 		bic	r4, r5, r4
 178              		.loc 1 78 0
 179 0022 01FA00F1 		lsl	r1, r1, r0
 180              	.LVL12:
 181 0026 0C43     		orrs	r4, r4, r1
 182              		.loc 1 77 0
 183 0028 43F82240 		str	r4, [r3, r2, lsl #2]
 184              		.loc 1 79 0
 185 002c 30BC     		pop	{r4, r5}
 186 002e 7047     		bx	lr
 187              		.cfi_endproc
 188              	.LFE9:
 189              		.size	nvicSetSystemHandlerPriority, .-nvicSetSystemHandlerPriority
 190              		.text
 191              	.Letext0:
 192              		.file 2 "/opt/psas/x-tools/stm32f407/arm-psas-eabi/bin/../lib/gcc/arm-psas-eabi/4.7.2/../../../../
 193              		.file 3 "/home/wicker/tools/ChibiOS_2.6.3/os/ports/common/ARMCMx/nvic.h"