ARM GAS  /tmp/ccsxOn3g.s 			page 1


   1              		.syntax unified
   2              		.cpu cortex-m4
   3              		.eabi_attribute 27, 3
   4              		.eabi_attribute 28, 1
   5              		.fpu fpv4-sp-d16
   6              		.eabi_attribute 20, 1
   7              		.eabi_attribute 21, 1
   8              		.eabi_attribute 23, 3
   9              		.eabi_attribute 24, 1
  10              		.eabi_attribute 25, 1
  11              		.eabi_attribute 26, 1
  12              		.eabi_attribute 30, 2
  13              		.eabi_attribute 34, 1
  14              		.eabi_attribute 18, 4
  15              		.thumb
  16              		.file	"pwm.c"
  17              		.text
  18              	.Ltext0:
  19              		.cfi_sections	.debug_frame
  20              		.section	.text.pwmInit,"ax",%progbits
  21              		.align	2
  22              		.p2align 4,,15
  23              		.global	pwmInit
  24              		.thumb
  25              		.thumb_func
  26              		.type	pwmInit, %function
  27              	pwmInit:
  28              	.LFB118:
  29              		.file 1 "/home/wicker/tools/ChibiOS_2.6.3/os/hal/src/pwm.c"
  30              		.loc 1 68 0
  31              		.cfi_startproc
  32              		@ args = 0, pretend = 0, frame = 0
  33              		@ frame_needed = 0, uses_anonymous_args = 0
  34              		@ link register save eliminated.
  35              		.loc 1 71 0
  36              		.loc 1 70 0
  37 0000 FFF7FEBF 		b	pwm_lld_init
  38              	.LVL0:
  39              		.cfi_endproc
  40              	.LFE118:
  41              		.size	pwmInit, .-pwmInit
  42 0004 AFF30080 		.section	.text.pwmObjectInit,"ax",%progbits
  42      AFF30080 
  42      AFF30080 
  43              		.align	2
  44              		.p2align 4,,15
  45              		.global	pwmObjectInit
  46              		.thumb
  47              		.thumb_func
  48              		.type	pwmObjectInit, %function
  49              	pwmObjectInit:
  50              	.LFB119:
  51              		.loc 1 80 0
  52              		.cfi_startproc
  53              		@ args = 0, pretend = 0, frame = 0
  54              		@ frame_needed = 0, uses_anonymous_args = 0
  55              		@ link register save eliminated.
ARM GAS  /tmp/ccsxOn3g.s 			page 2


  56              	.LVL1:
  57              		.loc 1 82 0
  58 0000 0123     		movs	r3, #1
  59 0002 0370     		strb	r3, [r0, #0]
  60              		.loc 1 83 0
  61 0004 0023     		movs	r3, #0
  62 0006 4360     		str	r3, [r0, #4]
  63 0008 7047     		bx	lr
  64              		.cfi_endproc
  65              	.LFE119:
  66              		.size	pwmObjectInit, .-pwmObjectInit
  67 000a 00BFAFF3 		.section	.text.pwmStart,"ax",%progbits
  67      0080
  68              		.align	2
  69              		.p2align 4,,15
  70              		.global	pwmStart
  71              		.thumb
  72              		.thumb_func
  73              		.type	pwmStart, %function
  74              	pwmStart:
  75              	.LFB120:
  76              		.loc 1 99 0
  77              		.cfi_startproc
  78              		@ args = 0, pretend = 0, frame = 0
  79              		@ frame_needed = 0, uses_anonymous_args = 0
  80              	.LVL2:
  81 0000 10B5     		push	{r4, lr}
  82              	.LCFI0:
  83              		.cfi_def_cfa_offset 8
  84              		.cfi_offset 4, -8
  85              		.cfi_offset 14, -4
  86              	.LBB2:
  87              		.loc 1 103 0
  88 0002 2023     		movs	r3, #32
  89              	.LVL3:
  90              	.LBE2:
  91              		.loc 1 99 0
  92 0004 0446     		mov	r4, r0
  93              	.LBB3:
  94              		.loc 1 103 0
  95              	@ 103 "/home/wicker/tools/ChibiOS_2.6.3/os/hal/src/pwm.c" 1
  96 0006 83F31188 		msr     BASEPRI, r3
  97              	@ 0 "" 2
  98              	.LVL4:
  99              		.thumb
 100              	.LBE3:
 101              		.loc 1 107 0
 102 000a 8B88     		ldrh	r3, [r1, #4]
 103              	.LVL5:
 104              		.loc 1 106 0
 105 000c 4160     		str	r1, [r0, #4]
 106              		.loc 1 107 0
 107 000e 0381     		strh	r3, [r0, #8]	@ movhi
 108              		.loc 1 108 0
 109 0010 FFF7FEFF 		bl	pwm_lld_start
 110              	.LVL6:
 111              		.loc 1 109 0
ARM GAS  /tmp/ccsxOn3g.s 			page 3


 112 0014 0223     		movs	r3, #2
 113 0016 2370     		strb	r3, [r4, #0]
 114              	.LBB4:
 115              		.loc 1 110 0
 116 0018 0023     		movs	r3, #0
 117              	.LVL7:
 118              	@ 110 "/home/wicker/tools/ChibiOS_2.6.3/os/hal/src/pwm.c" 1
 119 001a 83F31188 		msr     BASEPRI, r3
 120              	@ 0 "" 2
 121              	.LVL8:
 122              		.thumb
 123 001e 10BD     		pop	{r4, pc}
 124              	.LBE4:
 125              		.cfi_endproc
 126              	.LFE120:
 127              		.size	pwmStart, .-pwmStart
 128              		.section	.text.pwmStop,"ax",%progbits
 129              		.align	2
 130              		.p2align 4,,15
 131              		.global	pwmStop
 132              		.thumb
 133              		.thumb_func
 134              		.type	pwmStop, %function
 135              	pwmStop:
 136              	.LFB121:
 137              		.loc 1 120 0
 138              		.cfi_startproc
 139              		@ args = 0, pretend = 0, frame = 0
 140              		@ frame_needed = 0, uses_anonymous_args = 0
 141              	.LVL9:
 142 0000 10B5     		push	{r4, lr}
 143              	.LCFI1:
 144              		.cfi_def_cfa_offset 8
 145              		.cfi_offset 4, -8
 146              		.cfi_offset 14, -4
 147              	.LBB5:
 148              		.loc 1 124 0
 149 0002 2023     		movs	r3, #32
 150              	.LVL10:
 151              	.LBE5:
 152              		.loc 1 120 0
 153 0004 0446     		mov	r4, r0
 154              	.LBB6:
 155              		.loc 1 124 0
 156              	@ 124 "/home/wicker/tools/ChibiOS_2.6.3/os/hal/src/pwm.c" 1
 157 0006 83F31188 		msr     BASEPRI, r3
 158              	@ 0 "" 2
 159              	.LVL11:
 160              		.thumb
 161              	.LBE6:
 162              		.loc 1 127 0
 163 000a FFF7FEFF 		bl	pwm_lld_stop
 164              	.LVL12:
 165              		.loc 1 128 0
 166 000e 0123     		movs	r3, #1
 167 0010 2370     		strb	r3, [r4, #0]
 168              	.LBB7:
ARM GAS  /tmp/ccsxOn3g.s 			page 4


 169              		.loc 1 129 0
 170 0012 0023     		movs	r3, #0
 171              	.LVL13:
 172              	@ 129 "/home/wicker/tools/ChibiOS_2.6.3/os/hal/src/pwm.c" 1
 173 0014 83F31188 		msr     BASEPRI, r3
 174              	@ 0 "" 2
 175              	.LVL14:
 176              		.thumb
 177 0018 10BD     		pop	{r4, pc}
 178              	.LBE7:
 179              		.cfi_endproc
 180              	.LFE121:
 181              		.size	pwmStop, .-pwmStop
 182 001a 00BFAFF3 		.section	.text.pwmChangePeriod,"ax",%progbits
 182      0080
 183              		.align	2
 184              		.p2align 4,,15
 185              		.global	pwmChangePeriod
 186              		.thumb
 187              		.thumb_func
 188              		.type	pwmChangePeriod, %function
 189              	pwmChangePeriod:
 190              	.LFB122:
 191              		.loc 1 147 0
 192              		.cfi_startproc
 193              		@ args = 0, pretend = 0, frame = 0
 194              		@ frame_needed = 0, uses_anonymous_args = 0
 195              		@ link register save eliminated.
 196              	.LVL15:
 197              	.LBB8:
 198              		.loc 1 151 0
 199 0000 2023     		movs	r3, #32
 200              	.LVL16:
 201              	@ 151 "/home/wicker/tools/ChibiOS_2.6.3/os/hal/src/pwm.c" 1
 202 0002 83F31188 		msr     BASEPRI, r3
 203              	@ 0 "" 2
 204              	.LVL17:
 205              		.thumb
 206              	.LBE8:
 207              		.loc 1 154 0
 208 0006 0369     		ldr	r3, [r0, #16]
 209              	.LVL18:
 210 0008 0181     		strh	r1, [r0, #8]	@ movhi
 211 000a 0139     		subs	r1, r1, #1
 212              	.LVL19:
 213 000c 89B2     		uxth	r1, r1
 214 000e D962     		str	r1, [r3, #44]
 215              	.LBB9:
 216              		.loc 1 155 0
 217 0010 0023     		movs	r3, #0
 218              	.LVL20:
 219              	@ 155 "/home/wicker/tools/ChibiOS_2.6.3/os/hal/src/pwm.c" 1
 220 0012 83F31188 		msr     BASEPRI, r3
 221              	@ 0 "" 2
 222              	.LVL21:
 223              		.thumb
 224 0016 7047     		bx	lr
ARM GAS  /tmp/ccsxOn3g.s 			page 5


 225              	.LBE9:
 226              		.cfi_endproc
 227              	.LFE122:
 228              		.size	pwmChangePeriod, .-pwmChangePeriod
 229 0018 AFF30080 		.section	.text.pwmEnableChannel,"ax",%progbits
 229      AFF30080 
 230              		.align	2
 231              		.p2align 4,,15
 232              		.global	pwmEnableChannel
 233              		.thumb
 234              		.thumb_func
 235              		.type	pwmEnableChannel, %function
 236              	pwmEnableChannel:
 237              	.LFB123:
 238              		.loc 1 174 0
 239              		.cfi_startproc
 240              		@ args = 0, pretend = 0, frame = 0
 241              		@ frame_needed = 0, uses_anonymous_args = 0
 242              	.LVL22:
 243 0000 08B5     		push	{r3, lr}
 244              	.LCFI2:
 245              		.cfi_def_cfa_offset 8
 246              		.cfi_offset 3, -8
 247              		.cfi_offset 14, -4
 248              	.LBB10:
 249              		.loc 1 179 0
 250 0002 2023     		movs	r3, #32
 251              	.LVL23:
 252              	@ 179 "/home/wicker/tools/ChibiOS_2.6.3/os/hal/src/pwm.c" 1
 253 0004 83F31188 		msr     BASEPRI, r3
 254              	@ 0 "" 2
 255              	.LVL24:
 256              		.thumb
 257              	.LBE10:
 258              		.loc 1 182 0
 259 0008 FFF7FEFF 		bl	pwm_lld_enable_channel
 260              	.LVL25:
 261              	.LBB11:
 262              		.loc 1 183 0
 263 000c 0023     		movs	r3, #0
 264              	.LVL26:
 265              	@ 183 "/home/wicker/tools/ChibiOS_2.6.3/os/hal/src/pwm.c" 1
 266 000e 83F31188 		msr     BASEPRI, r3
 267              	@ 0 "" 2
 268              	.LVL27:
 269              		.thumb
 270 0012 08BD     		pop	{r3, pc}
 271              	.LBE11:
 272              		.cfi_endproc
 273              	.LFE123:
 274              		.size	pwmEnableChannel, .-pwmEnableChannel
 275 0014 AFF30080 		.section	.text.pwmDisableChannel,"ax",%progbits
 275      AFF30080 
 275      AFF30080 
 276              		.align	2
 277              		.p2align 4,,15
 278              		.global	pwmDisableChannel
ARM GAS  /tmp/ccsxOn3g.s 			page 6


 279              		.thumb
 280              		.thumb_func
 281              		.type	pwmDisableChannel, %function
 282              	pwmDisableChannel:
 283              	.LFB124:
 284              		.loc 1 200 0
 285              		.cfi_startproc
 286              		@ args = 0, pretend = 0, frame = 0
 287              		@ frame_needed = 0, uses_anonymous_args = 0
 288              	.LVL28:
 289 0000 08B5     		push	{r3, lr}
 290              	.LCFI3:
 291              		.cfi_def_cfa_offset 8
 292              		.cfi_offset 3, -8
 293              		.cfi_offset 14, -4
 294              	.LBB12:
 295              		.loc 1 205 0
 296 0002 2023     		movs	r3, #32
 297              	.LVL29:
 298              	@ 205 "/home/wicker/tools/ChibiOS_2.6.3/os/hal/src/pwm.c" 1
 299 0004 83F31188 		msr     BASEPRI, r3
 300              	@ 0 "" 2
 301              	.LVL30:
 302              		.thumb
 303              	.LBE12:
 304              		.loc 1 208 0
 305 0008 FFF7FEFF 		bl	pwm_lld_disable_channel
 306              	.LVL31:
 307              	.LBB13:
 308              		.loc 1 209 0
 309 000c 0023     		movs	r3, #0
 310              	.LVL32:
 311              	@ 209 "/home/wicker/tools/ChibiOS_2.6.3/os/hal/src/pwm.c" 1
 312 000e 83F31188 		msr     BASEPRI, r3
 313              	@ 0 "" 2
 314              	.LVL33:
 315              		.thumb
 316 0012 08BD     		pop	{r3, pc}
 317              	.LBE13:
 318              		.cfi_endproc
 319              	.LFE124:
 320              		.size	pwmDisableChannel, .-pwmDisableChannel
 321 0014 AFF30080 		.text
 321      AFF30080 
 321      AFF30080 
 322              	.Letext0:
 323              		.file 2 "/opt/psas/x-tools/stm32f407/arm-psas-eabi/bin/../lib/gcc/arm-psas-eabi/4.7.2/../../../../
 324              		.file 3 "/home/wicker/tools/ChibiOS_2.6.3/os/hal/include/pwm.h"
 325              		.file 4 "/home/wicker/tools/ChibiOS_2.6.3/os/hal/platforms/STM32/TIMv1/pwm_lld.h"
 326              		.file 5 "/home/wicker/tools/ChibiOS_2.6.3/os/hal/platforms/STM32/TIMv1/stm32_tim.h"
 327              		.file 6 "/home/wicker/tools/ChibiOS_2.6.3/os/ports/common/ARMCMx/CMSIS/include/core_cm4.h"