ARM GAS  /tmp/ccLD5H7X.s 			page 1


   1              		.syntax unified
   2              		.cpu cortex-m4
   3              		.eabi_attribute 27, 3
   4              		.eabi_attribute 28, 1
   5              		.fpu fpv4-sp-d16
   6              		.eabi_attribute 20, 1
   7              		.eabi_attribute 21, 1
   8              		.eabi_attribute 23, 3
   9              		.eabi_attribute 24, 1
  10              		.eabi_attribute 25, 1
  11              		.eabi_attribute 26, 1
  12              		.eabi_attribute 30, 2
  13              		.eabi_attribute 34, 1
  14              		.eabi_attribute 18, 4
  15              		.thumb
  16              		.file	"pwm_lld.c"
  17              		.text
  18              	.Ltext0:
  19              		.cfi_sections	.debug_frame
  20              		.section	.text.VectorB8,"ax",%progbits
  21              		.align	2
  22              		.p2align 4,,15
  23              		.global	VectorB8
  24              		.thumb
  25              		.thumb_func
  26              		.type	VectorB8, %function
  27              	VectorB8:
  28              	.LFB119:
  29              		.file 1 "/home/wicker/tools/ChibiOS_2.6.3/os/hal/platforms/STM32/TIMv1/pwm_lld.c"
  30              		.loc 1 235 0
  31              		.cfi_startproc
  32              		@ args = 0, pretend = 0, frame = 0
  33              		@ frame_needed = 0, uses_anonymous_args = 0
  34              	.LVL0:
  35 0000 38B5     		push	{r3, r4, r5, lr}
  36              	.LCFI0:
  37              		.cfi_def_cfa_offset 16
  38              		.cfi_offset 3, -16
  39              		.cfi_offset 4, -12
  40              		.cfi_offset 5, -8
  41              		.cfi_offset 14, -4
  42              	.LBB4:
  43              	.LBB5:
  44              		.loc 1 115 0
  45 0002 1C4D     		ldr	r5, .L27
  46 0004 2B69     		ldr	r3, [r5, #16]
  47 0006 1A69     		ldr	r2, [r3, #16]
  48              	.LVL1:
  49              		.loc 1 116 0
  50 0008 DC68     		ldr	r4, [r3, #12]
  51 000a 1440     		ands	r4, r4, r2
  52 000c A4B2     		uxth	r4, r4
  53              	.LVL2:
  54              		.loc 1 117 0
  55 000e E1B2     		uxtb	r1, r4
  56              		.loc 1 118 0
  57 0010 04F00202 		and	r2, r4, #2
ARM GAS  /tmp/ccLD5H7X.s 			page 2


  58              		.loc 1 117 0
  59 0014 C943     		mvns	r1, r1
  60              		.loc 1 118 0
  61 0016 92B2     		uxth	r2, r2
  62              		.loc 1 117 0
  63 0018 1961     		str	r1, [r3, #16]
  64              		.loc 1 118 0
  65 001a 002A     		cmp	r2, #0
  66 001c 24D1     		bne	.L23
  67              	.L2:
  68              		.loc 1 120 0
  69 001e 04F00403 		and	r3, r4, #4
  70 0022 9BB2     		uxth	r3, r3
  71 0024 DBB9     		cbnz	r3, .L24
  72              	.L3:
  73              		.loc 1 122 0
  74 0026 04F00803 		and	r3, r4, #8
  75 002a 9BB2     		uxth	r3, r3
  76 002c 93B9     		cbnz	r3, .L25
  77              	.L4:
  78              		.loc 1 124 0
  79 002e 04F01003 		and	r3, r4, #16
  80 0032 9BB2     		uxth	r3, r3
  81 0034 4BB9     		cbnz	r3, .L26
  82              	.L5:
  83              		.loc 1 126 0
  84 0036 E307     		lsls	r3, r4, #31
  85 0038 03D5     		bpl	.L6
  86              		.loc 1 127 0
  87 003a 6B68     		ldr	r3, [r5, #4]
  88 003c 0D48     		ldr	r0, .L27
  89 003e 9B68     		ldr	r3, [r3, #8]
  90 0040 9847     		blx	r3
  91              	.LVL3:
  92              	.L6:
  93              	.LBE5:
  94              	.LBE4:
  95              		.loc 1 242 0
  96 0042 BDE83840 		pop	{r3, r4, r5, lr}
  97              		.loc 1 241 0
  98 0046 FFF7FEBF 		b	_port_irq_epilogue
  99              	.LVL4:
 100              	.L26:
 101              	.LBB7:
 102              	.LBB6:
 103              		.loc 1 125 0
 104 004a 6B68     		ldr	r3, [r5, #4]
 105 004c 0948     		ldr	r0, .L27
 106 004e 9B6A     		ldr	r3, [r3, #40]
 107 0050 9847     		blx	r3
 108              	.LVL5:
 109 0052 F0E7     		b	.L5
 110              	.L25:
 111              		.loc 1 123 0
 112 0054 6B68     		ldr	r3, [r5, #4]
 113 0056 0748     		ldr	r0, .L27
 114 0058 1B6A     		ldr	r3, [r3, #32]
ARM GAS  /tmp/ccLD5H7X.s 			page 3


 115 005a 9847     		blx	r3
 116              	.LVL6:
 117 005c E7E7     		b	.L4
 118              	.L24:
 119              		.loc 1 121 0
 120 005e 6B68     		ldr	r3, [r5, #4]
 121 0060 0448     		ldr	r0, .L27
 122 0062 9B69     		ldr	r3, [r3, #24]
 123 0064 9847     		blx	r3
 124              	.LVL7:
 125 0066 DEE7     		b	.L3
 126              	.L23:
 127              		.loc 1 119 0
 128 0068 6B68     		ldr	r3, [r5, #4]
 129 006a 2846     		mov	r0, r5
 130 006c 1B69     		ldr	r3, [r3, #16]
 131 006e 9847     		blx	r3
 132              	.LVL8:
 133 0070 D5E7     		b	.L2
 134              	.L28:
 135 0072 00BF     		.align	2
 136              	.L27:
 137 0074 00000000 		.word	.LANCHOR0
 138              	.LBE6:
 139              	.LBE7:
 140              		.cfi_endproc
 141              	.LFE119:
 142              		.size	VectorB8, .-VectorB8
 143 0078 AFF30080 		.section	.text.pwm_lld_init,"ax",%progbits
 143      AFF30080 
 144              		.align	2
 145              		.p2align 4,,15
 146              		.global	pwm_lld_init
 147              		.thumb
 148              		.thumb_func
 149              		.type	pwm_lld_init, %function
 150              	pwm_lld_init:
 151              	.LFB120:
 152              		.loc 1 345 0
 153              		.cfi_startproc
 154              		@ args = 0, pretend = 0, frame = 0
 155              		@ frame_needed = 0, uses_anonymous_args = 0
 156 0000 10B5     		push	{r4, lr}
 157              	.LCFI1:
 158              		.cfi_def_cfa_offset 8
 159              		.cfi_offset 4, -8
 160              		.cfi_offset 14, -4
 161              		.loc 1 367 0
 162 0002 40F20004 		movw	r4, #:lower16:.LANCHOR0
 163 0006 C0F20004 		movt	r4, #:upper16:.LANCHOR0
 164 000a 2046     		mov	r0, r4
 165 000c FFF7FEFF 		bl	pwmObjectInit
 166              	.LVL9:
 167              		.loc 1 368 0
 168 0010 4FF40063 		mov	r3, #2048
 169 0014 C4F20003 		movt	r3, 16384
 170 0018 2361     		str	r3, [r4, #16]
ARM GAS  /tmp/ccLD5H7X.s 			page 4


 171 001a 10BD     		pop	{r4, pc}
 172              		.cfi_endproc
 173              	.LFE120:
 174              		.size	pwm_lld_init, .-pwm_lld_init
 175 001c AFF30080 		.section	.text.pwm_lld_start,"ax",%progbits
 176              		.align	2
 177              		.p2align 4,,15
 178              		.global	pwm_lld_start
 179              		.thumb
 180              		.thumb_func
 181              		.type	pwm_lld_start, %function
 182              	pwm_lld_start:
 183              	.LFB121:
 184              		.loc 1 399 0
 185              		.cfi_startproc
 186              		@ args = 0, pretend = 0, frame = 0
 187              		@ frame_needed = 0, uses_anonymous_args = 0
 188              	.LVL10:
 189              		.loc 1 403 0
 190 0000 0378     		ldrb	r3, [r0, #0]	@ zero_extendqisi2
 191 0002 012B     		cmp	r3, #1
 192              		.loc 1 399 0
 193 0004 70B5     		push	{r4, r5, r6, lr}
 194              	.LCFI2:
 195              		.cfi_def_cfa_offset 16
 196              		.cfi_offset 4, -16
 197              		.cfi_offset 5, -12
 198              		.cfi_offset 6, -8
 199              		.cfi_offset 14, -4
 200              		.loc 1 399 0
 201 0006 0446     		mov	r4, r0
 202              		.loc 1 403 0
 203 0008 65D0     		beq	.L57
 204              		.loc 1 492 0
 205 000a 4268     		ldr	r2, [r0, #4]
 206              		.loc 1 491 0
 207 000c 0369     		ldr	r3, [r0, #16]
 208              		.loc 1 492 0
 209 000e 106B     		ldr	r0, [r2, #48]
 210              	.LVL11:
 211              		.loc 1 491 0
 212 0010 0021     		movs	r1, #0
 213              		.loc 1 492 0
 214 0012 20F0FF00 		bic	r0, r0, #255
 215              		.loc 1 491 0
 216 0016 1960     		str	r1, [r3, #0]
 217              		.loc 1 492 0
 218 0018 D860     		str	r0, [r3, #12]
 219              		.loc 1 494 0
 220 001a 1961     		str	r1, [r3, #16]
 221              		.loc 1 495 0
 222 001c 5963     		str	r1, [r3, #52]
 223              		.loc 1 496 0
 224 001e 9963     		str	r1, [r3, #56]
 225              		.loc 1 497 0
 226 0020 D963     		str	r1, [r3, #60]
 227              		.loc 1 498 0
ARM GAS  /tmp/ccLD5H7X.s 			page 5


 228 0022 1964     		str	r1, [r3, #64]
 229              		.loc 1 499 0
 230 0024 5962     		str	r1, [r3, #36]
 231              	.L33:
 232              	.LVL12:
 233              		.loc 1 503 0
 234 0026 E668     		ldr	r6, [r4, #12]
 235 0028 1568     		ldr	r5, [r2, #0]
 236              		.loc 1 508 0
 237 002a 2489     		ldrh	r4, [r4, #8]
 238              	.LVL13:
 239              		.loc 1 513 0
 240 002c D168     		ldr	r1, [r2, #12]
 241              		.loc 1 509 0
 242 002e D06A     		ldr	r0, [r2, #44]
 243              		.loc 1 503 0
 244 0030 B6FBF5F5 		udiv	r5, r6, r5
 245 0034 013D     		subs	r5, r5, #1
 246              	.LVL14:
 247              		.loc 1 508 0
 248 0036 013C     		subs	r4, r4, #1
 249              		.loc 1 513 0
 250 0038 01F00F01 		and	r1, r1, #15
 251              		.loc 1 507 0
 252 003c ADB2     		uxth	r5, r5
 253              	.LVL15:
 254              		.loc 1 508 0
 255 003e A4B2     		uxth	r4, r4
 256              		.loc 1 513 0
 257 0040 0129     		cmp	r1, #1
 258              		.loc 1 507 0
 259 0042 9D62     		str	r5, [r3, #40]
 260              		.loc 1 508 0
 261 0044 DC62     		str	r4, [r3, #44]
 262              		.loc 1 509 0
 263 0046 5860     		str	r0, [r3, #4]
 264              	.LVL16:
 265              		.loc 1 513 0
 266 0048 03D0     		beq	.L34
 267              		.loc 1 512 0
 268 004a 0229     		cmp	r1, #2
 269 004c 0CBF     		ite	eq
 270 004e 0321     		moveq	r1, #3
 271 0050 0021     		movne	r1, #0
 272              	.L34:
 273              	.LVL17:
 274              		.loc 1 521 0
 275 0052 5069     		ldr	r0, [r2, #20]
 276 0054 00F00F00 		and	r0, r0, #15
 277 0058 0128     		cmp	r0, #1
 278 005a 21D0     		beq	.L38
 279 005c 0228     		cmp	r0, #2
 280 005e 1DD0     		beq	.L58
 281              		.loc 1 529 0
 282 0060 D069     		ldr	r0, [r2, #28]
 283 0062 00F00F00 		and	r0, r0, #15
 284 0066 0128     		cmp	r0, #1
ARM GAS  /tmp/ccLD5H7X.s 			page 6


 285 0068 21D0     		beq	.L41
 286              	.LVL18:
 287              	.L61:
 288 006a 0228     		cmp	r0, #2
 289 006c 2ED0     		beq	.L59
 290              	.LVL19:
 291              		.loc 1 537 0
 292 006e 506A     		ldr	r0, [r2, #36]
 293 0070 00F00F00 		and	r0, r0, #15
 294 0074 0128     		cmp	r0, #1
 295 0076 21D0     		beq	.L44
 296              	.LVL20:
 297              	.L62:
 298 0078 0228     		cmp	r0, #2
 299 007a 22D0     		beq	.L60
 300              	.L43:
 301              	.LVL21:
 302              		.loc 1 582 0
 303 007c 1962     		str	r1, [r3, #32]
 304              		.loc 1 583 0
 305 007e 0121     		movs	r1, #1
 306              	.LVL22:
 307 0080 5961     		str	r1, [r3, #20]
 308              		.loc 1 584 0
 309 0082 D968     		ldr	r1, [r3, #12]
 310 0084 9268     		ldr	r2, [r2, #8]
 311              	.LVL23:
 312 0086 002A     		cmp	r2, #0
 313 0088 0CBF     		ite	eq
 314 008a 0A46     		moveq	r2, r1
 315 008c 41F00102 		orrne	r2, r1, #1
 316 0090 DA60     		str	r2, [r3, #12]
 317              		.loc 1 585 0
 318 0092 0022     		movs	r2, #0
 319 0094 1A61     		str	r2, [r3, #16]
 320              		.loc 1 594 0
 321 0096 8522     		movs	r2, #133
 322 0098 1A60     		str	r2, [r3, #0]
 323 009a 70BD     		pop	{r4, r5, r6, pc}
 324              	.LVL24:
 325              	.L58:
 326              		.loc 1 523 0
 327 009c 41F02001 		orr	r1, r1, #32
 328              	.LVL25:
 329              	.L38:
 330              		.loc 1 529 0
 331 00a0 D069     		ldr	r0, [r2, #28]
 332 00a2 00F00F00 		and	r0, r0, #15
 333 00a6 0128     		cmp	r0, #1
 334              		.loc 1 525 0
 335 00a8 41F01001 		orr	r1, r1, #16
 336              	.LVL26:
 337              		.loc 1 529 0
 338 00ac DDD1     		bne	.L61
 339              	.LVL27:
 340              	.L41:
 341              		.loc 1 533 0
ARM GAS  /tmp/ccLD5H7X.s 			page 7


 342 00ae 41F48071 		orr	r1, r1, #256
 343              	.LVL28:
 344              	.L63:
 345              		.loc 1 537 0
 346 00b2 506A     		ldr	r0, [r2, #36]
 347 00b4 00F00F00 		and	r0, r0, #15
 348 00b8 0128     		cmp	r0, #1
 349 00ba DDD1     		bne	.L62
 350              	.LVL29:
 351              	.L44:
 352              		.loc 1 541 0
 353 00bc 41F48051 		orr	r1, r1, #4096
 354              	.LVL30:
 355 00c0 DCE7     		b	.L43
 356              	.LVL31:
 357              	.L60:
 358              		.loc 1 539 0
 359 00c2 41F40051 		orr	r1, r1, #8192
 360              	.LVL32:
 361              		.loc 1 541 0
 362 00c6 41F48051 		orr	r1, r1, #4096
 363              	.LVL33:
 364 00ca D7E7     		b	.L43
 365              	.LVL34:
 366              	.L59:
 367              		.loc 1 531 0
 368 00cc 41F40071 		orr	r1, r1, #512
 369              	.LVL35:
 370              		.loc 1 533 0
 371 00d0 41F48071 		orr	r1, r1, #256
 372              	.LVL36:
 373 00d4 EDE7     		b	.L63
 374              	.LVL37:
 375              	.L57:
 376              		.loc 1 439 0
 377 00d6 114B     		ldr	r3, .L65
 378 00d8 9842     		cmp	r0, r3
 379 00da 06D0     		beq	.L64
 380              	.LVL38:
 381              	.L32:
 382              		.loc 1 484 0
 383 00dc 2369     		ldr	r3, [r4, #16]
 384 00de 6268     		ldr	r2, [r4, #4]
 385 00e0 46F66801 		movw	r1, #26728
 386 00e4 9961     		str	r1, [r3, #24]
 387              		.loc 1 486 0
 388 00e6 D961     		str	r1, [r3, #28]
 389 00e8 9DE7     		b	.L33
 390              	.LVL39:
 391              	.L64:
 392              		.loc 1 440 0
 393 00ea 4FF46053 		mov	r3, #14336
 394 00ee C4F20203 		movt	r3, 16386
 395              		.loc 1 442 0
 396 00f2 1E20     		movs	r0, #30
 397              	.LVL40:
 398              		.loc 1 440 0
ARM GAS  /tmp/ccLD5H7X.s 			page 8


 399 00f4 1A6C     		ldr	r2, [r3, #64]
 400 00f6 42F00402 		orr	r2, r2, #4
 401 00fa 1A64     		str	r2, [r3, #64]
 402              		.loc 1 441 0
 403 00fc 1A6A     		ldr	r2, [r3, #32]
 404 00fe 42F00402 		orr	r2, r2, #4
 405 0102 1A62     		str	r2, [r3, #32]
 406 0104 0022     		movs	r2, #0
 407 0106 1A62     		str	r2, [r3, #32]
 408              		.loc 1 442 0
 409 0108 7021     		movs	r1, #112
 410 010a FFF7FEFF 		bl	nvicEnableVector
 411              	.LVL41:
 412              		.loc 1 444 0
 413 010e 4FF43D43 		mov	r3, #48384
 414 0112 C0F20153 		movt	r3, 1281
 415 0116 E360     		str	r3, [r4, #12]
 416 0118 E0E7     		b	.L32
 417              	.L66:
 418 011a 00BF     		.align	2
 419              	.L65:
 420 011c 00000000 		.word	.LANCHOR0
 421              		.cfi_endproc
 422              	.LFE121:
 423              		.size	pwm_lld_start, .-pwm_lld_start
 424              		.section	.text.pwm_lld_stop,"ax",%progbits
 425              		.align	2
 426              		.p2align 4,,15
 427              		.global	pwm_lld_stop
 428              		.thumb
 429              		.thumb_func
 430              		.type	pwm_lld_stop, %function
 431              	pwm_lld_stop:
 432              	.LFB122:
 433              		.loc 1 605 0
 434              		.cfi_startproc
 435              		@ args = 0, pretend = 0, frame = 0
 436              		@ frame_needed = 0, uses_anonymous_args = 0
 437              	.LVL42:
 438 0000 08B5     		push	{r3, lr}
 439              	.LCFI3:
 440              		.cfi_def_cfa_offset 8
 441              		.cfi_offset 3, -8
 442              		.cfi_offset 14, -4
 443              		.loc 1 608 0
 444 0002 0378     		ldrb	r3, [r0, #0]	@ zero_extendqisi2
 445 0004 022B     		cmp	r3, #2
 446 0006 00D0     		beq	.L71
 447              	.LVL43:
 448              	.L67:
 449 0008 08BD     		pop	{r3, pc}
 450              	.LVL44:
 451              	.L71:
 452              		.loc 1 609 0
 453 000a 0369     		ldr	r3, [r0, #16]
 454 000c 0022     		movs	r2, #0
 455 000e 1A60     		str	r2, [r3, #0]
ARM GAS  /tmp/ccLD5H7X.s 			page 9


 456              		.loc 1 610 0
 457 0010 DA60     		str	r2, [r3, #12]
 458              		.loc 1 611 0
 459 0012 1A61     		str	r2, [r3, #16]
 460              		.loc 1 636 0
 461 0014 074B     		ldr	r3, .L72
 462 0016 9842     		cmp	r0, r3
 463 0018 F6D1     		bne	.L67
 464              		.loc 1 637 0
 465 001a 1E20     		movs	r0, #30
 466              	.LVL45:
 467 001c FFF7FEFF 		bl	nvicDisableVector
 468              	.LVL46:
 469              		.loc 1 638 0
 470 0020 4FF46053 		mov	r3, #14336
 471 0024 C4F20203 		movt	r3, 16386
 472 0028 1A6C     		ldr	r2, [r3, #64]
 473 002a 22F00402 		bic	r2, r2, #4
 474 002e 1A64     		str	r2, [r3, #64]
 475 0030 EAE7     		b	.L67
 476              	.L73:
 477 0032 00BF     		.align	2
 478              	.L72:
 479 0034 00000000 		.word	.LANCHOR0
 480              		.cfi_endproc
 481              	.LFE122:
 482              		.size	pwm_lld_stop, .-pwm_lld_stop
 483 0038 AFF30080 		.section	.text.pwm_lld_enable_channel,"ax",%progbits
 483      AFF30080 
 484              		.align	2
 485              		.p2align 4,,15
 486              		.global	pwm_lld_enable_channel
 487              		.thumb
 488              		.thumb_func
 489              		.type	pwm_lld_enable_channel, %function
 490              	pwm_lld_enable_channel:
 491              	.LFB123:
 492              		.loc 1 677 0
 493              		.cfi_startproc
 494              		@ args = 0, pretend = 0, frame = 0
 495              		@ frame_needed = 0, uses_anonymous_args = 0
 496              		@ link register save eliminated.
 497              	.LVL47:
 498 0000 10B4     		push	{r4}
 499              	.LCFI4:
 500              		.cfi_def_cfa_offset 4
 501              		.cfi_offset 4, -4
 502              		.loc 1 682 0
 503 0002 4468     		ldr	r4, [r0, #4]
 504              		.loc 1 679 0
 505 0004 0369     		ldr	r3, [r0, #16]
 506              		.loc 1 682 0
 507 0006 04EBC100 		add	r0, r4, r1, lsl #3
 508              	.LVL48:
 509              		.loc 1 679 0
 510 000a 01F10C04 		add	r4, r1, #12
 511 000e 03EB8404 		add	r4, r3, r4, lsl #2
ARM GAS  /tmp/ccLD5H7X.s 			page 10


 512              		.loc 1 682 0
 513 0012 0069     		ldr	r0, [r0, #16]
 514              		.loc 1 679 0
 515 0014 6260     		str	r2, [r4, #4]
 516              		.loc 1 682 0
 517 0016 48B1     		cbz	r0, .L74
 518              	.LBB8:
 519              		.loc 1 686 0
 520 0018 0220     		movs	r0, #2
 521              		.loc 1 683 0
 522 001a DA68     		ldr	r2, [r3, #12]
 523              	.LVL49:
 524              		.loc 1 686 0
 525 001c 00FA01F1 		lsl	r1, r0, r1
 526              	.LVL50:
 527 0020 1142     		tst	r1, r2
 528 0022 03D1     		bne	.L74
 529              		.loc 1 687 0
 530 0024 0A43     		orrs	r2, r2, r1
 531              	.LVL51:
 532              		.loc 1 688 0
 533 0026 C943     		mvns	r1, r1
 534              		.loc 1 687 0
 535 0028 DA60     		str	r2, [r3, #12]
 536              		.loc 1 688 0
 537 002a 1961     		str	r1, [r3, #16]
 538              	.L74:
 539              	.LBE8:
 540              		.loc 1 691 0
 541 002c 10BC     		pop	{r4}
 542 002e 7047     		bx	lr
 543              		.cfi_endproc
 544              	.LFE123:
 545              		.size	pwm_lld_enable_channel, .-pwm_lld_enable_channel
 546              		.section	.text.pwm_lld_disable_channel,"ax",%progbits
 547              		.align	2
 548              		.p2align 4,,15
 549              		.global	pwm_lld_disable_channel
 550              		.thumb
 551              		.thumb_func
 552              		.type	pwm_lld_disable_channel, %function
 553              	pwm_lld_disable_channel:
 554              	.LFB124:
 555              		.loc 1 705 0
 556              		.cfi_startproc
 557              		@ args = 0, pretend = 0, frame = 0
 558              		@ frame_needed = 0, uses_anonymous_args = 0
 559              		@ link register save eliminated.
 560              	.LVL52:
 561              		.loc 1 707 0
 562 0000 0369     		ldr	r3, [r0, #16]
 563 0002 01F10C02 		add	r2, r1, #12
 564 0006 03EB8202 		add	r2, r3, r2, lsl #2
 565 000a 0020     		movs	r0, #0
 566              	.LVL53:
 567 000c 5060     		str	r0, [r2, #4]
 568              		.loc 1 708 0
ARM GAS  /tmp/ccLD5H7X.s 			page 11


 569 000e DA68     		ldr	r2, [r3, #12]
 570 0010 0220     		movs	r0, #2
 571 0012 00FA01F1 		lsl	r1, r0, r1
 572              	.LVL54:
 573 0016 22EA0101 		bic	r1, r2, r1
 574 001a D960     		str	r1, [r3, #12]
 575 001c 7047     		bx	lr
 576              		.cfi_endproc
 577              	.LFE124:
 578              		.size	pwm_lld_disable_channel, .-pwm_lld_disable_channel
 579              		.global	PWMD4
 580 001e 00BF     		.section	.bss.PWMD4,"aw",%nobits
 581              		.align	2
 582              		.set	.LANCHOR0,. + 0
 583              		.type	PWMD4, %object
 584              		.size	PWMD4, 20
 585              	PWMD4:
 586 0000 00000000 		.space	20
 586      00000000 
 586      00000000 
 586      00000000 
 586      00000000 
 587              		.text
 588              	.Letext0:
 589              		.file 2 "/opt/psas/x-tools/stm32f407/arm-psas-eabi/bin/../lib/gcc/arm-psas-eabi/4.7.2/../../../../
 590              		.file 3 "/home/wicker/tools/ChibiOS_2.6.3/os/hal/platforms/STM32F4xx/stm32f4xx.h"
 591              		.file 4 "/home/wicker/tools/ChibiOS_2.6.3/os/hal/include/pwm.h"
 592              		.file 5 "/home/wicker/tools/ChibiOS_2.6.3/os/hal/platforms/STM32/TIMv1/pwm_lld.h"
 593              		.file 6 "/home/wicker/tools/ChibiOS_2.6.3/os/hal/platforms/STM32/TIMv1/stm32_tim.h"
 594              		.file 7 "/home/wicker/tools/ChibiOS_2.6.3/os/ports/common/ARMCMx/CMSIS/include/core_cm4.h"
 595              		.file 8 "/home/wicker/tools/ChibiOS_2.6.3/os/ports/common/ARMCMx/nvic.h"
 596              		.file 9 "/home/wicker/tools/ChibiOS_2.6.3/os/ports/GCC/ARMCMx/chcore_v7m.h"