ARM GAS  /tmp/ccJH0Mxb.s 			page 1


   1              		.syntax unified
   2              		.cpu cortex-m4
   3              		.eabi_attribute 27, 3
   4              		.eabi_attribute 28, 1
   5              		.fpu fpv4-sp-d16
   6              		.eabi_attribute 20, 1
   7              		.eabi_attribute 21, 1
   8              		.eabi_attribute 23, 3
   9              		.eabi_attribute 24, 1
  10              		.eabi_attribute 25, 1
  11              		.eabi_attribute 26, 1
  12              		.eabi_attribute 30, 2
  13              		.eabi_attribute 34, 1
  14              		.eabi_attribute 18, 4
  15              		.thumb
  16              		.file	"serial_lld.c"
  17              		.text
  18              	.Ltext0:
  19              		.cfi_sections	.debug_frame
  20              		.section	.text.notify2,"ax",%progbits
  21              		.align	2
  22              		.p2align 4,,15
  23              		.thumb
  24              		.thumb_func
  25              		.type	notify2, %function
  26              	notify2:
  27              	.LFB122:
  28              		.file 1 "/home/wicker/tools/ChibiOS_2.6.3/os/hal/platforms/STM32/USARTv1/serial_lld.c"
  29              		.loc 1 211 0
  30              		.cfi_startproc
  31              		@ args = 0, pretend = 0, frame = 0
  32              		@ frame_needed = 0, uses_anonymous_args = 0
  33              		@ link register save eliminated.
  34              	.LVL0:
  35              		.loc 1 214 0
  36 0000 4FF48843 		mov	r3, #17408
  37 0004 C4F20003 		movt	r3, 16384
  38 0008 9A89     		ldrh	r2, [r3, #12]
  39 000a 92B2     		uxth	r2, r2
  40 000c 42F08002 		orr	r2, r2, #128
  41 0010 9A81     		strh	r2, [r3, #12]	@ movhi
  42 0012 7047     		bx	lr
  43              		.cfi_endproc
  44              	.LFE122:
  45              		.size	notify2, .-notify2
  46              		.section	.text.VectorD8,"ax",%progbits
  47              		.align	2
  48              		.p2align 4,,15
  49              		.global	VectorD8
  50              		.thumb
  51              		.thumb_func
  52              		.type	VectorD8, %function
  53              	VectorD8:
  54              	.LFB123:
  55              		.loc 1 282 0
  56              		.cfi_startproc
  57              		@ args = 0, pretend = 0, frame = 0
ARM GAS  /tmp/ccJH0Mxb.s 			page 2


  58              		@ frame_needed = 0, uses_anonymous_args = 0
  59              	.LVL1:
  60              	.LBB26:
  61              	.LBB27:
  62              		.loc 1 155 0
  63 0000 4448     		ldr	r0, .L49
  64              	.LBE27:
  65              	.LBE26:
  66              		.loc 1 282 0
  67 0002 70B5     		push	{r4, r5, r6, lr}
  68              	.LCFI0:
  69              		.cfi_def_cfa_offset 16
  70              		.cfi_offset 4, -16
  71              		.cfi_offset 5, -12
  72              		.cfi_offset 6, -8
  73              		.cfi_offset 14, -4
  74              	.LBB41:
  75              	.LBB39:
  76              		.loc 1 155 0
  77 0004 456F     		ldr	r5, [r0, #116]
  78              	.LVL2:
  79              		.loc 1 156 0
  80 0006 AE89     		ldrh	r6, [r5, #12]
  81              		.loc 1 157 0
  82 0008 2C88     		ldrh	r4, [r5, #0]
  83 000a A4B2     		uxth	r4, r4
  84              		.loc 1 160 0
  85 000c 04F48073 		and	r3, r4, #256
  86 0010 9BB2     		uxth	r3, r3
  87              		.loc 1 156 0
  88 0012 B6B2     		uxth	r6, r6
  89              	.LVL3:
  90              		.loc 1 160 0
  91 0014 002B     		cmp	r3, #0
  92 0016 54D1     		bne	.L46
  93              	.L3:
  94              	.LBB28:
  95              		.loc 1 168 0
  96 0018 2023     		movs	r3, #32
  97              	.LVL4:
  98              	@ 168 "/home/wicker/tools/ChibiOS_2.6.3/os/hal/platforms/STM32/USARTv1/serial_lld.c" 1
  99 001a 83F31188 		msr     BASEPRI, r3
 100              	@ 0 "" 2
 101              	.LVL5:
 102              		.thumb
 103              	.LBE28:
 104              		.loc 1 169 0
 105 001e 2340     		ands	r3, r3, r4
 106              	.LVL6:
 107 0020 9BB2     		uxth	r3, r3
 108 0022 5BB9     		cbnz	r3, .L34
 109 0024 28E0     		b	.L4
 110              	.LVL7:
 111              	.L5:
 112              		.loc 1 173 0
 113 0026 A988     		ldrh	r1, [r5, #4]
 114 0028 3A48     		ldr	r0, .L49
ARM GAS  /tmp/ccJH0Mxb.s 			page 3


 115 002a C9B2     		uxtb	r1, r1
 116 002c FFF7FEFF 		bl	sdIncomingDataI
 117              	.LVL8:
 118              		.loc 1 174 0
 119 0030 2C88     		ldrh	r4, [r5, #0]
 120 0032 A4B2     		uxth	r4, r4
 121              	.LVL9:
 122              		.loc 1 169 0
 123 0034 04F02003 		and	r3, r4, #32
 124 0038 9BB2     		uxth	r3, r3
 125 003a EBB1     		cbz	r3, .L4
 126              	.LVL10:
 127              	.L34:
 128              		.loc 1 171 0
 129 003c 2307     		lsls	r3, r4, #28
 130 003e F2D0     		beq	.L5
 131              	.LVL11:
 132              	.LBB29:
 133              	.LBB30:
 134              		.loc 1 138 0
 135 0040 04F00801 		and	r1, r4, #8
 136              		.loc 1 142 0
 137 0044 04F00203 		and	r3, r4, #2
 138              		.loc 1 138 0
 139 0048 89B2     		uxth	r1, r1
 140              		.loc 1 139 0
 141 004a 0029     		cmp	r1, #0
 142 004c 14BF     		ite	ne
 143 004e 8021     		movne	r1, #128
 144 0050 0021     		moveq	r1, #0
 145              	.LVL12:
 146              		.loc 1 142 0
 147 0052 9BB2     		uxth	r3, r3
 148              		.loc 1 140 0
 149 0054 14F0010F 		tst	r4, #1
 150              		.loc 1 144 0
 151 0058 04F00404 		and	r4, r4, #4
 152              	.LVL13:
 153              		.loc 1 146 0
 154 005c 2E48     		ldr	r0, .L49+4
 155              		.loc 1 141 0
 156 005e 18BF     		it	ne
 157 0060 41F02001 		orrne	r1, r1, #32
 158              	.LVL14:
 159              		.loc 1 144 0
 160 0064 A4B2     		uxth	r4, r4
 161              		.loc 1 142 0
 162 0066 0BB1     		cbz	r3, .L8
 163              		.loc 1 143 0
 164 0068 41F04001 		orr	r1, r1, #64
 165              	.LVL15:
 166              	.L8:
 167              		.loc 1 144 0
 168 006c 0CB1     		cbz	r4, .L9
 169              		.loc 1 145 0
 170 006e 41F48071 		orr	r1, r1, #256
 171              	.LVL16:
ARM GAS  /tmp/ccJH0Mxb.s 			page 4


 172              	.L9:
 173              		.loc 1 146 0
 174 0072 FFF7FEFF 		bl	chEvtBroadcastFlagsI
 175              	.LVL17:
 176 0076 D6E7     		b	.L5
 177              	.LVL18:
 178              	.L4:
 179              	.LBE30:
 180              	.LBE29:
 181              	.LBB31:
 182              		.loc 1 176 0
 183 0078 0023     		movs	r3, #0
 184              	.LVL19:
 185              	@ 176 "/home/wicker/tools/ChibiOS_2.6.3/os/hal/platforms/STM32/USARTv1/serial_lld.c" 1
 186 007a 83F31188 		msr     BASEPRI, r3
 187              	@ 0 "" 2
 188              	.LVL20:
 189              		.thumb
 190              	.LBE31:
 191              		.loc 1 179 0
 192 007e 06F08003 		and	r3, r6, #128
 193              	.LVL21:
 194 0082 9BB2     		uxth	r3, r3
 195 0084 23B1     		cbz	r3, .L11
 196 0086 04F08003 		and	r3, r4, #128
 197 008a 9BB2     		uxth	r3, r3
 198 008c 002B     		cmp	r3, #0
 199 008e 27D1     		bne	.L47
 200              	.LVL22:
 201              	.L11:
 202              		.loc 1 193 0
 203 0090 04F04004 		and	r4, r4, #64
 204 0094 A4B2     		uxth	r4, r4
 205 0096 84B1     		cbz	r4, .L14
 206              	.LBB32:
 207              		.loc 1 194 0
 208 0098 2023     		movs	r3, #32
 209              	.LVL23:
 210              	@ 194 "/home/wicker/tools/ChibiOS_2.6.3/os/hal/platforms/STM32/USARTv1/serial_lld.c" 1
 211 009a 83F31188 		msr     BASEPRI, r3
 212              	@ 0 "" 2
 213              	.LVL24:
 214              		.thumb
 215              	.LBE32:
 216              		.loc 1 195 0
 217 009e 1E48     		ldr	r0, .L49+4
 218 00a0 1021     		movs	r1, #16
 219 00a2 FFF7FEFF 		bl	chEvtBroadcastFlagsI
 220              	.LVL25:
 221              	.LBB33:
 222              		.loc 1 196 0
 223 00a6 0023     		movs	r3, #0
 224              	.LVL26:
 225              	@ 196 "/home/wicker/tools/ChibiOS_2.6.3/os/hal/platforms/STM32/USARTv1/serial_lld.c" 1
 226 00a8 83F31188 		msr     BASEPRI, r3
 227              	@ 0 "" 2
 228              	.LVL27:
ARM GAS  /tmp/ccJH0Mxb.s 			page 5


 229              		.thumb
 230              	.LBE33:
 231              		.loc 1 197 0
 232 00ac 4FF63F73 		movw	r3, #65343
 233              	.LVL28:
 234 00b0 3340     		ands	r3, r3, r6
 235 00b2 AB81     		strh	r3, [r5, #12]	@ movhi
 236              		.loc 1 198 0
 237 00b4 4FF6BF73 		movw	r3, #65471
 238 00b8 2B80     		strh	r3, [r5, #0]	@ movhi
 239              	.LVL29:
 240              	.L14:
 241              	.LBE39:
 242              	.LBE41:
 243              		.loc 1 289 0
 244 00ba BDE87040 		pop	{r4, r5, r6, lr}
 245              		.loc 1 288 0
 246 00be FFF7FEBF 		b	_port_irq_epilogue
 247              	.LVL30:
 248              	.L46:
 249              	.LBB42:
 250              	.LBB40:
 251              	.LBB34:
 252              		.loc 1 161 0
 253 00c2 2023     		movs	r3, #32
 254              	.LVL31:
 255              	@ 161 "/home/wicker/tools/ChibiOS_2.6.3/os/hal/platforms/STM32/USARTv1/serial_lld.c" 1
 256 00c4 83F31188 		msr     BASEPRI, r3
 257              	@ 0 "" 2
 258              	.LVL32:
 259              		.thumb
 260              	.LBE34:
 261              		.loc 1 162 0
 262 00c8 4FF40071 		mov	r1, #512
 263 00cc 0430     		adds	r0, r0, #4
 264 00ce FFF7FEFF 		bl	chEvtBroadcastFlagsI
 265              	.LVL33:
 266              	.LBB35:
 267              		.loc 1 163 0
 268 00d2 0023     		movs	r3, #0
 269              	.LVL34:
 270              	@ 163 "/home/wicker/tools/ChibiOS_2.6.3/os/hal/platforms/STM32/USARTv1/serial_lld.c" 1
 271 00d4 83F31188 		msr     BASEPRI, r3
 272              	@ 0 "" 2
 273              	.LVL35:
 274              		.thumb
 275              	.LBE35:
 276              		.loc 1 164 0
 277 00d8 4FF6FF63 		movw	r3, #65279
 278              	.LVL36:
 279 00dc 2B80     		strh	r3, [r5, #0]	@ movhi
 280 00de 9BE7     		b	.L3
 281              	.LVL37:
 282              	.L47:
 283              	.LBB36:
 284              	.LBB37:
 285              		.loc 1 181 0
ARM GAS  /tmp/ccJH0Mxb.s 			page 6


 286 00e0 2023     		movs	r3, #32
 287              	.LVL38:
 288              	@ 181 "/home/wicker/tools/ChibiOS_2.6.3/os/hal/platforms/STM32/USARTv1/serial_lld.c" 1
 289 00e2 83F31188 		msr     BASEPRI, r3
 290              	@ 0 "" 2
 291              	.LVL39:
 292              		.thumb
 293              	.LBE37:
 294              		.loc 1 182 0
 295 00e6 0D48     		ldr	r0, .L49+8
 296 00e8 FFF7FEFF 		bl	chOQGetI
 297              	.LVL40:
 298              		.loc 1 183 0
 299 00ec 0028     		cmp	r0, #0
 300              		.loc 1 188 0
 301 00ee A4BF     		itt	ge
 302 00f0 80B2     		uxthge	r0, r0
 303              	.LVL41:
 304 00f2 A880     		strhge	r0, [r5, #4]	@ movhi
 305              		.loc 1 183 0
 306 00f4 03DB     		blt	.L48
 307              	.L13:
 308              	.LBB38:
 309              		.loc 1 189 0
 310 00f6 0023     		movs	r3, #0
 311              	@ 189 "/home/wicker/tools/ChibiOS_2.6.3/os/hal/platforms/STM32/USARTv1/serial_lld.c" 1
 312 00f8 83F31188 		msr     BASEPRI, r3
 313              	@ 0 "" 2
 314              	.LVL42:
 315              		.thumb
 316 00fc C8E7     		b	.L11
 317              	.LVL43:
 318              	.L48:
 319              	.LBE38:
 320              		.loc 1 184 0
 321 00fe 0648     		ldr	r0, .L49+4
 322 0100 0821     		movs	r1, #8
 323 0102 FFF7FEFF 		bl	chEvtBroadcastFlagsI
 324              	.LVL44:
 325              		.loc 1 185 0
 326 0106 26F0C003 		bic	r3, r6, #192
 327 010a 43F04003 		orr	r3, r3, #64
 328 010e AB81     		strh	r3, [r5, #12]	@ movhi
 329 0110 F1E7     		b	.L13
 330              	.L50:
 331 0112 00BF     		.align	2
 332              	.L49:
 333 0114 00000000 		.word	.LANCHOR0
 334 0118 04000000 		.word	.LANCHOR0+4
 335 011c 30000000 		.word	.LANCHOR0+48
 336              	.LBE36:
 337              	.LBE40:
 338              	.LBE42:
 339              		.cfi_endproc
 340              	.LFE123:
 341              		.size	VectorD8, .-VectorD8
 342              		.section	.text.sd_lld_init,"ax",%progbits
ARM GAS  /tmp/ccJH0Mxb.s 			page 7


 343              		.align	2
 344              		.p2align 4,,15
 345              		.global	sd_lld_init
 346              		.thumb
 347              		.thumb_func
 348              		.type	sd_lld_init, %function
 349              	sd_lld_init:
 350              	.LFB124:
 351              		.loc 1 377 0
 352              		.cfi_startproc
 353              		@ args = 0, pretend = 0, frame = 0
 354              		@ frame_needed = 0, uses_anonymous_args = 0
 355 0000 10B5     		push	{r4, lr}
 356              	.LCFI1:
 357              		.cfi_def_cfa_offset 8
 358              		.cfi_offset 4, -8
 359              		.cfi_offset 14, -4
 360              		.loc 1 385 0
 361 0002 40F20004 		movw	r4, #:lower16:.LANCHOR0
 362 0006 C0F20004 		movt	r4, #:upper16:.LANCHOR0
 363 000a 40F20002 		movw	r2, #:lower16:notify2
 364 000e 2046     		mov	r0, r4
 365 0010 0021     		movs	r1, #0
 366 0012 C0F20002 		movt	r2, #:upper16:notify2
 367 0016 FFF7FEFF 		bl	sdObjectInit
 368              	.LVL45:
 369              		.loc 1 386 0
 370 001a 4FF48843 		mov	r3, #17408
 371 001e C4F20003 		movt	r3, 16384
 372 0022 6367     		str	r3, [r4, #116]
 373 0024 10BD     		pop	{r4, pc}
 374              		.cfi_endproc
 375              	.LFE124:
 376              		.size	sd_lld_init, .-sd_lld_init
 377 0026 00BFAFF3 		.section	.text.sd_lld_start,"ax",%progbits
 377      0080AFF3 
 377      0080
 378              		.align	2
 379              		.p2align 4,,15
 380              		.global	sd_lld_start
 381              		.thumb
 382              		.thumb_func
 383              		.type	sd_lld_start, %function
 384              	sd_lld_start:
 385              	.LFB125:
 386              		.loc 1 420 0
 387              		.cfi_startproc
 388              		@ args = 0, pretend = 0, frame = 0
 389              		@ frame_needed = 0, uses_anonymous_args = 0
 390              	.LVL46:
 391 0000 38B5     		push	{r3, r4, r5, lr}
 392              	.LCFI2:
 393              		.cfi_def_cfa_offset 16
 394              		.cfi_offset 3, -16
 395              		.cfi_offset 4, -12
 396              		.cfi_offset 5, -8
 397              		.cfi_offset 14, -4
ARM GAS  /tmp/ccJH0Mxb.s 			page 8


 398              		.loc 1 425 0
 399 0002 037A     		ldrb	r3, [r0, #8]	@ zero_extendqisi2
 400              		.loc 1 423 0
 401 0004 234C     		ldr	r4, .L59
 402 0006 0029     		cmp	r1, #0
 403 0008 18BF     		it	ne
 404 000a 0C46     		movne	r4, r1
 405              	.LVL47:
 406              		.loc 1 425 0
 407 000c 012B     		cmp	r3, #1
 408              		.loc 1 420 0
 409 000e 0546     		mov	r5, r0
 410              		.loc 1 425 0
 411 0010 30D0     		beq	.L58
 412              	.LVL48:
 413              	.L54:
 414              	.LBB45:
 415              	.LBB46:
 416              		.loc 1 93 0
 417 0012 6B6F     		ldr	r3, [r5, #116]
 418              	.LVL49:
 419              		.loc 1 97 0
 420 0014 4FF4A051 		mov	r1, #5120
 421 0018 4FF48052 		mov	r2, #4096
 422 001c C4F20102 		movt	r2, 16385
 423 0020 C4F20101 		movt	r1, 16385
 424 0024 9342     		cmp	r3, r2
 425 0026 18BF     		it	ne
 426 0028 8B42     		cmpne	r3, r1
 427              		.loc 1 101 0
 428 002a 08BF     		it	eq
 429 002c 4FF43D42 		moveq	r2, #48384
 430 0030 2168     		ldr	r1, [r4, #0]
 431              		.loc 1 103 0
 432 0032 16BF     		itet	ne
 433 0034 4DF68062 		movwne	r2, #56960
 434              		.loc 1 101 0
 435 0038 C0F20152 		movteq	r2, 1281
 436              		.loc 1 103 0
 437 003c C0F28022 		movtne	r2, 640
 438 0040 B2FBF1F2 		udiv	r2, r2, r1
 439 0044 92B2     		uxth	r2, r2
 440 0046 1A81     		strh	r2, [r3, #8]	@ movhi
 441              		.loc 1 108 0
 442 0048 A288     		ldrh	r2, [r4, #4]
 443              		.loc 1 106 0
 444 004a E088     		ldrh	r0, [r4, #6]
 445              		.loc 1 107 0
 446 004c 2189     		ldrh	r1, [r4, #8]
 447              		.loc 1 108 0
 448 004e 42F40452 		orr	r2, r2, #8448
 449              		.loc 1 106 0
 450 0052 40F04000 		orr	r0, r0, #64
 451              		.loc 1 107 0
 452 0056 41F00101 		orr	r1, r1, #1
 453              		.loc 1 108 0
 454 005a 42F02C02 		orr	r2, r2, #44
ARM GAS  /tmp/ccJH0Mxb.s 			page 9


 455 005e 92B2     		uxth	r2, r2
 456              		.loc 1 106 0
 457 0060 80B2     		uxth	r0, r0
 458              		.loc 1 107 0
 459 0062 89B2     		uxth	r1, r1
 460              		.loc 1 106 0
 461 0064 1882     		strh	r0, [r3, #16]	@ movhi
 462              		.loc 1 107 0
 463 0066 9982     		strh	r1, [r3, #20]	@ movhi
 464              		.loc 1 108 0
 465 0068 9A81     		strh	r2, [r3, #12]	@ movhi
 466              		.loc 1 111 0
 467 006a 0022     		movs	r2, #0
 468 006c 1A80     		strh	r2, [r3, #0]	@ movhi
 469              		.loc 1 112 0
 470 006e 1A88     		ldrh	r2, [r3, #0]
 471              		.loc 1 113 0
 472 0070 9B88     		ldrh	r3, [r3, #4]
 473              	.LVL50:
 474 0072 38BD     		pop	{r3, r4, r5, pc}
 475              	.LVL51:
 476              	.L58:
 477              	.LBE46:
 478              	.LBE45:
 479              		.loc 1 434 0
 480 0074 084B     		ldr	r3, .L59+4
 481 0076 9842     		cmp	r0, r3
 482 0078 CBD1     		bne	.L54
 483              		.loc 1 435 0
 484 007a 4FF46053 		mov	r3, #14336
 485 007e C4F20203 		movt	r3, 16386
 486              		.loc 1 436 0
 487 0082 2620     		movs	r0, #38
 488              	.LVL52:
 489              		.loc 1 435 0
 490 0084 1A6C     		ldr	r2, [r3, #64]
 491 0086 42F40032 		orr	r2, r2, #131072
 492 008a 1A64     		str	r2, [r3, #64]
 493              		.loc 1 436 0
 494 008c C021     		movs	r1, #192
 495 008e FFF7FEFF 		bl	nvicEnableVector
 496              	.LVL53:
 497 0092 BEE7     		b	.L54
 498              	.L60:
 499              		.align	2
 500              	.L59:
 501 0094 00000000 		.word	.LANCHOR1
 502 0098 00000000 		.word	.LANCHOR0
 503              		.cfi_endproc
 504              	.LFE125:
 505              		.size	sd_lld_start, .-sd_lld_start
 506 009c AFF30080 		.section	.text.sd_lld_stop,"ax",%progbits
 507              		.align	2
 508              		.p2align 4,,15
 509              		.global	sd_lld_stop
 510              		.thumb
 511              		.thumb_func
ARM GAS  /tmp/ccJH0Mxb.s 			page 10


 512              		.type	sd_lld_stop, %function
 513              	sd_lld_stop:
 514              	.LFB126:
 515              		.loc 1 481 0
 516              		.cfi_startproc
 517              		@ args = 0, pretend = 0, frame = 0
 518              		@ frame_needed = 0, uses_anonymous_args = 0
 519              		@ link register save eliminated.
 520              	.LVL54:
 521              		.loc 1 483 0
 522 0000 037A     		ldrb	r3, [r0, #8]	@ zero_extendqisi2
 523 0002 022B     		cmp	r3, #2
 524 0004 00D0     		beq	.L65
 525              	.L61:
 526 0006 7047     		bx	lr
 527              	.L65:
 528              		.loc 1 484 0
 529 0008 436F     		ldr	r3, [r0, #116]
 530              	.LVL55:
 531              	.LBB47:
 532              	.LBB48:
 533              		.loc 1 124 0
 534 000a 0022     		movs	r2, #0
 535 000c 9A81     		strh	r2, [r3, #12]	@ movhi
 536              		.loc 1 125 0
 537 000e 1A82     		strh	r2, [r3, #16]	@ movhi
 538              		.loc 1 126 0
 539 0010 9A82     		strh	r2, [r3, #20]	@ movhi
 540              	.LBE48:
 541              	.LBE47:
 542              		.loc 1 493 0
 543 0012 074B     		ldr	r3, .L66
 544              	.LVL56:
 545 0014 9842     		cmp	r0, r3
 546 0016 F6D1     		bne	.L61
 547              		.loc 1 494 0
 548 0018 4FF46053 		mov	r3, #14336
 549 001c C4F20203 		movt	r3, 16386
 550              		.loc 1 495 0
 551 0020 2620     		movs	r0, #38
 552              	.LVL57:
 553              		.loc 1 494 0
 554 0022 1A6C     		ldr	r2, [r3, #64]
 555 0024 22F40032 		bic	r2, r2, #131072
 556 0028 1A64     		str	r2, [r3, #64]
 557              		.loc 1 528 0
 558              		.loc 1 495 0
 559 002a FFF7FEBF 		b	nvicDisableVector
 560              	.LVL58:
 561              	.L67:
 562 002e 00BF     		.align	2
 563              	.L66:
 564 0030 00000000 		.word	.LANCHOR0
 565              		.cfi_endproc
 566              	.LFE126:
 567              		.size	sd_lld_stop, .-sd_lld_stop
 568              		.global	SD2
ARM GAS  /tmp/ccJH0Mxb.s 			page 11


 569 0034 AFF30080 		.section	.rodata.default_config,"a",%progbits
 569      AFF30080 
 569      AFF30080 
 570              		.align	2
 571              		.set	.LANCHOR1,. + 0
 572              		.type	default_config, %object
 573              		.size	default_config, 12
 574              	default_config:
 575 0000 00960000 		.word	38400
 576 0004 0000     		.short	0
 577 0006 0040     		.short	16384
 578 0008 0000     		.short	0
 579 000a 0000     		.space	2
 580              		.section	.bss.SD2,"aw",%nobits
 581              		.align	2
 582              		.set	.LANCHOR0,. + 0
 583              		.type	SD2, %object
 584              		.size	SD2, 120
 585              	SD2:
 586 0000 00000000 		.space	120
 586      00000000 
 586      00000000 
 586      00000000 
 586      00000000 
 587              		.text
 588              	.Letext0:
 589              		.file 2 "/opt/psas/x-tools/stm32f407/arm-psas-eabi/bin/../lib/gcc/arm-psas-eabi/4.7.2/include/stdd
 590              		.file 3 "/opt/psas/x-tools/stm32f407/arm-psas-eabi/bin/../lib/gcc/arm-psas-eabi/4.7.2/../../../../
 591              		.file 4 "/home/wicker/tools/ChibiOS_2.6.3/os/ports/GCC/ARMCMx/chtypes.h"
 592              		.file 5 "/home/wicker/tools/ChibiOS_2.6.3/os/kernel/include/chlists.h"
 593              		.file 6 "/home/wicker/tools/ChibiOS_2.6.3/os/kernel/include/chthreads.h"
 594              		.file 7 "/home/wicker/tools/ChibiOS_2.6.3/os/ports/GCC/ARMCMx/chcore_v7m.h"
 595              		.file 8 "/home/wicker/tools/ChibiOS_2.6.3/os/kernel/include/chmtx.h"
 596              		.file 9 "/home/wicker/tools/ChibiOS_2.6.3/os/kernel/include/chevents.h"
 597              		.file 10 "/home/wicker/tools/ChibiOS_2.6.3/os/kernel/include/chqueues.h"
 598              		.file 11 "/home/wicker/tools/ChibiOS_2.6.3/os/hal/platforms/STM32F4xx/stm32f4xx.h"
 599              		.file 12 "/home/wicker/tools/ChibiOS_2.6.3/os/hal/include/serial.h"
 600              		.file 13 "/home/wicker/tools/ChibiOS_2.6.3/os/hal/platforms/STM32/USARTv1/serial_lld.h"
 601              		.file 14 "/home/wicker/tools/ChibiOS_2.6.3/os/ports/common/ARMCMx/nvic.h"
 602              		.file 15 "/home/wicker/tools/ChibiOS_2.6.3/os/ports/common/ARMCMx/CMSIS/include/core_cm4.h"