ARM GAS  /tmp/ccJH0Mxb.s 			page 1


   1              		.syntax unified
   2              		.cpu cortex-m4
   3              		.eabi_attribute 27, 3
   4              		.eabi_attribute 28, 1
   5              		.fpu fpv4-sp-d16
   6              		.eabi_attribute 20, 1
   7              		.eabi_attribute 21, 1
   8              		.eabi_attribute 23, 3
   9              		.eabi_attribute 24, 1
  10              		.eabi_attribute 25, 1
  11              		.eabi_attribute 26, 1
  12              		.eabi_attribute 30, 2
  13              		.eabi_attribute 34, 1
  14              		.eabi_attribute 18, 4
  15              		.thumb
  16              		.file	"serial_lld.c"
  17              		.text
  18              	.Ltext0:
  19              		.cfi_sections	.debug_frame
  20              		.section	.text.notify2,"ax",%progbits
  21              		.align	2
  22              		.p2align 4,,15
  23              		.thumb
  24              		.thumb_func
  25              		.type	notify2, %function
  26              	notify2:
  27              	.LFB122:
  28              		.file 1 "/home/wicker/tools/ChibiOS_2.6.3/os/hal/platforms/STM32/USARTv1/serial_lld.c"
  29              		.loc 1 211 0
  30              		.cfi_startproc
  31              		@ args = 0, pretend = 0, frame = 0
  32              		@ frame_needed = 0, uses_anonymous_args = 0
  33              		@ link register save eliminated.
  34              	.LVL0:
  35              		.loc 1 214 0
  36 0000 4FF48843 		mov	r3, #17408
  37 0004 C4F20003 		movt	r3, 16384
  38 0008 9A89     		ldrh	r2, [r3, #12]
  39 000a 92B2     		uxth	r2, r2
  40 000c 42F08002 		orr	r2, r2, #128
  41 0010 9A81     		strh	r2, [r3, #12]	@ movhi
  42 0012 7047     		bx	lr
  43              		.cfi_endproc
  44              	.LFE122:
  45              		.size	notify2, .-notify2
  46              		.section	.text.VectorD8,"ax",%progbits
  47              		.align	2
  48              		.p2align 4,,15
  49              		.global	VectorD8
  50              		.thumb
  51              		.thumb_func
  52              		.type	VectorD8, %function
  53              	VectorD8:
  54              	.LFB123:
  55              		.loc 1 282 0
  56              		.cfi_startproc
  57              		@ args = 0, pretend = 0, frame = 0
ARM GAS  /tmp/ccJH0Mxb.s 			page 2


  58              		@ frame_needed = 0, uses_anonymous_args = 0
  59              	.LVL1:
  60              	.LBB26:
  61              	.LBB27:
  62              		.loc 1 155 0
  63 0000 4448     		ldr	r0, .L49
  64              	.LBE27:
  65              	.LBE26:
  66              		.loc 1 282 0
  67 0002 70B5     		push	{r4, r5, r6, lr}
  68              	.LCFI0:
  69              		.cfi_def_cfa_offset 16
  70              		.cfi_offset 4, -16
  71              		.cfi_offset 5, -12
  72              		.cfi_offset 6, -8
  73              		.cfi_offset 14, -4
  74              	.LBB41:
  75              	.LBB39:
  76              		.loc 1 155 0
  77 0004 456F     		ldr	r5, [r0, #116]
  78              	.LVL2:
  79              		.loc 1 156 0
  80 0006 AE89     		ldrh	r6, [r5, #12]
  81              		.loc 1 157 0
  82 0008 2C88     		ldrh	r4, [r5, #0]
  83 000a A4B2     		uxth	r4, r4
  84              		.loc 1 160 0
  85 000c 04F48073 		and	r3, r4, #256
  86 0010 9BB2     		uxth	r3, r3
  87              		.loc 1 156 0
  88 0012 B6B2     		uxth	r6, r6
  89              	.LVL3:
  90              		.loc 1 160 0
  91 0014 002B     		cmp	r3, #0
  92 0016 54D1     		bne	.L46
  93              	.L3:
  94              	.LBB28:
  95              		.loc 1 168 0
  96 0018 2023     		movs	r3, #32
  97              	.LVL4:
  98              	@ 168 "/home/wicker/tools/ChibiOS_2.6.3/os/hal/platforms/STM32/USARTv1/serial_lld.c" 1
  99 001a 83F31188 		msr     BASEPRI, r3
 100              	@ 0 "" 2
 101              	.LVL5:
 102              		.thumb
 103              	.LBE28:
 104              		.loc 1 169 0
 105 001e 2340     		ands	r3, r3, r4
 106              	.LVL6:
 107 0020 9BB2     		uxth	r3, r3
 108 0022 5BB9     		cbnz	r3, .L34
 109 0024 28E0     		b	.L4
 110              	.LVL7:
 111              	.L5:
 112              		.loc 1 173 0
 113 0026 A988     		ldrh	r1, [r5, #4]
 114 0028 3A48     		ldr	r0, .L49
ARM GAS  /tmp/ccJH0Mxb.s 			page 3


 115 002a C9B2     		uxtb	r1, r1
 116 002c FFF7FEFF 		bl	sdIncomingDataI
 117              	.LVL8:
 118              		.loc 1 174 0
 119 0030 2C88     		ldrh	r4, [r5, #0]
 120 0032 A4B2     		uxth	r4, r4
 121              	.LVL9:
 122              		.loc 1 169 0
 123 0034 04F02003 		and	r3, r4, #32
 124 0038 9BB2     		uxth	r3, r3
 125 003a EBB1     		cbz	r3, .L4
 126              	.LVL10:
 127              	.L34:
 128              		.loc 1 171 0
 129 003c 2307     		lsls	r3, r4, #28
 130 003e F2D0     		beq	.L5
 131              	.LVL11:
 132              	.LBB29:
 133              	.LBB30:
 134              		.loc 1 138 0
 135 0040 04F00801 		and	r1, r4, #8
 136              		.loc 1 142 0
 137 0044 04F00203 		and	r3, r4, #2
 138              		.loc 1 138 0
 139 0048 89B2     		uxth	r1, r1
 140              		.loc 1 139 0
 141 004a 0029     		cmp	r1, #0
 142 004c 14BF     		ite	ne
 143 004e 8021     		movne	r1, #128
 144 0050 0021     		moveq	r1, #0
 145              	.LVL12:
 146              		.loc 1 142 0
 147 0052 9BB2     		uxth	r3, r3
 148              		.loc 1 140 0
 149 0054 14F0010F 		tst	r4, #1
 150              		.loc 1 144 0
 151 0058 04F00404 		and	r4, r4, #4
 152              	.LVL13:
 153              		.loc 1 146 0
 154 005c 2E48     		ldr	r0, .L49+4
 155              		.loc 1 141 0
 156 005e 18BF     		it	ne
 157 0060 41F02001 		orrne	r1, r1, #32
 158              	.LVL14:
 159              		.loc 1 144 0
 160 0064 A4B2     		uxth	r4, r4
 161              		.loc 1 142 0
 162 0066 0BB1     		cbz	r3, .L8
 163              		.loc 1 143 0
 164 0068 41F04001 		orr	r1, r1, #64
 165              	.LVL15:
 166              	.L8:
 167              		.loc 1 144 0
 168 006c 0CB1     		cbz	r4, .L9
 169              		.loc 1 145 0
 170 006e 41F48071 		orr	r1, r1, #256
 171              	.LVL16:
ARM GAS  /tmp/ccJH0Mxb.s 			page 4


 172              	.L9:
 173              		.loc 1 146 0
 174 0072 FFF7FEFF 		bl	chEvtBroadcastFlagsI
 175              	.LVL17:
 176 0076 D6E7     		b	.L5
 177              	.LVL18:
 178              	.L4:
 179              	.LBE30:
 180              	.LBE29:
 181              	.LBB31:
 182              		.loc 1 176 0
 183 0078 0023     		movs	r3, #0
 184              	.LVL19:
 185              	@ 176 "/home/wicker/tools/ChibiOS_2.6.3/os/hal/platforms/STM32/USARTv1/serial_lld.c" 1
 186 007a 83F31188 		msr     BASEPRI, r3
 187              	@ 0 "" 2
 188              	.LVL20:
 189              		.thumb
 190              	.LBE31:
 191              		.loc 1 179 0
 192 007e 06F08003 		and	r3, r6, #128
 193              	.LVL21:
 194 0082 9BB2     		uxth	r3, r3
 195 0084 23B1     		cbz	r3, .L11
 196 0086 04F08003 		and	r3, r4, #128
 197 008a 9BB2     		uxth	r3, r3
 198 008c 002B     		cmp	r3, #0
 199 008e 27D1     		bne	.L47
 200              	.LVL22:
 201              	.L11:
 202              		.loc 1 193 0
 203 0090 04F04004 		and	r4, r4, #64
 204 0094 A4B2     		uxth	r4, r4
 205 0096 84B1     		cbz	r4, .L14
 206              	.LBB32:
 207              		.loc 1 194 0
 208 0098 2023     		movs	r3, #32
 209              	.LVL23:
 210              	@ 194 "/home/wicker/tools/ChibiOS_2.6.3/os/hal/platforms/STM32/USARTv1/serial_lld.c" 1
 211 009a 83F31188 		msr     BASEPRI, r3
 212              	@ 0 "" 2
 213              	.LVL24:
 214              		.thumb
 215              	.LBE32:
 216              		.loc 1 195 0
 217 009e 1E48     		ldr	r0, .L49+4
 218 00a0 1021     		movs	r1, #16
 219 00a2 FFF7FEFF 		bl	chEvtBroadcastFlagsI
 220              	.LVL25:
 221              	.LBB33:
 222              		.loc 1 196 0
 223 00a6 0023     		movs	r3, #0
 224              	.LVL26:
 225              	@ 196 "/home/wicker/tools/ChibiOS_2.6.3/os/hal/platforms/STM32/USARTv1/serial_lld.c" 1
 226 00a8 83F31188 		msr     BASEPRI, r3
 227              	@ 0 "" 2
 228              	.LVL27:
ARM GAS  /tmp/ccJH0Mxb.s 			page 5


 229              		.thumb
 230              	.LBE33:
 231              		.loc 1 197 0
 232 00ac 4FF63F73 		movw	r3, #65343
 233              	.LVL28:
 234 00b0 3340     		ands	r3, r3, r6
 235 00b2 AB81     		strh	r3, [r5, #12]	@ movhi
 236              		.loc 1 198 0
 237 00b4 4FF6BF73 		movw	r3, #65471
 238 00b8 2B80     		strh	r3, [r5, #0]	@ movhi
 239              	.LVL29:
 240              	.L14:
 241              	.LBE39:
 242              	.LBE41:
 243              		.loc 1 289 0
 244 00ba BDE87040 		pop	{r4, r5, r6, lr}
 245              		.loc 1 288 0
 246 00be FFF7FEBF 		b	_port_irq_epilogue
 247              	.LVL30:
 248              	.L46:
 249              	.LBB42:
 250              	.LBB40:
 251              	.LBB34:
 252              		.loc 1 161 0
 253 00c2 2023     		movs	r3, #32
 254              	.LVL31:
 255              	@ 161 "/home/wicker/tools/ChibiOS_2.6.3/os/hal/platforms/STM32/USARTv1/serial_lld.c" 1
 256 00c4 83F31188 		msr     BASEPRI, r3
 257              	@ 0 "" 2
 258              	.LVL32:
 259              		.thumb
 260              	.LBE34:
 261              		.loc 1 162 0
 262 00c8 4FF40071 		mov	r1, #512
 263 00cc 0430     		adds	r0, r0, #4
 264 00ce FFF7FEFF 		bl	chEvtBroadcastFlagsI
 265              	.LVL33:
 266              	.LBB35:
 267              		.loc 1 163 0
 268 00d2 0023     		movs	r3, #0
 269              	.LVL34:
 270              	@ 163 "/home/wicker/tools/ChibiOS_2.6.3/os/hal/platforms/STM32/USARTv1/serial_lld.c" 1
 271 00d4 83F31188 		msr     BASEPRI, r3
 272              	@ 0 "" 2
 273              	.LVL35:
 274              		.thumb
 275              	.LBE35:
 276              		.loc 1 164 0
 277 00d8 4FF6FF63 		movw	r3, #65279
 278              	.LVL36:
 279 00dc 2B80     		strh	r3, [r5, #0]	@ movhi
 280 00de 9BE7     		b	.L3
 281              	.LVL37:
 282              	.L47:
 283              	.LBB36:
 284              	.LBB37:
 285              		.loc 1 181 0
ARM GAS  /tmp/ccJH0Mxb.s 			page 6


 286 00e0 2023     		movs	r3, #32
 287              	.LVL38:
 288              	@ 181 "/home/wicker/tools/ChibiOS_2.6.3/os/hal/platforms/STM32/USARTv1/serial_lld.c" 1
 289 00e2 83F31188 		msr     BASEPRI, r3
 290              	@ 0 "" 2
 291              	.LVL39:
 292              		.thumb
 293              	.LBE37:
 294              		.loc 1 182 0
 295 00e6 0D48     		ldr	r0, .L49+8
 296 00e8 FFF7FEFF 		bl	chOQGetI
 297              	.LVL40:
 298              		.loc 1 183 0
 299 00ec 0028     		cmp	r0, #0
 300              		.loc 1 188 0
 301 00ee A4BF     		itt	ge
 302 00f0 80B2     		uxthge	r0, r0
 303              	.LVL41:
 304 00f2 A880     		strhge	r0, [r5, #4]	@ movhi
 305              		.loc 1 183 0
 306 00f4 03DB     		blt	.L48
 307              	.L13:
 308              	.LBB38:
 309              		.loc 1 189 0
 310 00f6 0023     		movs	r3, #0
 311              	@ 189 "/home/wicker/tools/ChibiOS_2.6.3/os/hal/platforms/STM32/USARTv1/serial_lld.c" 1
 312 00f8 83F31188 		msr     BASEPRI, r3
 313              	@ 0 "" 2
 314              	.LVL42:
 315              		.thumb
 316 00fc C8E7     		b	.L11
 317              	.LVL43:
 318              	.L48:
 319              	.LBE38:
 320              		.loc 1 184 0
 321 00fe 0648     		ldr	r0, .L49+4
 322 0100 0821     		movs	r1, #8
 323 0102 FFF7FEFF 		bl	chEvtBroadcastFlagsI
 324              	.LVL44:
 325              		.loc 1 185 0
 326 0106 26F0C003 		bic	r3, r6, #192
 327 010a 43F04003 		orr	r3, r3, #64
 328 010e AB81     		strh	r3, [r5, #12]	@ movhi
 329 0110 F1E7     		b	.L13
 330              	.L50:
 331 0112 00BF     		.align	2
 332              	.L49:
 333 0114 00000000 		.word	.LANCHOR0
 334 0118 04000000 		.word	.LANCHOR0+4
 335 011c 30000000 		.word	.LANCHOR0+48
 336              	.LBE36:
 337              	.LBE40:
 338              	.LBE42:
 339              		.cfi_endproc
 340              	.LFE123:
 341              		.size	VectorD8, .-VectorD8
 342              		.section	.text.sd_lld_init,"ax",%progbits
ARM GAS  /tmp/ccJH0Mxb.s 			page 7


 343              		.align	2
 344              		.p2align 4,,15
 345              		.global	sd_lld_init
 346              		.thumb
 347              		.thumb_func
 348              		.type	sd_lld_init, %function
 349              	sd_lld_init:
 350              	.LFB124:
 351              		.loc 1 377 0
 352              		.cfi_startproc
 353              		@ args = 0, pretend = 0, frame = 0
 354              		@ frame_needed = 0, uses_anonymous_args = 0
 355 0000 10B5     		push	{r4, lr}
 356              	.LCFI1:
 357              		.cfi_def_cfa_offset 8
 358              		.cfi_offset 4, -8
 359              		.cfi_offset 14, -4
 360              		.loc 1 385 0
 361 0002 40F20004 		movw	r4, #:lower16:.LANCHOR0
 362 0006 C0F20004 		movt	r4, #:upper16:.LANCHOR0
 363 000a 40F20002 		movw	r2, #:lower16:notify2
 364 000e 2046     		mov	r0, r4
 365 0010 0021     		movs	r1, #0
 366 0012 C0F20002 		movt	r2, #:upper16:notify2
 367 0016 FFF7FEFF 		bl	sdObjectInit
 368              	.LVL45:
 369              		.loc 1 386 0
 370 001a 4FF48843 		mov	r3, #17408
 371 001e C4F20003 		movt	r3, 16384
 372 0022 6367     		str	r3, [r4, #116]
 373 0024 10BD     		pop	{r4, pc}
 374              		.cfi_endproc
 375              	.LFE124:
 376              		.size	sd_lld_init, .-sd_lld_init
 377 0026 00BFAFF3 		.section	.text.sd_lld_start,"ax",%progbits
 377      0080AFF3 
 377      0080
 378              		.align	2
 379              		.p2align 4,,15
 380              		.global	sd_lld_start
 381              		.thumb
 382              		.thumb_func
 383              		.type	sd_lld_start, %function
 384              	sd_lld_start:
 385              	.LFB125:
 386              		.loc 1 420 0
 387              		.cfi_startproc
 388              		@ args = 0, pretend = 0, frame = 0
 389              		@ frame_needed = 0, uses_anonymous_args = 0
 390              	.LVL46:
 391 0000 38B5     		push	{r3, r4, r5, lr}
 392              	.LCFI2:
 393              		.cfi_def_cfa_offset 16
 394              		.cfi_offset 3, -16
 395              		.cfi_offset 4, -12
 396              		.cfi_offset 5, -8
 397              		.cfi_offset 14, -4
ARM GAS  /tmp/ccJH0Mxb.s 			page 8


 398              		.loc 1 425 0
 399 0002 037A     		ldrb	r3, [r0, #8]	@ zero_extendqisi2
 400              		.loc 1 423 0
 401 0004 234C     		ldr	r4, .L59
 402 0006 0029     		cmp	r1, #0
 403 0008 18BF     		it	ne
 404 000a 0C46     		movne	r4, r1
 405              	.LVL47:
 406              		.loc 1 425 0
 407 000c 012B     		cmp	r3, #1
 408              		.loc 1 420 0
 409 000e 0546     		mov	r5, r0
 410              		.loc 1 425 0
 411 0010 30D0     		beq	.L58
 412              	.LVL48:
 413              	.L54:
 414              	.LBB45:
 415              	.LBB46:
 416              		.loc 1 93 0
 417 0012 6B6F     		ldr	r3, [r5, #116]
 418              	.LVL49:
 419              		.loc 1 97 0
 420 0014 4FF4A051 		mov	r1, #5120
 421 0018 4FF48052 		mov	r2, #4096
 422 001c C4F20102 		movt	r2, 16385
 423 0020 C4F20101 		movt	r1, 16385
 424 0024 9342     		cmp	r3, r2
 425 0026 18BF     		it	ne
 426 0028 8B42     		cmpne	r3, r1
 427              		.loc 1 101 0
 428 002a 08BF     		it	eq
 429 002c 4FF43D42 		moveq	r2, #48384
 430 0030 2168     		ldr	r1, [r4, #0]
 431              		.loc 1 103 0
 432 0032 16BF     		itet	ne
 433 0034 4DF68062 		movwne	r2, #56960
 434              		.loc 1 101 0
 435 0038 C0F20152 		movteq	r2, 1281
 436              		.loc 1 103 0
 437 003c C0F28022 		movtne	r2, 640
 438 0040 B2FBF1F2 		udiv	r2, r2, r1
 439 0044 92B2     		uxth	r2, r2
 440 0046 1A81     		strh	r2, [r3, #8]	@ movhi
 441              		.loc 1 108 0
 442 0048 A288     		ldrh	r2, [r4, #4]
 443              		.loc 1 106 0
 444 004a E088     		ldrh	r0, [r4, #6]
 445              		.loc 1 107 0
 446 004c 2189     		ldrh	r1, [r4, #8]
 447              		.loc 1 108 0
 448 004e 42F40452 		orr	r2, r2, #8448
 449              		.loc 1 106 0
 450 0052 40F04000 		orr	r0, r0, #64
 451              		.loc 1 107 0
 452 0056 41F00101 		orr	r1, r1, #1
 453              		.loc 1 108 0
 454 005a 42F02C02 		orr	r2, r2, #44
ARM GAS  /tmp/ccJH0Mxb.s 			page 9


 455 005e 92B2     		uxth	r2, r2
 456              		.loc 1 106 0
 457 0060 80B2     		uxth	r0, r0
 458              		.loc 1 107 0
 459 0062 89B2     		uxth	r1, r1
 460              		.loc 1 106 0
 461 0064 1882     		strh	r0, [r3, #16]	@ movhi
 462              		.loc 1 107 0
 463 0066 9982     		strh	r1, [r3, #20]	@ movhi
 464              		.loc 1 108 0
 465 0068 9A81     		strh	r2, [r3, #12]	@ movhi
 466              		.loc 1 111 0
 467 006a 0022     		movs	r2, #0
 468 006c 1A80     		strh	r2, [r3, #0]	@ movhi
 469              		.loc 1 112 0
 470 006e 1A88     		ldrh	r2, [r3, #0]
 471              		.loc 1 113 0
 472 0070 9B88     		ldrh	r3, [r3, #4]
 473              	.LVL50:
 474 0072 38BD     		pop	{r3, r4, r5, pc}
 475              	.LVL51:
 476              	.L58:
 477              	.LBE46:
 478              	.LBE45:
 479              		.loc 1 434 0
 480 0074 084B     		ldr	r3, .L59+4
 481 0076 9842     		cmp	r0, r3
 482 0078 CBD1     		bne	.L54
 483              		.loc 1 435 0
 484 007a 4FF46053 		mov	r3, #14336
 485 007e C4F20203 		movt	r3, 16386
 486              		.loc 1 436 0
 487 0082 2620     		movs	r0, #38
 488              	.LVL52:
 489              		.loc 1 435 0
 490 0084 1A6C     		ldr	r2, [r3, #64]
 491 0086 42F40032 		orr	r2, r2, #131072
 492 008a 1A64     		str	r2, [r3, #64]
 493              		.loc 1 436 0
 494 008c C021     		movs	r1, #192
 495 008e FFF7FEFF 		bl	nvicEnableVector
 496              	.LVL53:
 497 0092 BEE7     		b	.L54
 498              	.L60:
 499              		.align	2
 500              	.L59:
 501 0094 00000000 		.word	.LANCHOR1
 502 0098 00000000 		.word	.LANCHOR0
 503              		.cfi_endproc
 504              	.LFE125:
 505              		.size	sd_lld_start, .-sd_lld_start
 506 009c AFF30080 		.section	.text.sd_lld_stop,"ax",%progbits
 507              		.align	2
 508              		.p2align 4,,15
 509              		.global	sd_lld_stop
 510              		.thumb
 511              		.thumb_func
ARM GAS  /tmp/ccJH0Mxb.s 			page 10


 512              		.type	sd_lld_stop, %function
 513              	sd_lld_stop:
 514              	.LFB126:
 515              		.loc 1 481 0
 516              		.cfi_startproc
 517              		@ args = 0, pretend = 0, frame = 0
 518              		@ frame_needed = 0, uses_anonymous_args = 0
 519              		@ link register save eliminated.
 520              	.LVL54:
 521              		.loc 1 483 0
 522 0000 037A     		ldrb	r3, [r0, #8]	@ zero_extendqisi2
 523 0002 022B     		cmp	r3, #2
 524 0004 00D0     		beq	.L65
 525              	.L61:
 526 0006 7047     		bx	lr
 527              	.L65:
 528              		.loc 1 484 0
 529 0008 436F     		ldr	r3, [r0, #116]
 530              	.LVL55:
 531              	.LBB47:
 532              	.LBB48:
 533              		.loc 1 124 0
 534 000a 0022     		movs	r2, #0
 535 000c 9A81     		strh	r2, [r3, #12]	@ movhi
 536              		.loc 1 125 0
 537 000e 1A82     		strh	r2, [r3, #16]	@ movhi
 538              		.loc 1 126 0
 539 0010 9A82     		strh	r2, [r3, #20]	@ movhi
 540              	.LBE48:
 541              	.LBE47:
 542              		.loc 1 493 0
 543 0012 074B     		ldr	r3, .L66
 544              	.LVL56:
 545 0014 9842     		cmp	r0, r3
 546 0016 F6D1     		bne	.L61
 547              		.loc 1 494 0
 548 0018 4FF46053 		mov	r3, #14336
 549 001c C4F20203 		movt	r3, 16386
 550              		.loc 1 495 0
 551 0020 2620     		movs	r0, #38
 552              	.LVL57:
 553              		.loc 1 494 0
 554 0022 1A6C     		ldr	r2, [r3, #64]
 555 0024 22F40032 		bic	r2, r2, #131072
 556 0028 1A64     		str	r2, [r3, #64]
 557              		.loc 1 528 0
 558              		.loc 1 495 0
 559 002a FFF7FEBF 		b	nvicDisableVector
 560              	.LVL58:
 561              	.L67:
 562 002e 00BF     		.align	2
 563              	.L66:
 564 0030 00000000 		.word	.LANCHOR0
 565              		.cfi_endproc
 566              	.LFE126:
 567              		.size	sd_lld_stop, .-sd_lld_stop
 568              		.global	SD2
ARM GAS  /tmp/ccJH0Mxb.s 			page 11


 569 0034 AFF30080 		.section	.rodata.default_config,"a",%progbits
 569      AFF30080 
 569      AFF30080 
 570              		.align	2
 571              		.set	.LANCHOR1,. + 0
 572              		.type	default_config, %object
 573              		.size	default_config, 12
 574              	default_config:
 575 0000 00960000 		.word	38400
 576 0004 0000     		.short	0
 577 0006 0040     		.short	16384
 578 0008 0000     		.short	0
 579 000a 0000     		.space	2
 580              		.section	.bss.SD2,"aw",%nobits
 581              		.align	2
 582              		.set	.LANCHOR0,. + 0
 583              		.type	SD2, %object
 584              		.size	SD2, 120
 585              	SD2:
 586 0000 00000000 		.space	120
 586      00000000 
 586      00000000 
 586      00000000 
 586      00000000 
 587              		.text
 588              	.Letext0:
 589              		.file 2 "/opt/psas/x-tools/stm32f407/arm-psas-eabi/bin/../lib/gcc/arm-psas-eabi/4.7.2/include/stdd
 590              		.file 3 "/opt/psas/x-tools/stm32f407/arm-psas-eabi/bin/../lib/gcc/arm-psas-eabi/4.7.2/../../../../
 591              		.file 4 "/home/wicker/tools/ChibiOS_2.6.3/os/ports/GCC/ARMCMx/chtypes.h"
 592              		.file 5 "/home/wicker/tools/ChibiOS_2.6.3/os/kernel/include/chlists.h"
 593              		.file 6 "/home/wicker/tools/ChibiOS_2.6.3/os/kernel/include/chthreads.h"
 594              		.file 7 "/home/wicker/tools/ChibiOS_2.6.3/os/ports/GCC/ARMCMx/chcore_v7m.h"
 595              		.file 8 "/home/wicker/tools/ChibiOS_2.6.3/os/kernel/include/chmtx.h"
 596              		.file 9 "/home/wicker/tools/ChibiOS_2.6.3/os/kernel/include/chevents.h"
 597              		.file 10 "/home/wicker/tools/ChibiOS_2.6.3/os/kernel/include/chqueues.h"
 598              		.file 11 "/home/wicker/tools/ChibiOS_2.6.3/os/hal/platforms/STM32F4xx/stm32f4xx.h"
 599              		.file 12 "/home/wicker/tools/ChibiOS_2.6.3/os/hal/include/serial.h"
 600              		.file 13 "/home/wicker/tools/ChibiOS_2.6.3/os/hal/platforms/STM32/USARTv1/serial_lld.h"
 601              		.file 14 "/home/wicker/tools/ChibiOS_2.6.3/os/ports/common/ARMCMx/nvic.h"
 602              		.file 15 "/home/wicker/tools/ChibiOS_2.6.3/os/ports/common/ARMCMx/CMSIS/include/core_cm4.h"
 603              		.section	.debug_info,"",%progbits
 604              	.Ldebug_info0:
 605 0000 60120000 		.4byte	0x1260
 606 0004 0200     		.2byte	0x2
 607 0006 00000000 		.4byte	.Ldebug_abbrev0
 608 000a 04       		.byte	0x4
 609 000b 01       		.uleb128 0x1
 610 000c D7000000 		.4byte	.LASF233
 611 0010 01       		.byte	0x1
 612 0011 D0050000 		.4byte	.LASF234
 613 0015 40000000 		.4byte	.Ldebug_ranges0+0x40
 614 0019 00000000 		.4byte	0
 615 001d 00000000 		.4byte	0
 616 0021 00000000 		.4byte	.Ldebug_line0
 617 0025 02       		.uleb128 0x2
 618 0026 04       		.byte	0x4
 619 0027 05       		.byte	0x5
ARM GAS  /tmp/ccJH0Mxb.s 			page 12


 620 0028 696E7400 		.ascii	"int\000"
 621 002c 03       		.uleb128 0x3
 622 002d 00000000 		.4byte	.LASF2
 623 0031 02       		.byte	0x2
 624 0032 D5       		.byte	0xd5
 625 0033 37000000 		.4byte	0x37
 626 0037 04       		.uleb128 0x4
 627 0038 04       		.byte	0x4
 628 0039 07       		.byte	0x7
 629 003a 85060000 		.4byte	.LASF0
 630 003e 04       		.uleb128 0x4
 631 003f 01       		.byte	0x1
 632 0040 06       		.byte	0x6
 633 0041 52020000 		.4byte	.LASF1
 634 0045 03       		.uleb128 0x3
 635 0046 68020000 		.4byte	.LASF3
 636 004a 03       		.byte	0x3
 637 004b 2A       		.byte	0x2a
 638 004c 50000000 		.4byte	0x50
 639 0050 04       		.uleb128 0x4
 640 0051 01       		.byte	0x1
 641 0052 08       		.byte	0x8
 642 0053 AA020000 		.4byte	.LASF4
 643 0057 04       		.uleb128 0x4
 644 0058 02       		.byte	0x2
 645 0059 05       		.byte	0x5
 646 005a 2A090000 		.4byte	.LASF5
 647 005e 03       		.uleb128 0x3
 648 005f 18080000 		.4byte	.LASF6
 649 0063 03       		.byte	0x3
 650 0064 36       		.byte	0x36
 651 0065 69000000 		.4byte	0x69
 652 0069 04       		.uleb128 0x4
 653 006a 02       		.byte	0x2
 654 006b 07       		.byte	0x7
 655 006c 140A0000 		.4byte	.LASF7
 656 0070 03       		.uleb128 0x3
 657 0071 51000000 		.4byte	.LASF8
 658 0075 03       		.byte	0x3
 659 0076 4F       		.byte	0x4f
 660 0077 7B000000 		.4byte	0x7b
 661 007b 04       		.uleb128 0x4
 662 007c 04       		.byte	0x4
 663 007d 05       		.byte	0x5
 664 007e 9E010000 		.4byte	.LASF9
 665 0082 03       		.uleb128 0x3
 666 0083 C6090000 		.4byte	.LASF10
 667 0087 03       		.byte	0x3
 668 0088 50       		.byte	0x50
 669 0089 8D000000 		.4byte	0x8d
 670 008d 04       		.uleb128 0x4
 671 008e 04       		.byte	0x4
 672 008f 07       		.byte	0x7
 673 0090 91040000 		.4byte	.LASF11
 674 0094 04       		.uleb128 0x4
 675 0095 08       		.byte	0x8
 676 0096 05       		.byte	0x5
ARM GAS  /tmp/ccJH0Mxb.s 			page 13


 677 0097 71050000 		.4byte	.LASF12
 678 009b 04       		.uleb128 0x4
 679 009c 08       		.byte	0x8
 680 009d 07       		.byte	0x7
 681 009e F9070000 		.4byte	.LASF13
 682 00a2 04       		.uleb128 0x4
 683 00a3 01       		.byte	0x1
 684 00a4 02       		.byte	0x2
 685 00a5 0A030000 		.4byte	.LASF14
 686 00a9 03       		.uleb128 0x3
 687 00aa 9E080000 		.4byte	.LASF15
 688 00ae 04       		.byte	0x4
 689 00af 2C       		.byte	0x2c
 690 00b0 45000000 		.4byte	0x45
 691 00b4 03       		.uleb128 0x3
 692 00b5 DE010000 		.4byte	.LASF16
 693 00b9 04       		.byte	0x4
 694 00ba 2D       		.byte	0x2d
 695 00bb 45000000 		.4byte	0x45
 696 00bf 03       		.uleb128 0x3
 697 00c0 7D090000 		.4byte	.LASF17
 698 00c4 04       		.byte	0x4
 699 00c5 2E       		.byte	0x2e
 700 00c6 45000000 		.4byte	0x45
 701 00ca 03       		.uleb128 0x3
 702 00cb 3D080000 		.4byte	.LASF18
 703 00cf 04       		.byte	0x4
 704 00d0 2F       		.byte	0x2f
 705 00d1 45000000 		.4byte	0x45
 706 00d5 03       		.uleb128 0x3
 707 00d6 3E000000 		.4byte	.LASF19
 708 00da 04       		.byte	0x4
 709 00db 30       		.byte	0x30
 710 00dc 82000000 		.4byte	0x82
 711 00e0 03       		.uleb128 0x3
 712 00e1 21080000 		.4byte	.LASF20
 713 00e5 04       		.byte	0x4
 714 00e6 31       		.byte	0x31
 715 00e7 70000000 		.4byte	0x70
 716 00eb 03       		.uleb128 0x3
 717 00ec 70020000 		.4byte	.LASF21
 718 00f0 04       		.byte	0x4
 719 00f1 33       		.byte	0x33
 720 00f2 82000000 		.4byte	0x82
 721 00f6 03       		.uleb128 0x3
 722 00f7 00070000 		.4byte	.LASF22
 723 00fb 04       		.byte	0x4
 724 00fc 34       		.byte	0x34
 725 00fd 82000000 		.4byte	0x82
 726 0101 03       		.uleb128 0x3
 727 0102 23000000 		.4byte	.LASF23
 728 0106 04       		.byte	0x4
 729 0107 35       		.byte	0x35
 730 0108 82000000 		.4byte	0x82
 731 010c 03       		.uleb128 0x3
 732 010d 56090000 		.4byte	.LASF24
 733 0111 05       		.byte	0x5
ARM GAS  /tmp/ccJH0Mxb.s 			page 14


 734 0112 2A       		.byte	0x2a
 735 0113 17010000 		.4byte	0x117
 736 0117 05       		.uleb128 0x5
 737 0118 56090000 		.4byte	.LASF24
 738 011c 48       		.byte	0x48
 739 011d 06       		.byte	0x6
 740 011e 5E       		.byte	0x5e
 741 011f 3C020000 		.4byte	0x23c
 742 0123 06       		.uleb128 0x6
 743 0124 A7010000 		.4byte	.LASF25
 744 0128 06       		.byte	0x6
 745 0129 5F       		.byte	0x5f
 746 012a 61020000 		.4byte	0x261
 747 012e 02       		.byte	0x2
 748 012f 23       		.byte	0x23
 749 0130 00       		.uleb128 0
 750 0131 06       		.uleb128 0x6
 751 0132 B6010000 		.4byte	.LASF26
 752 0136 06       		.byte	0x6
 753 0137 61       		.byte	0x61
 754 0138 61020000 		.4byte	0x261
 755 013c 02       		.byte	0x2
 756 013d 23       		.byte	0x23
 757 013e 04       		.uleb128 0x4
 758 013f 06       		.uleb128 0x6
 759 0140 4D030000 		.4byte	.LASF27
 760 0144 06       		.byte	0x6
 761 0145 63       		.byte	0x63
 762 0146 D5000000 		.4byte	0xd5
 763 014a 02       		.byte	0x2
 764 014b 23       		.byte	0x23
 765 014c 08       		.uleb128 0x8
 766 014d 06       		.uleb128 0x6
 767 014e 38000000 		.4byte	.LASF28
 768 0152 06       		.byte	0x6
 769 0153 64       		.byte	0x64
 770 0154 2F030000 		.4byte	0x32f
 771 0158 02       		.byte	0x2
 772 0159 23       		.byte	0x23
 773 015a 0C       		.uleb128 0xc
 774 015b 06       		.uleb128 0x6
 775 015c 96010000 		.4byte	.LASF29
 776 0160 06       		.byte	0x6
 777 0161 66       		.byte	0x66
 778 0162 61020000 		.4byte	0x261
 779 0166 02       		.byte	0x2
 780 0167 23       		.byte	0x23
 781 0168 10       		.uleb128 0x10
 782 0169 06       		.uleb128 0x6
 783 016a 10080000 		.4byte	.LASF30
 784 016e 06       		.byte	0x6
 785 016f 67       		.byte	0x67
 786 0170 61020000 		.4byte	0x261
 787 0174 02       		.byte	0x2
 788 0175 23       		.byte	0x23
 789 0176 14       		.uleb128 0x14
 790 0177 06       		.uleb128 0x6
ARM GAS  /tmp/ccJH0Mxb.s 			page 15


 791 0178 AA0A0000 		.4byte	.LASF31
 792 017c 06       		.byte	0x6
 793 017d 6E       		.byte	0x6e
 794 017e 5C040000 		.4byte	0x45c
 795 0182 02       		.byte	0x2
 796 0183 23       		.byte	0x23
 797 0184 18       		.uleb128 0x18
 798 0185 06       		.uleb128 0x6
 799 0186 E40A0000 		.4byte	.LASF32
 800 018a 06       		.byte	0x6
 801 018b 79       		.byte	0x79
 802 018c B4000000 		.4byte	0xb4
 803 0190 02       		.byte	0x2
 804 0191 23       		.byte	0x23
 805 0192 1C       		.uleb128 0x1c
 806 0193 06       		.uleb128 0x6
 807 0194 78060000 		.4byte	.LASF33
 808 0198 06       		.byte	0x6
 809 0199 7D       		.byte	0x7d
 810 019a A9000000 		.4byte	0xa9
 811 019e 02       		.byte	0x2
 812 019f 23       		.byte	0x23
 813 01a0 1D       		.uleb128 0x1d
 814 01a1 06       		.uleb128 0x6
 815 01a2 B5060000 		.4byte	.LASF34
 816 01a6 06       		.byte	0x6
 817 01a7 82       		.byte	0x82
 818 01a8 BF000000 		.4byte	0xbf
 819 01ac 02       		.byte	0x2
 820 01ad 23       		.byte	0x23
 821 01ae 1E       		.uleb128 0x1e
 822 01af 06       		.uleb128 0x6
 823 01b0 5E020000 		.4byte	.LASF35
 824 01b4 06       		.byte	0x6
 825 01b5 88       		.byte	0x88
 826 01b6 CA000000 		.4byte	0xca
 827 01ba 02       		.byte	0x2
 828 01bb 23       		.byte	0x23
 829 01bc 1F       		.uleb128 0x1f
 830 01bd 06       		.uleb128 0x6
 831 01be 2B070000 		.4byte	.LASF36
 832 01c2 06       		.byte	0x6
 833 01c3 8F       		.byte	0x8f
 834 01c4 5E030000 		.4byte	0x35e
 835 01c8 02       		.byte	0x2
 836 01c9 23       		.byte	0x23
 837 01ca 20       		.uleb128 0x20
 838 01cb 07       		.uleb128 0x7
 839 01cc 705F7500 		.ascii	"p_u\000"
 840 01d0 06       		.byte	0x6
 841 01d1 B4       		.byte	0xb4
 842 01d2 27040000 		.4byte	0x427
 843 01d6 02       		.byte	0x2
 844 01d7 23       		.byte	0x23
 845 01d8 24       		.uleb128 0x24
 846 01d9 06       		.uleb128 0x6
 847 01da 45060000 		.4byte	.LASF37
ARM GAS  /tmp/ccJH0Mxb.s 			page 16


 848 01de 06       		.byte	0x6
 849 01df B9       		.byte	0xb9
 850 01e0 89020000 		.4byte	0x289
 851 01e4 02       		.byte	0x2
 852 01e5 23       		.byte	0x23
 853 01e6 28       		.uleb128 0x28
 854 01e7 06       		.uleb128 0x6
 855 01e8 46000000 		.4byte	.LASF38
 856 01ec 06       		.byte	0x6
 857 01ed BF       		.byte	0xbf
 858 01ee 67020000 		.4byte	0x267
 859 01f2 02       		.byte	0x2
 860 01f3 23       		.byte	0x23
 861 01f4 2C       		.uleb128 0x2c
 862 01f5 06       		.uleb128 0x6
 863 01f6 D20A0000 		.4byte	.LASF39
 864 01fa 06       		.byte	0x6
 865 01fb C3       		.byte	0xc3
 866 01fc E0000000 		.4byte	0xe0
 867 0200 02       		.byte	0x2
 868 0201 23       		.byte	0x23
 869 0202 34       		.uleb128 0x34
 870 0203 06       		.uleb128 0x6
 871 0204 D2030000 		.4byte	.LASF40
 872 0208 06       		.byte	0x6
 873 0209 C9       		.byte	0xc9
 874 020a EB000000 		.4byte	0xeb
 875 020e 02       		.byte	0x2
 876 020f 23       		.byte	0x23
 877 0210 38       		.uleb128 0x38
 878 0211 06       		.uleb128 0x6
 879 0212 E7010000 		.4byte	.LASF41
 880 0216 06       		.byte	0x6
 881 0217 D0       		.byte	0xd0
 882 0218 6E040000 		.4byte	0x46e
 883 021c 02       		.byte	0x2
 884 021d 23       		.byte	0x23
 885 021e 3C       		.uleb128 0x3c
 886 021f 06       		.uleb128 0x6
 887 0220 79070000 		.4byte	.LASF42
 888 0224 06       		.byte	0x6
 889 0225 D4       		.byte	0xd4
 890 0226 D5000000 		.4byte	0xd5
 891 022a 02       		.byte	0x2
 892 022b 23       		.byte	0x23
 893 022c 40       		.uleb128 0x40
 894 022d 06       		.uleb128 0x6
 895 022e A0060000 		.4byte	.LASF43
 896 0232 06       		.byte	0x6
 897 0233 DA       		.byte	0xda
 898 0234 9F020000 		.4byte	0x29f
 899 0238 02       		.byte	0x2
 900 0239 23       		.byte	0x23
 901 023a 44       		.uleb128 0x44
 902 023b 00       		.byte	0
 903 023c 08       		.uleb128 0x8
 904 023d 08       		.byte	0x8
ARM GAS  /tmp/ccJH0Mxb.s 			page 17


 905 023e 05       		.byte	0x5
 906 023f 61       		.byte	0x61
 907 0240 61020000 		.4byte	0x261
 908 0244 06       		.uleb128 0x6
 909 0245 A7010000 		.4byte	.LASF25
 910 0249 05       		.byte	0x5
 911 024a 62       		.byte	0x62
 912 024b 61020000 		.4byte	0x261
 913 024f 02       		.byte	0x2
 914 0250 23       		.byte	0x23
 915 0251 00       		.uleb128 0
 916 0252 06       		.uleb128 0x6
 917 0253 B6010000 		.4byte	.LASF26
 918 0257 05       		.byte	0x5
 919 0258 64       		.byte	0x64
 920 0259 61020000 		.4byte	0x261
 921 025d 02       		.byte	0x2
 922 025e 23       		.byte	0x23
 923 025f 04       		.uleb128 0x4
 924 0260 00       		.byte	0
 925 0261 09       		.uleb128 0x9
 926 0262 04       		.byte	0x4
 927 0263 0C010000 		.4byte	0x10c
 928 0267 03       		.uleb128 0x3
 929 0268 DD090000 		.4byte	.LASF44
 930 026c 05       		.byte	0x5
 931 026d 66       		.byte	0x66
 932 026e 3C020000 		.4byte	0x23c
 933 0272 08       		.uleb128 0x8
 934 0273 04       		.byte	0x4
 935 0274 05       		.byte	0x5
 936 0275 6B       		.byte	0x6b
 937 0276 89020000 		.4byte	0x289
 938 027a 06       		.uleb128 0x6
 939 027b A7010000 		.4byte	.LASF25
 940 027f 05       		.byte	0x5
 941 0280 6D       		.byte	0x6d
 942 0281 61020000 		.4byte	0x261
 943 0285 02       		.byte	0x2
 944 0286 23       		.byte	0x23
 945 0287 00       		.uleb128 0
 946 0288 00       		.byte	0
 947 0289 03       		.uleb128 0x3
 948 028a D8060000 		.4byte	.LASF45
 949 028e 05       		.byte	0x5
 950 028f 70       		.byte	0x70
 951 0290 72020000 		.4byte	0x272
 952 0294 03       		.uleb128 0x3
 953 0295 10020000 		.4byte	.LASF46
 954 0299 07       		.byte	0x7
 955 029a E5       		.byte	0xe5
 956 029b 9F020000 		.4byte	0x29f
 957 029f 0A       		.uleb128 0xa
 958 02a0 04       		.byte	0x4
 959 02a1 0B       		.uleb128 0xb
 960 02a2 C5030000 		.4byte	.LASF47
 961 02a6 24       		.byte	0x24
ARM GAS  /tmp/ccJH0Mxb.s 			page 18


 962 02a7 07       		.byte	0x7
 963 02a8 0C01     		.2byte	0x10c
 964 02aa 2F030000 		.4byte	0x32f
 965 02ae 0C       		.uleb128 0xc
 966 02af 723400   		.ascii	"r4\000"
 967 02b2 07       		.byte	0x7
 968 02b3 1F01     		.2byte	0x11f
 969 02b5 94020000 		.4byte	0x294
 970 02b9 02       		.byte	0x2
 971 02ba 23       		.byte	0x23
 972 02bb 00       		.uleb128 0
 973 02bc 0C       		.uleb128 0xc
 974 02bd 723500   		.ascii	"r5\000"
 975 02c0 07       		.byte	0x7
 976 02c1 2001     		.2byte	0x120
 977 02c3 94020000 		.4byte	0x294
 978 02c7 02       		.byte	0x2
 979 02c8 23       		.byte	0x23
 980 02c9 04       		.uleb128 0x4
 981 02ca 0C       		.uleb128 0xc
 982 02cb 723600   		.ascii	"r6\000"
 983 02ce 07       		.byte	0x7
 984 02cf 2101     		.2byte	0x121
 985 02d1 94020000 		.4byte	0x294
 986 02d5 02       		.byte	0x2
 987 02d6 23       		.byte	0x23
 988 02d7 08       		.uleb128 0x8
 989 02d8 0C       		.uleb128 0xc
 990 02d9 723700   		.ascii	"r7\000"
 991 02dc 07       		.byte	0x7
 992 02dd 2201     		.2byte	0x122
 993 02df 94020000 		.4byte	0x294
 994 02e3 02       		.byte	0x2
 995 02e4 23       		.byte	0x23
 996 02e5 0C       		.uleb128 0xc
 997 02e6 0C       		.uleb128 0xc
 998 02e7 723800   		.ascii	"r8\000"
 999 02ea 07       		.byte	0x7
 1000 02eb 2301     		.2byte	0x123
 1001 02ed 94020000 		.4byte	0x294
 1002 02f1 02       		.byte	0x2
 1003 02f2 23       		.byte	0x23
 1004 02f3 10       		.uleb128 0x10
 1005 02f4 0C       		.uleb128 0xc
 1006 02f5 723900   		.ascii	"r9\000"
 1007 02f8 07       		.byte	0x7
 1008 02f9 2401     		.2byte	0x124
 1009 02fb 94020000 		.4byte	0x294
 1010 02ff 02       		.byte	0x2
 1011 0300 23       		.byte	0x23
 1012 0301 14       		.uleb128 0x14
 1013 0302 0C       		.uleb128 0xc
 1014 0303 72313000 		.ascii	"r10\000"
 1015 0307 07       		.byte	0x7
 1016 0308 2501     		.2byte	0x125
 1017 030a 94020000 		.4byte	0x294
 1018 030e 02       		.byte	0x2
ARM GAS  /tmp/ccJH0Mxb.s 			page 19


 1019 030f 23       		.byte	0x23
 1020 0310 18       		.uleb128 0x18
 1021 0311 0C       		.uleb128 0xc
 1022 0312 72313100 		.ascii	"r11\000"
 1023 0316 07       		.byte	0x7
 1024 0317 2601     		.2byte	0x126
 1025 0319 94020000 		.4byte	0x294
 1026 031d 02       		.byte	0x2
 1027 031e 23       		.byte	0x23
 1028 031f 1C       		.uleb128 0x1c
 1029 0320 0C       		.uleb128 0xc
 1030 0321 6C7200   		.ascii	"lr\000"
 1031 0324 07       		.byte	0x7
 1032 0325 2701     		.2byte	0x127
 1033 0327 94020000 		.4byte	0x294
 1034 032b 02       		.byte	0x2
 1035 032c 23       		.byte	0x23
 1036 032d 20       		.uleb128 0x20
 1037 032e 00       		.byte	0
 1038 032f 0B       		.uleb128 0xb
 1039 0330 7C020000 		.4byte	.LASF48
 1040 0334 04       		.byte	0x4
 1041 0335 07       		.byte	0x7
 1042 0336 3101     		.2byte	0x131
 1043 0338 4C030000 		.4byte	0x34c
 1044 033c 0C       		.uleb128 0xc
 1045 033d 72313300 		.ascii	"r13\000"
 1046 0341 07       		.byte	0x7
 1047 0342 3201     		.2byte	0x132
 1048 0344 4C030000 		.4byte	0x34c
 1049 0348 02       		.byte	0x2
 1050 0349 23       		.byte	0x23
 1051 034a 00       		.uleb128 0
 1052 034b 00       		.byte	0
 1053 034c 09       		.uleb128 0x9
 1054 034d 04       		.byte	0x4
 1055 034e A1020000 		.4byte	0x2a1
 1056 0352 0D       		.uleb128 0xd
 1057 0353 82000000 		.4byte	0x82
 1058 0357 04       		.uleb128 0x4
 1059 0358 04       		.byte	0x4
 1060 0359 07       		.byte	0x7
 1061 035a 1A000000 		.4byte	.LASF49
 1062 035e 0D       		.uleb128 0xd
 1063 035f 01010000 		.4byte	0x101
 1064 0363 05       		.uleb128 0x5
 1065 0364 51050000 		.4byte	.LASF50
 1066 0368 10       		.byte	0x10
 1067 0369 08       		.byte	0x8
 1068 036a 2C       		.byte	0x2c
 1069 036b 9A030000 		.4byte	0x39a
 1070 036f 06       		.uleb128 0x6
 1071 0370 A3050000 		.4byte	.LASF51
 1072 0374 08       		.byte	0x8
 1073 0375 2D       		.byte	0x2d
 1074 0376 67020000 		.4byte	0x267
 1075 037a 02       		.byte	0x2
ARM GAS  /tmp/ccJH0Mxb.s 			page 20


 1076 037b 23       		.byte	0x23
 1077 037c 00       		.uleb128 0
 1078 037d 06       		.uleb128 0x6
 1079 037e 17010000 		.4byte	.LASF52
 1080 0382 08       		.byte	0x8
 1081 0383 2F       		.byte	0x2f
 1082 0384 61020000 		.4byte	0x261
 1083 0388 02       		.byte	0x2
 1084 0389 23       		.byte	0x23
 1085 038a 08       		.uleb128 0x8
 1086 038b 06       		.uleb128 0x6
 1087 038c B10A0000 		.4byte	.LASF53
 1088 0390 08       		.byte	0x8
 1089 0391 31       		.byte	0x31
 1090 0392 9A030000 		.4byte	0x39a
 1091 0396 02       		.byte	0x2
 1092 0397 23       		.byte	0x23
 1093 0398 0C       		.uleb128 0xc
 1094 0399 00       		.byte	0
 1095 039a 09       		.uleb128 0x9
 1096 039b 04       		.byte	0x4
 1097 039c 63030000 		.4byte	0x363
 1098 03a0 03       		.uleb128 0x3
 1099 03a1 51050000 		.4byte	.LASF50
 1100 03a5 08       		.byte	0x8
 1101 03a6 33       		.byte	0x33
 1102 03a7 63030000 		.4byte	0x363
 1103 03ab 03       		.uleb128 0x3
 1104 03ac A7090000 		.4byte	.LASF54
 1105 03b0 09       		.byte	0x9
 1106 03b1 2C       		.byte	0x2c
 1107 03b2 B6030000 		.4byte	0x3b6
 1108 03b6 05       		.uleb128 0x5
 1109 03b7 A7090000 		.4byte	.LASF54
 1110 03bb 10       		.byte	0x10
 1111 03bc 09       		.byte	0x9
 1112 03bd 31       		.byte	0x31
 1113 03be FB030000 		.4byte	0x3fb
 1114 03c2 06       		.uleb128 0x6
 1115 03c3 D7040000 		.4byte	.LASF55
 1116 03c7 09       		.byte	0x9
 1117 03c8 32       		.byte	0x32
 1118 03c9 FB030000 		.4byte	0x3fb
 1119 03cd 02       		.byte	0x2
 1120 03ce 23       		.byte	0x23
 1121 03cf 00       		.uleb128 0
 1122 03d0 06       		.uleb128 0x6
 1123 03d1 D80A0000 		.4byte	.LASF56
 1124 03d5 09       		.byte	0x9
 1125 03d6 35       		.byte	0x35
 1126 03d7 61020000 		.4byte	0x261
 1127 03db 02       		.byte	0x2
 1128 03dc 23       		.byte	0x23
 1129 03dd 04       		.uleb128 0x4
 1130 03de 06       		.uleb128 0x6
 1131 03df A20A0000 		.4byte	.LASF57
 1132 03e3 09       		.byte	0x9
ARM GAS  /tmp/ccJH0Mxb.s 			page 21


 1133 03e4 37       		.byte	0x37
 1134 03e5 EB000000 		.4byte	0xeb
 1135 03e9 02       		.byte	0x2
 1136 03ea 23       		.byte	0x23
 1137 03eb 08       		.uleb128 0x8
 1138 03ec 06       		.uleb128 0x6
 1139 03ed B2000000 		.4byte	.LASF58
 1140 03f1 09       		.byte	0x9
 1141 03f2 3A       		.byte	0x3a
 1142 03f3 F6000000 		.4byte	0xf6
 1143 03f7 02       		.byte	0x2
 1144 03f8 23       		.byte	0x23
 1145 03f9 0C       		.uleb128 0xc
 1146 03fa 00       		.byte	0
 1147 03fb 09       		.uleb128 0x9
 1148 03fc 04       		.byte	0x4
 1149 03fd AB030000 		.4byte	0x3ab
 1150 0401 05       		.uleb128 0x5
 1151 0402 7B040000 		.4byte	.LASF59
 1152 0406 04       		.byte	0x4
 1153 0407 09       		.byte	0x9
 1154 0408 41       		.byte	0x41
 1155 0409 1C040000 		.4byte	0x41c
 1156 040d 06       		.uleb128 0x6
 1157 040e 3F040000 		.4byte	.LASF60
 1158 0412 09       		.byte	0x9
 1159 0413 42       		.byte	0x42
 1160 0414 FB030000 		.4byte	0x3fb
 1161 0418 02       		.byte	0x2
 1162 0419 23       		.byte	0x23
 1163 041a 00       		.uleb128 0
 1164 041b 00       		.byte	0
 1165 041c 03       		.uleb128 0x3
 1166 041d 7B040000 		.4byte	.LASF59
 1167 0421 09       		.byte	0x9
 1168 0422 45       		.byte	0x45
 1169 0423 01040000 		.4byte	0x401
 1170 0427 0E       		.uleb128 0xe
 1171 0428 04       		.byte	0x4
 1172 0429 06       		.byte	0x6
 1173 042a 96       		.byte	0x96
 1174 042b 5C040000 		.4byte	0x45c
 1175 042f 0F       		.uleb128 0xf
 1176 0430 020A0000 		.4byte	.LASF61
 1177 0434 06       		.byte	0x6
 1178 0435 9D       		.byte	0x9d
 1179 0436 E0000000 		.4byte	0xe0
 1180 043a 0F       		.uleb128 0xf
 1181 043b 1F010000 		.4byte	.LASF62
 1182 043f 06       		.byte	0x6
 1183 0440 A4       		.byte	0xa4
 1184 0441 E0000000 		.4byte	0xe0
 1185 0445 0F       		.uleb128 0xf
 1186 0446 69030000 		.4byte	.LASF63
 1187 044a 06       		.byte	0x6
 1188 044b AB       		.byte	0xab
 1189 044c 9F020000 		.4byte	0x29f
ARM GAS  /tmp/ccJH0Mxb.s 			page 22


 1190 0450 0F       		.uleb128 0xf
 1191 0451 3F010000 		.4byte	.LASF64
 1192 0455 06       		.byte	0x6
 1193 0456 B2       		.byte	0xb2
 1194 0457 EB000000 		.4byte	0xeb
 1195 045b 00       		.byte	0
 1196 045c 09       		.uleb128 0x9
 1197 045d 04       		.byte	0x4
 1198 045e 62040000 		.4byte	0x462
 1199 0462 10       		.uleb128 0x10
 1200 0463 67040000 		.4byte	0x467
 1201 0467 04       		.uleb128 0x4
 1202 0468 01       		.byte	0x1
 1203 0469 08       		.byte	0x8
 1204 046a 48030000 		.4byte	.LASF65
 1205 046e 09       		.uleb128 0x9
 1206 046f 04       		.byte	0x4
 1207 0470 A0030000 		.4byte	0x3a0
 1208 0474 09       		.uleb128 0x9
 1209 0475 04       		.byte	0x4
 1210 0476 7A040000 		.4byte	0x47a
 1211 047a 11       		.uleb128 0x11
 1212 047b 01       		.byte	0x1
 1213 047c E0000000 		.4byte	0xe0
 1214 0480 8A040000 		.4byte	0x48a
 1215 0484 12       		.uleb128 0x12
 1216 0485 9F020000 		.4byte	0x29f
 1217 0489 00       		.byte	0
 1218 048a 03       		.uleb128 0x3
 1219 048b 5C030000 		.4byte	.LASF66
 1220 048f 0A       		.byte	0xa
 1221 0490 37       		.byte	0x37
 1222 0491 95040000 		.4byte	0x495
 1223 0495 05       		.uleb128 0x5
 1224 0496 5C030000 		.4byte	.LASF66
 1225 049a 24       		.byte	0x24
 1226 049b 0A       		.byte	0xa
 1227 049c 45       		.byte	0x45
 1228 049d 12050000 		.4byte	0x512
 1229 04a1 06       		.uleb128 0x6
 1230 04a2 89080000 		.4byte	.LASF67
 1231 04a6 0A       		.byte	0xa
 1232 04a7 46       		.byte	0x46
 1233 04a8 67020000 		.4byte	0x267
 1234 04ac 02       		.byte	0x2
 1235 04ad 23       		.byte	0x23
 1236 04ae 00       		.uleb128 0
 1237 04af 06       		.uleb128 0x6
 1238 04b0 47040000 		.4byte	.LASF68
 1239 04b4 0A       		.byte	0xa
 1240 04b5 47       		.byte	0x47
 1241 04b6 2C000000 		.4byte	0x2c
 1242 04ba 02       		.byte	0x2
 1243 04bb 23       		.byte	0x23
 1244 04bc 08       		.uleb128 0x8
 1245 04bd 06       		.uleb128 0x6
 1246 04be 77010000 		.4byte	.LASF69
ARM GAS  /tmp/ccJH0Mxb.s 			page 23


 1247 04c2 0A       		.byte	0xa
 1248 04c3 48       		.byte	0x48
 1249 04c4 35050000 		.4byte	0x535
 1250 04c8 02       		.byte	0x2
 1251 04c9 23       		.byte	0x23
 1252 04ca 0C       		.uleb128 0xc
 1253 04cb 06       		.uleb128 0x6
 1254 04cc 39010000 		.4byte	.LASF70
 1255 04d0 0A       		.byte	0xa
 1256 04d1 49       		.byte	0x49
 1257 04d2 35050000 		.4byte	0x535
 1258 04d6 02       		.byte	0x2
 1259 04d7 23       		.byte	0x23
 1260 04d8 10       		.uleb128 0x10
 1261 04d9 06       		.uleb128 0x6
 1262 04da DF040000 		.4byte	.LASF71
 1263 04de 0A       		.byte	0xa
 1264 04df 4B       		.byte	0x4b
 1265 04e0 35050000 		.4byte	0x535
 1266 04e4 02       		.byte	0x2
 1267 04e5 23       		.byte	0x23
 1268 04e6 14       		.uleb128 0x14
 1269 04e7 06       		.uleb128 0x6
 1270 04e8 AE010000 		.4byte	.LASF72
 1271 04ec 0A       		.byte	0xa
 1272 04ed 4C       		.byte	0x4c
 1273 04ee 35050000 		.4byte	0x535
 1274 04f2 02       		.byte	0x2
 1275 04f3 23       		.byte	0x23
 1276 04f4 18       		.uleb128 0x18
 1277 04f5 06       		.uleb128 0x6
 1278 04f6 80010000 		.4byte	.LASF73
 1279 04fa 0A       		.byte	0xa
 1280 04fb 4D       		.byte	0x4d
 1281 04fc 12050000 		.4byte	0x512
 1282 0500 02       		.byte	0x2
 1283 0501 23       		.byte	0x23
 1284 0502 1C       		.uleb128 0x1c
 1285 0503 06       		.uleb128 0x6
 1286 0504 D4020000 		.4byte	.LASF74
 1287 0508 0A       		.byte	0xa
 1288 0509 4E       		.byte	0x4e
 1289 050a 9F020000 		.4byte	0x29f
 1290 050e 02       		.byte	0x2
 1291 050f 23       		.byte	0x23
 1292 0510 20       		.uleb128 0x20
 1293 0511 00       		.byte	0
 1294 0512 03       		.uleb128 0x3
 1295 0513 3B060000 		.4byte	.LASF75
 1296 0517 0A       		.byte	0xa
 1297 0518 3A       		.byte	0x3a
 1298 0519 1D050000 		.4byte	0x51d
 1299 051d 09       		.uleb128 0x9
 1300 051e 04       		.byte	0x4
 1301 051f 23050000 		.4byte	0x523
 1302 0523 13       		.uleb128 0x13
 1303 0524 01       		.byte	0x1
ARM GAS  /tmp/ccJH0Mxb.s 			page 24


 1304 0525 2F050000 		.4byte	0x52f
 1305 0529 12       		.uleb128 0x12
 1306 052a 2F050000 		.4byte	0x52f
 1307 052e 00       		.byte	0
 1308 052f 09       		.uleb128 0x9
 1309 0530 04       		.byte	0x4
 1310 0531 8A040000 		.4byte	0x48a
 1311 0535 09       		.uleb128 0x9
 1312 0536 04       		.byte	0x4
 1313 0537 45000000 		.4byte	0x45
 1314 053b 03       		.uleb128 0x3
 1315 053c 4A0A0000 		.4byte	.LASF76
 1316 0540 0A       		.byte	0xa
 1317 0541 82       		.byte	0x82
 1318 0542 8A040000 		.4byte	0x48a
 1319 0546 03       		.uleb128 0x3
 1320 0547 91030000 		.4byte	.LASF77
 1321 054b 0A       		.byte	0xa
 1322 054c F5       		.byte	0xf5
 1323 054d 8A040000 		.4byte	0x48a
 1324 0551 11       		.uleb128 0x11
 1325 0552 01       		.byte	0x1
 1326 0553 2C000000 		.4byte	0x2c
 1327 0557 6B050000 		.4byte	0x56b
 1328 055b 12       		.uleb128 0x12
 1329 055c 9F020000 		.4byte	0x29f
 1330 0560 12       		.uleb128 0x12
 1331 0561 6B050000 		.4byte	0x56b
 1332 0565 12       		.uleb128 0x12
 1333 0566 2C000000 		.4byte	0x2c
 1334 056a 00       		.byte	0
 1335 056b 09       		.uleb128 0x9
 1336 056c 04       		.byte	0x4
 1337 056d 71050000 		.4byte	0x571
 1338 0571 10       		.uleb128 0x10
 1339 0572 45000000 		.4byte	0x45
 1340 0576 09       		.uleb128 0x9
 1341 0577 04       		.byte	0x4
 1342 0578 51050000 		.4byte	0x551
 1343 057c 11       		.uleb128 0x11
 1344 057d 01       		.byte	0x1
 1345 057e 2C000000 		.4byte	0x2c
 1346 0582 96050000 		.4byte	0x596
 1347 0586 12       		.uleb128 0x12
 1348 0587 9F020000 		.4byte	0x29f
 1349 058b 12       		.uleb128 0x12
 1350 058c 35050000 		.4byte	0x535
 1351 0590 12       		.uleb128 0x12
 1352 0591 2C000000 		.4byte	0x2c
 1353 0595 00       		.byte	0
 1354 0596 09       		.uleb128 0x9
 1355 0597 04       		.byte	0x4
 1356 0598 7C050000 		.4byte	0x57c
 1357 059c 11       		.uleb128 0x11
 1358 059d 01       		.byte	0x1
 1359 059e E0000000 		.4byte	0xe0
 1360 05a2 B1050000 		.4byte	0x5b1
ARM GAS  /tmp/ccJH0Mxb.s 			page 25


 1361 05a6 12       		.uleb128 0x12
 1362 05a7 9F020000 		.4byte	0x29f
 1363 05ab 12       		.uleb128 0x12
 1364 05ac 45000000 		.4byte	0x45
 1365 05b0 00       		.byte	0
 1366 05b1 09       		.uleb128 0x9
 1367 05b2 04       		.byte	0x4
 1368 05b3 9C050000 		.4byte	0x59c
 1369 05b7 14       		.uleb128 0x14
 1370 05b8 32070000 		.4byte	.LASF235
 1371 05bc 01       		.byte	0x1
 1372 05bd 0B       		.byte	0xb
 1373 05be AA       		.byte	0xaa
 1374 05bf F2070000 		.4byte	0x7f2
 1375 05c3 15       		.uleb128 0x15
 1376 05c4 5D040000 		.4byte	.LASF78
 1377 05c8 72       		.sleb128 -14
 1378 05c9 15       		.uleb128 0x15
 1379 05ca A3040000 		.4byte	.LASF79
 1380 05ce 74       		.sleb128 -12
 1381 05cf 15       		.uleb128 0x15
 1382 05d0 11050000 		.4byte	.LASF80
 1383 05d4 75       		.sleb128 -11
 1384 05d5 15       		.uleb128 0x15
 1385 05d6 38030000 		.4byte	.LASF81
 1386 05da 76       		.sleb128 -10
 1387 05db 15       		.uleb128 0x15
 1388 05dc BB050000 		.4byte	.LASF82
 1389 05e0 7B       		.sleb128 -5
 1390 05e1 15       		.uleb128 0x15
 1391 05e2 DC080000 		.4byte	.LASF83
 1392 05e6 7C       		.sleb128 -4
 1393 05e7 15       		.uleb128 0x15
 1394 05e8 600A0000 		.4byte	.LASF84
 1395 05ec 7E       		.sleb128 -2
 1396 05ed 15       		.uleb128 0x15
 1397 05ee 2B020000 		.4byte	.LASF85
 1398 05f2 7F       		.sleb128 -1
 1399 05f3 15       		.uleb128 0x15
 1400 05f4 87040000 		.4byte	.LASF86
 1401 05f8 00       		.sleb128 0
 1402 05f9 15       		.uleb128 0x15
 1403 05fa 73080000 		.4byte	.LASF87
 1404 05fe 01       		.sleb128 1
 1405 05ff 15       		.uleb128 0x15
 1406 0600 B9040000 		.4byte	.LASF88
 1407 0604 02       		.sleb128 2
 1408 0605 15       		.uleb128 0x15
 1409 0606 99090000 		.4byte	.LASF89
 1410 060a 03       		.sleb128 3
 1411 060b 15       		.uleb128 0x15
 1412 060c 9D000000 		.4byte	.LASF90
 1413 0610 04       		.sleb128 4
 1414 0611 15       		.uleb128 0x15
 1415 0612 34090000 		.4byte	.LASF91
 1416 0616 05       		.sleb128 5
 1417 0617 15       		.uleb128 0x15
ARM GAS  /tmp/ccJH0Mxb.s 			page 26


 1418 0618 93080000 		.4byte	.LASF92
 1419 061c 06       		.sleb128 6
 1420 061d 15       		.uleb128 0x15
 1421 061e FD030000 		.4byte	.LASF93
 1422 0622 07       		.sleb128 7
 1423 0623 15       		.uleb128 0x15
 1424 0624 47080000 		.4byte	.LASF94
 1425 0628 08       		.sleb128 8
 1426 0629 15       		.uleb128 0x15
 1427 062a 550A0000 		.4byte	.LASF95
 1428 062e 09       		.sleb128 9
 1429 062f 15       		.uleb128 0x15
 1430 0630 090A0000 		.4byte	.LASF96
 1431 0634 0A       		.sleb128 10
 1432 0635 15       		.uleb128 0x15
 1433 0636 96070000 		.4byte	.LASF97
 1434 063a 0B       		.sleb128 11
 1435 063b 15       		.uleb128 0x15
 1436 063c EE060000 		.4byte	.LASF98
 1437 0640 0C       		.sleb128 12
 1438 0641 15       		.uleb128 0x15
 1439 0642 84020000 		.4byte	.LASF99
 1440 0646 0D       		.sleb128 13
 1441 0647 15       		.uleb128 0x15
 1442 0648 44090000 		.4byte	.LASF100
 1443 064c 0E       		.sleb128 14
 1444 064d 15       		.uleb128 0x15
 1445 064e A6080000 		.4byte	.LASF101
 1446 0652 0F       		.sleb128 15
 1447 0653 15       		.uleb128 0x15
 1448 0654 15040000 		.4byte	.LASF102
 1449 0658 10       		.sleb128 16
 1450 0659 15       		.uleb128 0x15
 1451 065a 37070000 		.4byte	.LASF103
 1452 065e 11       		.sleb128 17
 1453 065f 15       		.uleb128 0x15
 1454 0660 60080000 		.4byte	.LASF104
 1455 0664 12       		.sleb128 18
 1456 0665 15       		.uleb128 0x15
 1457 0666 08040000 		.4byte	.LASF105
 1458 066a 13       		.sleb128 19
 1459 066b 15       		.uleb128 0x15
 1460 066c 70030000 		.4byte	.LASF106
 1461 0670 14       		.sleb128 20
 1462 0671 15       		.uleb128 0x15
 1463 0672 CF090000 		.4byte	.LASF107
 1464 0676 15       		.sleb128 21
 1465 0677 15       		.uleb128 0x15
 1466 0678 C9040000 		.4byte	.LASF108
 1467 067c 16       		.sleb128 22
 1468 067d 15       		.uleb128 0x15
 1469 067e EA090000 		.4byte	.LASF109
 1470 0682 17       		.sleb128 23
 1471 0683 15       		.uleb128 0x15
 1472 0684 3E050000 		.4byte	.LASF110
 1473 0688 18       		.sleb128 24
 1474 0689 15       		.uleb128 0x15
ARM GAS  /tmp/ccJH0Mxb.s 			page 27


 1475 068a 5D090000 		.4byte	.LASF111
 1476 068e 19       		.sleb128 25
 1477 068f 15       		.uleb128 0x15
 1478 0690 F1010000 		.4byte	.LASF112
 1479 0694 1A       		.sleb128 26
 1480 0695 15       		.uleb128 0x15
 1481 0696 E2030000 		.4byte	.LASF113
 1482 069a 1B       		.sleb128 27
 1483 069b 15       		.uleb128 0x15
 1484 069c CD000000 		.4byte	.LASF114
 1485 06a0 1C       		.sleb128 28
 1486 06a1 15       		.uleb128 0x15
 1487 06a2 27080000 		.4byte	.LASF115
 1488 06a6 1D       		.sleb128 29
 1489 06a7 15       		.uleb128 0x15
 1490 06a8 9D030000 		.4byte	.LASF116
 1491 06ac 1E       		.sleb128 30
 1492 06ad 15       		.uleb128 0x15
 1493 06ae B8030000 		.4byte	.LASF117
 1494 06b2 1F       		.sleb128 31
 1495 06b3 15       		.uleb128 0x15
 1496 06b4 E5020000 		.4byte	.LASF118
 1497 06b8 20       		.sleb128 32
 1498 06b9 15       		.uleb128 0x15
 1499 06ba A8060000 		.4byte	.LASF119
 1500 06be 21       		.sleb128 33
 1501 06bf 15       		.uleb128 0x15
 1502 06c0 04050000 		.4byte	.LASF120
 1503 06c4 22       		.sleb128 34
 1504 06c5 15       		.uleb128 0x15
 1505 06c6 B1050000 		.4byte	.LASF121
 1506 06ca 23       		.sleb128 35
 1507 06cb 15       		.uleb128 0x15
 1508 06cc 8D050000 		.4byte	.LASF122
 1509 06d0 24       		.sleb128 36
 1510 06d1 15       		.uleb128 0x15
 1511 06d2 31080000 		.4byte	.LASF123
 1512 06d6 25       		.sleb128 37
 1513 06d7 15       		.uleb128 0x15
 1514 06d8 A7030000 		.4byte	.LASF124
 1515 06dc 26       		.sleb128 38
 1516 06dd 15       		.uleb128 0x15
 1517 06de 38020000 		.4byte	.LASF125
 1518 06e2 27       		.sleb128 39
 1519 06e3 15       		.uleb128 0x15
 1520 06e4 EA070000 		.4byte	.LASF126
 1521 06e8 28       		.sleb128 40
 1522 06e9 15       		.uleb128 0x15
 1523 06ea BC070000 		.4byte	.LASF127
 1524 06ee 29       		.sleb128 41
 1525 06ef 15       		.uleb128 0x15
 1526 06f0 67060000 		.4byte	.LASF128
 1527 06f4 2A       		.sleb128 42
 1528 06f5 15       		.uleb128 0x15
 1529 06f6 46010000 		.4byte	.LASF129
 1530 06fa 2B       		.sleb128 43
 1531 06fb 15       		.uleb128 0x15
ARM GAS  /tmp/ccJH0Mxb.s 			page 28


 1532 06fc 07000000 		.4byte	.LASF130
 1533 0700 2C       		.sleb128 44
 1534 0701 15       		.uleb128 0x15
 1535 0702 27040000 		.4byte	.LASF131
 1536 0706 2D       		.sleb128 45
 1537 0707 15       		.uleb128 0x15
 1538 0708 330A0000 		.4byte	.LASF132
 1539 070c 2E       		.sleb128 46
 1540 070d 15       		.uleb128 0x15
 1541 070e 7F0A0000 		.4byte	.LASF133
 1542 0712 2F       		.sleb128 47
 1543 0713 15       		.uleb128 0x15
 1544 0714 71040000 		.4byte	.LASF134
 1545 0718 30       		.sleb128 48
 1546 0719 15       		.uleb128 0x15
 1547 071a 400A0000 		.4byte	.LASF135
 1548 071e 31       		.sleb128 49
 1549 071f 15       		.uleb128 0x15
 1550 0720 24030000 		.4byte	.LASF136
 1551 0724 32       		.sleb128 50
 1552 0725 15       		.uleb128 0x15
 1553 0726 93000000 		.4byte	.LASF137
 1554 072a 33       		.sleb128 51
 1555 072b 15       		.uleb128 0x15
 1556 072c 26060000 		.4byte	.LASF138
 1557 0730 34       		.sleb128 52
 1558 0731 15       		.uleb128 0x15
 1559 0732 33050000 		.4byte	.LASF139
 1560 0736 35       		.sleb128 53
 1561 0737 15       		.uleb128 0x15
 1562 0738 92060000 		.4byte	.LASF140
 1563 073c 36       		.sleb128 54
 1564 073d 15       		.uleb128 0x15
 1565 073e 67050000 		.4byte	.LASF141
 1566 0742 37       		.sleb128 55
 1567 0743 15       		.uleb128 0x15
 1568 0744 4F060000 		.4byte	.LASF142
 1569 0748 38       		.sleb128 56
 1570 0749 15       		.uleb128 0x15
 1571 074a 78000000 		.4byte	.LASF143
 1572 074e 39       		.sleb128 57
 1573 074f 15       		.uleb128 0x15
 1574 0750 C00A0000 		.4byte	.LASF144
 1575 0754 3A       		.sleb128 58
 1576 0755 15       		.uleb128 0x15
 1577 0756 0C070000 		.4byte	.LASF145
 1578 075a 3B       		.sleb128 59
 1579 075b 15       		.uleb128 0x15
 1580 075c B8020000 		.4byte	.LASF146
 1581 0760 3C       		.sleb128 60
 1582 0761 15       		.uleb128 0x15
 1583 0762 0D090000 		.4byte	.LASF147
 1584 0766 3D       		.sleb128 61
 1585 0767 15       		.uleb128 0x15
 1586 0768 7F050000 		.4byte	.LASF148
 1587 076c 3E       		.sleb128 62
 1588 076d 15       		.uleb128 0x15
ARM GAS  /tmp/ccJH0Mxb.s 			page 29


 1589 076e 1E070000 		.4byte	.LASF149
 1590 0772 3F       		.sleb128 63
 1591 0773 15       		.uleb128 0x15
 1592 0774 FD000000 		.4byte	.LASF150
 1593 0778 C000     		.sleb128 64
 1594 077a 15       		.uleb128 0x15
 1595 077b 52080000 		.4byte	.LASF151
 1596 077f C100     		.sleb128 65
 1597 0781 15       		.uleb128 0x15
 1598 0782 F2020000 		.4byte	.LASF152
 1599 0786 C200     		.sleb128 66
 1600 0788 15       		.uleb128 0x15
 1601 0789 51040000 		.4byte	.LASF153
 1602 078d C300     		.sleb128 67
 1603 078f 15       		.uleb128 0x15
 1604 0790 CC010000 		.4byte	.LASF154
 1605 0794 C400     		.sleb128 68
 1606 0796 15       		.uleb128 0x15
 1607 0797 C2080000 		.4byte	.LASF155
 1608 079b C500     		.sleb128 69
 1609 079d 15       		.uleb128 0x15
 1610 079e 84070000 		.4byte	.LASF156
 1611 07a2 C600     		.sleb128 70
 1612 07a4 15       		.uleb128 0x15
 1613 07a5 0B010000 		.4byte	.LASF157
 1614 07a9 C700     		.sleb128 71
 1615 07ab 15       		.uleb128 0x15
 1616 07ac F7080000 		.4byte	.LASF158
 1617 07b0 C800     		.sleb128 72
 1618 07b2 15       		.uleb128 0x15
 1619 07b3 D3070000 		.4byte	.LASF159
 1620 07b7 C900     		.sleb128 73
 1621 07b9 15       		.uleb128 0x15
 1622 07ba 85090000 		.4byte	.LASF160
 1623 07be CA00     		.sleb128 74
 1624 07c0 15       		.uleb128 0x15
 1625 07c1 6C0A0000 		.4byte	.LASF161
 1626 07c5 CB00     		.sleb128 75
 1627 07c7 15       		.uleb128 0x15
 1628 07c8 28010000 		.4byte	.LASF162
 1629 07cc CC00     		.sleb128 76
 1630 07ce 15       		.uleb128 0x15
 1631 07cf 97050000 		.4byte	.LASF163
 1632 07d3 CD00     		.sleb128 77
 1633 07d5 15       		.uleb128 0x15
 1634 07d6 A8000000 		.4byte	.LASF164
 1635 07da CE00     		.sleb128 78
 1636 07dc 15       		.uleb128 0x15
 1637 07dd E0070000 		.4byte	.LASF165
 1638 07e1 CF00     		.sleb128 79
 1639 07e3 15       		.uleb128 0x15
 1640 07e4 EF030000 		.4byte	.LASF166
 1641 07e8 D000     		.sleb128 80
 1642 07ea 15       		.uleb128 0x15
 1643 07eb 1D060000 		.4byte	.LASF167
 1644 07ef D100     		.sleb128 81
 1645 07f1 00       		.byte	0
ARM GAS  /tmp/ccJH0Mxb.s 			page 30


 1646 07f2 16       		.uleb128 0x16
 1647 07f3 82000000 		.4byte	0x82
 1648 07f7 02080000 		.4byte	0x802
 1649 07fb 17       		.uleb128 0x17
 1650 07fc 57030000 		.4byte	0x357
 1651 0800 01       		.byte	0x1
 1652 0801 00       		.byte	0
 1653 0802 0D       		.uleb128 0xd
 1654 0803 5E000000 		.4byte	0x5e
 1655 0807 0D       		.uleb128 0xd
 1656 0808 70000000 		.4byte	0x70
 1657 080c 18       		.uleb128 0x18
 1658 080d 90       		.byte	0x90
 1659 080e 0B       		.byte	0xb
 1660 080f 5804     		.2byte	0x458
 1661 0811 F9090000 		.4byte	0x9f9
 1662 0815 0C       		.uleb128 0xc
 1663 0816 435200   		.ascii	"CR\000"
 1664 0819 0B       		.byte	0xb
 1665 081a 5A04     		.2byte	0x45a
 1666 081c 52030000 		.4byte	0x352
 1667 0820 02       		.byte	0x2
 1668 0821 23       		.byte	0x23
 1669 0822 00       		.uleb128 0
 1670 0823 19       		.uleb128 0x19
 1671 0824 2B050000 		.4byte	.LASF168
 1672 0828 0B       		.byte	0xb
 1673 0829 5B04     		.2byte	0x45b
 1674 082b 52030000 		.4byte	0x352
 1675 082f 02       		.byte	0x2
 1676 0830 23       		.byte	0x23
 1677 0831 04       		.uleb128 0x4
 1678 0832 19       		.uleb128 0x19
 1679 0833 DD030000 		.4byte	.LASF169
 1680 0837 0B       		.byte	0xb
 1681 0838 5C04     		.2byte	0x45c
 1682 083a 52030000 		.4byte	0x352
 1683 083e 02       		.byte	0x2
 1684 083f 23       		.byte	0x23
 1685 0840 08       		.uleb128 0x8
 1686 0841 0C       		.uleb128 0xc
 1687 0842 43495200 		.ascii	"CIR\000"
 1688 0846 0B       		.byte	0xb
 1689 0847 5D04     		.2byte	0x45d
 1690 0849 52030000 		.4byte	0x352
 1691 084d 02       		.byte	0x2
 1692 084e 23       		.byte	0x23
 1693 084f 0C       		.uleb128 0xc
 1694 0850 19       		.uleb128 0x19
 1695 0851 910A0000 		.4byte	.LASF170
 1696 0855 0B       		.byte	0xb
 1697 0856 5E04     		.2byte	0x45e
 1698 0858 52030000 		.4byte	0x352
 1699 085c 02       		.byte	0x2
 1700 085d 23       		.byte	0x23
 1701 085e 10       		.uleb128 0x10
 1702 085f 19       		.uleb128 0x19
ARM GAS  /tmp/ccJH0Mxb.s 			page 31


 1703 0860 04090000 		.4byte	.LASF171
 1704 0864 0B       		.byte	0xb
 1705 0865 5F04     		.2byte	0x45f
 1706 0867 52030000 		.4byte	0x352
 1707 086b 02       		.byte	0x2
 1708 086c 23       		.byte	0x23
 1709 086d 14       		.uleb128 0x14
 1710 086e 19       		.uleb128 0x19
 1711 086f 5E070000 		.4byte	.LASF172
 1712 0873 0B       		.byte	0xb
 1713 0874 6004     		.2byte	0x460
 1714 0876 52030000 		.4byte	0x352
 1715 087a 02       		.byte	0x2
 1716 087b 23       		.byte	0x23
 1717 087c 18       		.uleb128 0x18
 1718 087d 19       		.uleb128 0x19
 1719 087e 96020000 		.4byte	.LASF173
 1720 0882 0B       		.byte	0xb
 1721 0883 6104     		.2byte	0x461
 1722 0885 82000000 		.4byte	0x82
 1723 0889 02       		.byte	0x2
 1724 088a 23       		.byte	0x23
 1725 088b 1C       		.uleb128 0x1c
 1726 088c 19       		.uleb128 0x19
 1727 088d A8070000 		.4byte	.LASF174
 1728 0891 0B       		.byte	0xb
 1729 0892 6204     		.2byte	0x462
 1730 0894 52030000 		.4byte	0x352
 1731 0898 02       		.byte	0x2
 1732 0899 23       		.byte	0x23
 1733 089a 20       		.uleb128 0x20
 1734 089b 19       		.uleb128 0x19
 1735 089c C7050000 		.4byte	.LASF175
 1736 08a0 0B       		.byte	0xb
 1737 08a1 6304     		.2byte	0x463
 1738 08a3 52030000 		.4byte	0x352
 1739 08a7 02       		.byte	0x2
 1740 08a8 23       		.byte	0x23
 1741 08a9 24       		.uleb128 0x24
 1742 08aa 19       		.uleb128 0x19
 1743 08ab A0020000 		.4byte	.LASF176
 1744 08af 0B       		.byte	0xb
 1745 08b0 6404     		.2byte	0x464
 1746 08b2 F2070000 		.4byte	0x7f2
 1747 08b6 02       		.byte	0x2
 1748 08b7 23       		.byte	0x23
 1749 08b8 28       		.uleb128 0x28
 1750 08b9 19       		.uleb128 0x19
 1751 08ba D4080000 		.4byte	.LASF177
 1752 08be 0B       		.byte	0xb
 1753 08bf 6504     		.2byte	0x465
 1754 08c1 52030000 		.4byte	0x352
 1755 08c5 02       		.byte	0x2
 1756 08c6 23       		.byte	0x23
 1757 08c7 30       		.uleb128 0x30
 1758 08c8 19       		.uleb128 0x19
 1759 08c9 54030000 		.4byte	.LASF178
ARM GAS  /tmp/ccJH0Mxb.s 			page 32


 1760 08cd 0B       		.byte	0xb
 1761 08ce 6604     		.2byte	0x466
 1762 08d0 52030000 		.4byte	0x352
 1763 08d4 02       		.byte	0x2
 1764 08d5 23       		.byte	0x23
 1765 08d6 34       		.uleb128 0x34
 1766 08d7 19       		.uleb128 0x19
 1767 08d8 B80A0000 		.4byte	.LASF179
 1768 08dc 0B       		.byte	0xb
 1769 08dd 6704     		.2byte	0x467
 1770 08df 52030000 		.4byte	0x352
 1771 08e3 02       		.byte	0x2
 1772 08e4 23       		.byte	0x23
 1773 08e5 38       		.uleb128 0x38
 1774 08e6 19       		.uleb128 0x19
 1775 08e7 10030000 		.4byte	.LASF180
 1776 08eb 0B       		.byte	0xb
 1777 08ec 6804     		.2byte	0x468
 1778 08ee 82000000 		.4byte	0x82
 1779 08f2 02       		.byte	0x2
 1780 08f3 23       		.byte	0x23
 1781 08f4 3C       		.uleb128 0x3c
 1782 08f5 19       		.uleb128 0x19
 1783 08f6 CB070000 		.4byte	.LASF181
 1784 08fa 0B       		.byte	0xb
 1785 08fb 6904     		.2byte	0x469
 1786 08fd 52030000 		.4byte	0x352
 1787 0901 02       		.byte	0x2
 1788 0902 23       		.byte	0x23
 1789 0903 40       		.uleb128 0x40
 1790 0904 19       		.uleb128 0x19
 1791 0905 19020000 		.4byte	.LASF182
 1792 0909 0B       		.byte	0xb
 1793 090a 6A04     		.2byte	0x46a
 1794 090c 52030000 		.4byte	0x352
 1795 0910 02       		.byte	0x2
 1796 0911 23       		.byte	0x23
 1797 0912 44       		.uleb128 0x44
 1798 0913 19       		.uleb128 0x19
 1799 0914 1A030000 		.4byte	.LASF183
 1800 0918 0B       		.byte	0xb
 1801 0919 6B04     		.2byte	0x46b
 1802 091b F2070000 		.4byte	0x7f2
 1803 091f 02       		.byte	0x2
 1804 0920 23       		.byte	0x23
 1805 0921 48       		.uleb128 0x48
 1806 0922 19       		.uleb128 0x19
 1807 0923 21020000 		.4byte	.LASF184
 1808 0927 0B       		.byte	0xb
 1809 0928 6C04     		.2byte	0x46c
 1810 092a 52030000 		.4byte	0x352
 1811 092e 02       		.byte	0x2
 1812 092f 23       		.byte	0x23
 1813 0930 50       		.uleb128 0x50
 1814 0931 19       		.uleb128 0x19
 1815 0932 5A010000 		.4byte	.LASF185
 1816 0936 0B       		.byte	0xb
ARM GAS  /tmp/ccJH0Mxb.s 			page 33


 1817 0937 6D04     		.2byte	0x46d
 1818 0939 52030000 		.4byte	0x352
 1819 093d 02       		.byte	0x2
 1820 093e 23       		.byte	0x23
 1821 093f 54       		.uleb128 0x54
 1822 0940 19       		.uleb128 0x19
 1823 0941 69080000 		.4byte	.LASF186
 1824 0945 0B       		.byte	0xb
 1825 0946 6E04     		.2byte	0x46e
 1826 0948 52030000 		.4byte	0x352
 1827 094c 02       		.byte	0x2
 1828 094d 23       		.byte	0x23
 1829 094e 58       		.uleb128 0x58
 1830 094f 19       		.uleb128 0x19
 1831 0950 CA020000 		.4byte	.LASF187
 1832 0954 0B       		.byte	0xb
 1833 0955 6F04     		.2byte	0x46f
 1834 0957 82000000 		.4byte	0x82
 1835 095b 02       		.byte	0x2
 1836 095c 23       		.byte	0x23
 1837 095d 5C       		.uleb128 0x5c
 1838 095e 19       		.uleb128 0x19
 1839 095f E4060000 		.4byte	.LASF188
 1840 0963 0B       		.byte	0xb
 1841 0964 7004     		.2byte	0x470
 1842 0966 52030000 		.4byte	0x352
 1843 096a 02       		.byte	0x2
 1844 096b 23       		.byte	0x23
 1845 096c 60       		.uleb128 0x60
 1846 096d 19       		.uleb128 0x19
 1847 096e 31060000 		.4byte	.LASF189
 1848 0972 0B       		.byte	0xb
 1849 0973 7104     		.2byte	0x471
 1850 0975 52030000 		.4byte	0x352
 1851 0979 02       		.byte	0x2
 1852 097a 23       		.byte	0x23
 1853 097b 64       		.uleb128 0x64
 1854 097c 19       		.uleb128 0x19
 1855 097d 2E030000 		.4byte	.LASF190
 1856 0981 0B       		.byte	0xb
 1857 0982 7204     		.2byte	0x472
 1858 0984 F2070000 		.4byte	0x7f2
 1859 0988 02       		.byte	0x2
 1860 0989 23       		.byte	0x23
 1861 098a 68       		.uleb128 0x68
 1862 098b 19       		.uleb128 0x19
 1863 098c B3030000 		.4byte	.LASF191
 1864 0990 0B       		.byte	0xb
 1865 0991 7304     		.2byte	0x473
 1866 0993 52030000 		.4byte	0x352
 1867 0997 02       		.byte	0x2
 1868 0998 23       		.byte	0x23
 1869 0999 70       		.uleb128 0x70
 1870 099a 0C       		.uleb128 0xc
 1871 099b 43535200 		.ascii	"CSR\000"
 1872 099f 0B       		.byte	0xb
 1873 09a0 7404     		.2byte	0x474
ARM GAS  /tmp/ccJH0Mxb.s 			page 34


 1874 09a2 52030000 		.4byte	0x352
 1875 09a6 02       		.byte	0x2
 1876 09a7 23       		.byte	0x23
 1877 09a8 74       		.uleb128 0x74
 1878 09a9 19       		.uleb128 0x19
 1879 09aa DB020000 		.4byte	.LASF192
 1880 09ae 0B       		.byte	0xb
 1881 09af 7504     		.2byte	0x475
 1882 09b1 F2070000 		.4byte	0x7f2
 1883 09b5 02       		.byte	0x2
 1884 09b6 23       		.byte	0x23
 1885 09b7 78       		.uleb128 0x78
 1886 09b8 19       		.uleb128 0x19
 1887 09b9 AB050000 		.4byte	.LASF193
 1888 09bd 0B       		.byte	0xb
 1889 09be 7604     		.2byte	0x476
 1890 09c0 52030000 		.4byte	0x352
 1891 09c4 03       		.byte	0x3
 1892 09c5 23       		.byte	0x23
 1893 09c6 8001     		.uleb128 0x80
 1894 09c8 19       		.uleb128 0x19
 1895 09c9 2D000000 		.4byte	.LASF194
 1896 09cd 0B       		.byte	0xb
 1897 09ce 7704     		.2byte	0x477
 1898 09d0 52030000 		.4byte	0x352
 1899 09d4 03       		.byte	0x3
 1900 09d5 23       		.byte	0x23
 1901 09d6 8401     		.uleb128 0x84
 1902 09d8 19       		.uleb128 0x19
 1903 09d9 F7090000 		.4byte	.LASF195
 1904 09dd 0B       		.byte	0xb
 1905 09de 7804     		.2byte	0x478
 1906 09e0 52030000 		.4byte	0x352
 1907 09e4 03       		.byte	0x3
 1908 09e5 23       		.byte	0x23
 1909 09e6 8801     		.uleb128 0x88
 1910 09e8 19       		.uleb128 0x19
 1911 09e9 44020000 		.4byte	.LASF196
 1912 09ed 0B       		.byte	0xb
 1913 09ee 7904     		.2byte	0x479
 1914 09f0 52030000 		.4byte	0x352
 1915 09f4 03       		.byte	0x3
 1916 09f5 23       		.byte	0x23
 1917 09f6 8C01     		.uleb128 0x8c
 1918 09f8 00       		.byte	0
 1919 09f9 1A       		.uleb128 0x1a
 1920 09fa 1E090000 		.4byte	.LASF197
 1921 09fe 0B       		.byte	0xb
 1922 09ff 7B04     		.2byte	0x47b
 1923 0a01 0C080000 		.4byte	0x80c
 1924 0a05 18       		.uleb128 0x18
 1925 0a06 1C       		.byte	0x1c
 1926 0a07 0B       		.byte	0xb
 1927 0a08 2905     		.2byte	0x529
 1928 0a0a DF0A0000 		.4byte	0xadf
 1929 0a0e 0C       		.uleb128 0xc
 1930 0a0f 535200   		.ascii	"SR\000"
ARM GAS  /tmp/ccJH0Mxb.s 			page 35


 1931 0a12 0B       		.byte	0xb
 1932 0a13 2B05     		.2byte	0x52b
 1933 0a15 02080000 		.4byte	0x802
 1934 0a19 02       		.byte	0x2
 1935 0a1a 23       		.byte	0x23
 1936 0a1b 00       		.uleb128 0
 1937 0a1c 19       		.uleb128 0x19
 1938 0a1d 96020000 		.4byte	.LASF173
 1939 0a21 0B       		.byte	0xb
 1940 0a22 2C05     		.2byte	0x52c
 1941 0a24 5E000000 		.4byte	0x5e
 1942 0a28 02       		.byte	0x2
 1943 0a29 23       		.byte	0x23
 1944 0a2a 02       		.uleb128 0x2
 1945 0a2b 0C       		.uleb128 0xc
 1946 0a2c 445200   		.ascii	"DR\000"
 1947 0a2f 0B       		.byte	0xb
 1948 0a30 2D05     		.2byte	0x52d
 1949 0a32 02080000 		.4byte	0x802
 1950 0a36 02       		.byte	0x2
 1951 0a37 23       		.byte	0x23
 1952 0a38 04       		.uleb128 0x4
 1953 0a39 19       		.uleb128 0x19
 1954 0a3a A0020000 		.4byte	.LASF176
 1955 0a3e 0B       		.byte	0xb
 1956 0a3f 2E05     		.2byte	0x52e
 1957 0a41 5E000000 		.4byte	0x5e
 1958 0a45 02       		.byte	0x2
 1959 0a46 23       		.byte	0x23
 1960 0a47 06       		.uleb128 0x6
 1961 0a48 0C       		.uleb128 0xc
 1962 0a49 42525200 		.ascii	"BRR\000"
 1963 0a4d 0B       		.byte	0xb
 1964 0a4e 2F05     		.2byte	0x52f
 1965 0a50 02080000 		.4byte	0x802
 1966 0a54 02       		.byte	0x2
 1967 0a55 23       		.byte	0x23
 1968 0a56 08       		.uleb128 0x8
 1969 0a57 19       		.uleb128 0x19
 1970 0a58 10030000 		.4byte	.LASF180
 1971 0a5c 0B       		.byte	0xb
 1972 0a5d 3005     		.2byte	0x530
 1973 0a5f 5E000000 		.4byte	0x5e
 1974 0a63 02       		.byte	0x2
 1975 0a64 23       		.byte	0x23
 1976 0a65 0A       		.uleb128 0xa
 1977 0a66 0C       		.uleb128 0xc
 1978 0a67 43523100 		.ascii	"CR1\000"
 1979 0a6b 0B       		.byte	0xb
 1980 0a6c 3105     		.2byte	0x531
 1981 0a6e 02080000 		.4byte	0x802
 1982 0a72 02       		.byte	0x2
 1983 0a73 23       		.byte	0x23
 1984 0a74 0C       		.uleb128 0xc
 1985 0a75 19       		.uleb128 0x19
 1986 0a76 1A030000 		.4byte	.LASF183
 1987 0a7a 0B       		.byte	0xb
ARM GAS  /tmp/ccJH0Mxb.s 			page 36


 1988 0a7b 3205     		.2byte	0x532
 1989 0a7d 5E000000 		.4byte	0x5e
 1990 0a81 02       		.byte	0x2
 1991 0a82 23       		.byte	0x23
 1992 0a83 0E       		.uleb128 0xe
 1993 0a84 0C       		.uleb128 0xc
 1994 0a85 43523200 		.ascii	"CR2\000"
 1995 0a89 0B       		.byte	0xb
 1996 0a8a 3305     		.2byte	0x533
 1997 0a8c 02080000 		.4byte	0x802
 1998 0a90 02       		.byte	0x2
 1999 0a91 23       		.byte	0x23
 2000 0a92 10       		.uleb128 0x10
 2001 0a93 19       		.uleb128 0x19
 2002 0a94 CA020000 		.4byte	.LASF187
 2003 0a98 0B       		.byte	0xb
 2004 0a99 3405     		.2byte	0x534
 2005 0a9b 5E000000 		.4byte	0x5e
 2006 0a9f 02       		.byte	0x2
 2007 0aa0 23       		.byte	0x23
 2008 0aa1 12       		.uleb128 0x12
 2009 0aa2 0C       		.uleb128 0xc
 2010 0aa3 43523300 		.ascii	"CR3\000"
 2011 0aa7 0B       		.byte	0xb
 2012 0aa8 3505     		.2byte	0x535
 2013 0aaa 02080000 		.4byte	0x802
 2014 0aae 02       		.byte	0x2
 2015 0aaf 23       		.byte	0x23
 2016 0ab0 14       		.uleb128 0x14
 2017 0ab1 19       		.uleb128 0x19
 2018 0ab2 2E030000 		.4byte	.LASF190
 2019 0ab6 0B       		.byte	0xb
 2020 0ab7 3605     		.2byte	0x536
 2021 0ab9 5E000000 		.4byte	0x5e
 2022 0abd 02       		.byte	0x2
 2023 0abe 23       		.byte	0x23
 2024 0abf 16       		.uleb128 0x16
 2025 0ac0 19       		.uleb128 0x19
 2026 0ac1 6D000000 		.4byte	.LASF198
 2027 0ac5 0B       		.byte	0xb
 2028 0ac6 3705     		.2byte	0x537
 2029 0ac8 02080000 		.4byte	0x802
 2030 0acc 02       		.byte	0x2
 2031 0acd 23       		.byte	0x23
 2032 0ace 18       		.uleb128 0x18
 2033 0acf 19       		.uleb128 0x19
 2034 0ad0 DB020000 		.4byte	.LASF192
 2035 0ad4 0B       		.byte	0xb
 2036 0ad5 3805     		.2byte	0x538
 2037 0ad7 5E000000 		.4byte	0x5e
 2038 0adb 02       		.byte	0x2
 2039 0adc 23       		.byte	0x23
 2040 0add 1A       		.uleb128 0x1a
 2041 0ade 00       		.byte	0
 2042 0adf 1A       		.uleb128 0x1a
 2043 0ae0 83030000 		.4byte	.LASF199
 2044 0ae4 0B       		.byte	0xb
ARM GAS  /tmp/ccJH0Mxb.s 			page 37


 2045 0ae5 3905     		.2byte	0x539
 2046 0ae7 050A0000 		.4byte	0xa05
 2047 0aeb 11       		.uleb128 0x11
 2048 0aec 01       		.byte	0x1
 2049 0aed E0000000 		.4byte	0xe0
 2050 0af1 050B0000 		.4byte	0xb05
 2051 0af5 12       		.uleb128 0x12
 2052 0af6 9F020000 		.4byte	0x29f
 2053 0afa 12       		.uleb128 0x12
 2054 0afb 45000000 		.4byte	0x45
 2055 0aff 12       		.uleb128 0x12
 2056 0b00 01010000 		.4byte	0x101
 2057 0b04 00       		.byte	0
 2058 0b05 09       		.uleb128 0x9
 2059 0b06 04       		.byte	0x4
 2060 0b07 EB0A0000 		.4byte	0xaeb
 2061 0b0b 11       		.uleb128 0x11
 2062 0b0c 01       		.byte	0x1
 2063 0b0d E0000000 		.4byte	0xe0
 2064 0b11 200B0000 		.4byte	0xb20
 2065 0b15 12       		.uleb128 0x12
 2066 0b16 9F020000 		.4byte	0x29f
 2067 0b1a 12       		.uleb128 0x12
 2068 0b1b 01010000 		.4byte	0x101
 2069 0b1f 00       		.byte	0
 2070 0b20 09       		.uleb128 0x9
 2071 0b21 04       		.byte	0x4
 2072 0b22 0B0B0000 		.4byte	0xb0b
 2073 0b26 11       		.uleb128 0x11
 2074 0b27 01       		.byte	0x1
 2075 0b28 2C000000 		.4byte	0x2c
 2076 0b2c 450B0000 		.4byte	0xb45
 2077 0b30 12       		.uleb128 0x12
 2078 0b31 9F020000 		.4byte	0x29f
 2079 0b35 12       		.uleb128 0x12
 2080 0b36 6B050000 		.4byte	0x56b
 2081 0b3a 12       		.uleb128 0x12
 2082 0b3b 2C000000 		.4byte	0x2c
 2083 0b3f 12       		.uleb128 0x12
 2084 0b40 01010000 		.4byte	0x101
 2085 0b44 00       		.byte	0
 2086 0b45 09       		.uleb128 0x9
 2087 0b46 04       		.byte	0x4
 2088 0b47 260B0000 		.4byte	0xb26
 2089 0b4b 11       		.uleb128 0x11
 2090 0b4c 01       		.byte	0x1
 2091 0b4d 2C000000 		.4byte	0x2c
 2092 0b51 6A0B0000 		.4byte	0xb6a
 2093 0b55 12       		.uleb128 0x12
 2094 0b56 9F020000 		.4byte	0x29f
 2095 0b5a 12       		.uleb128 0x12
 2096 0b5b 35050000 		.4byte	0x535
 2097 0b5f 12       		.uleb128 0x12
 2098 0b60 2C000000 		.4byte	0x2c
 2099 0b64 12       		.uleb128 0x12
 2100 0b65 01010000 		.4byte	0x101
 2101 0b69 00       		.byte	0
ARM GAS  /tmp/ccJH0Mxb.s 			page 38


 2102 0b6a 09       		.uleb128 0x9
 2103 0b6b 04       		.byte	0x4
 2104 0b6c 4B0B0000 		.4byte	0xb4b
 2105 0b70 1B       		.uleb128 0x1b
 2106 0b71 01       		.byte	0x1
 2107 0b72 0C       		.byte	0xc
 2108 0b73 64       		.byte	0x64
 2109 0b74 8B0B0000 		.4byte	0xb8b
 2110 0b78 15       		.uleb128 0x15
 2111 0b79 00030000 		.4byte	.LASF200
 2112 0b7d 00       		.sleb128 0
 2113 0b7e 15       		.uleb128 0x15
 2114 0b7f 9A0A0000 		.4byte	.LASF201
 2115 0b83 01       		.sleb128 1
 2116 0b84 15       		.uleb128 0x15
 2117 0b85 EE080000 		.4byte	.LASF202
 2118 0b89 02       		.sleb128 2
 2119 0b8a 00       		.byte	0
 2120 0b8b 03       		.uleb128 0x3
 2121 0b8c B8080000 		.4byte	.LASF203
 2122 0b90 0C       		.byte	0xc
 2123 0b91 68       		.byte	0x68
 2124 0b92 700B0000 		.4byte	0xb70
 2125 0b96 03       		.uleb128 0x3
 2126 0b97 7C080000 		.4byte	.LASF204
 2127 0b9b 0C       		.byte	0xc
 2128 0b9c 6D       		.byte	0x6d
 2129 0b9d A10B0000 		.4byte	0xba1
 2130 0ba1 05       		.uleb128 0x5
 2131 0ba2 7C080000 		.4byte	.LASF204
 2132 0ba6 78       		.byte	0x78
 2133 0ba7 0C       		.byte	0xc
 2134 0ba8 87       		.byte	0x87
 2135 0ba9 1C0C0000 		.4byte	0xc1c
 2136 0bad 07       		.uleb128 0x7
 2137 0bae 766D7400 		.ascii	"vmt\000"
 2138 0bb2 0C       		.byte	0xc
 2139 0bb3 89       		.byte	0x89
 2140 0bb4 E50C0000 		.4byte	0xce5
 2141 0bb8 02       		.byte	0x2
 2142 0bb9 23       		.byte	0x23
 2143 0bba 00       		.uleb128 0
 2144 0bbb 06       		.uleb128 0x6
 2145 0bbc 61060000 		.4byte	.LASF205
 2146 0bc0 0C       		.byte	0xc
 2147 0bc1 8A       		.byte	0x8a
 2148 0bc2 1C040000 		.4byte	0x41c
 2149 0bc6 02       		.byte	0x2
 2150 0bc7 23       		.byte	0x23
 2151 0bc8 04       		.uleb128 0x4
 2152 0bc9 06       		.uleb128 0x6
 2153 0bca C2000000 		.4byte	.LASF206
 2154 0bce 0C       		.byte	0xc
 2155 0bcf 8A       		.byte	0x8a
 2156 0bd0 8B0B0000 		.4byte	0xb8b
 2157 0bd4 02       		.byte	0x2
 2158 0bd5 23       		.byte	0x23
ARM GAS  /tmp/ccJH0Mxb.s 			page 39


 2159 0bd6 08       		.uleb128 0x8
 2160 0bd7 06       		.uleb128 0x6
 2161 0bd8 3D090000 		.4byte	.LASF207
 2162 0bdc 0C       		.byte	0xc
 2163 0bdd 8A       		.byte	0x8a
 2164 0bde 3B050000 		.4byte	0x53b
 2165 0be2 02       		.byte	0x2
 2166 0be3 23       		.byte	0x23
 2167 0be4 0C       		.uleb128 0xc
 2168 0be5 06       		.uleb128 0x6
 2169 0be6 09020000 		.4byte	.LASF208
 2170 0bea 0C       		.byte	0xc
 2171 0beb 8A       		.byte	0x8a
 2172 0bec 46050000 		.4byte	0x546
 2173 0bf0 02       		.byte	0x2
 2174 0bf1 23       		.byte	0x23
 2175 0bf2 30       		.uleb128 0x30
 2176 0bf3 07       		.uleb128 0x7
 2177 0bf4 696200   		.ascii	"ib\000"
 2178 0bf7 0C       		.byte	0xc
 2179 0bf8 8A       		.byte	0x8a
 2180 0bf9 F00C0000 		.4byte	0xcf0
 2181 0bfd 02       		.byte	0x2
 2182 0bfe 23       		.byte	0x23
 2183 0bff 54       		.uleb128 0x54
 2184 0c00 07       		.uleb128 0x7
 2185 0c01 6F6200   		.ascii	"ob\000"
 2186 0c04 0C       		.byte	0xc
 2187 0c05 8A       		.byte	0x8a
 2188 0c06 F00C0000 		.4byte	0xcf0
 2189 0c0a 02       		.byte	0x2
 2190 0c0b 23       		.byte	0x23
 2191 0c0c 64       		.uleb128 0x64
 2192 0c0d 06       		.uleb128 0x6
 2193 0c0e 4C020000 		.4byte	.LASF209
 2194 0c12 0C       		.byte	0xc
 2195 0c13 8A       		.byte	0x8a
 2196 0c14 000D0000 		.4byte	0xd00
 2197 0c18 02       		.byte	0x2
 2198 0c19 23       		.byte	0x23
 2199 0c1a 74       		.uleb128 0x74
 2200 0c1b 00       		.byte	0
 2201 0c1c 08       		.uleb128 0x8
 2202 0c1d 0C       		.byte	0xc
 2203 0c1e 0D       		.byte	0xd
 2204 0c1f D7       		.byte	0xd7
 2205 0c20 5D0C0000 		.4byte	0xc5d
 2206 0c24 06       		.uleb128 0x6
 2207 0c25 CC030000 		.4byte	.LASF210
 2208 0c29 0D       		.byte	0xd
 2209 0c2a DB       		.byte	0xdb
 2210 0c2b 82000000 		.4byte	0x82
 2211 0c2f 02       		.byte	0x2
 2212 0c30 23       		.byte	0x23
 2213 0c31 00       		.uleb128 0
 2214 0c32 07       		.uleb128 0x7
 2215 0c33 63723100 		.ascii	"cr1\000"
ARM GAS  /tmp/ccJH0Mxb.s 			page 40


 2216 0c37 0D       		.byte	0xd
 2217 0c38 E0       		.byte	0xe0
 2218 0c39 5E000000 		.4byte	0x5e
 2219 0c3d 02       		.byte	0x2
 2220 0c3e 23       		.byte	0x23
 2221 0c3f 04       		.uleb128 0x4
 2222 0c40 07       		.uleb128 0x7
 2223 0c41 63723200 		.ascii	"cr2\000"
 2224 0c45 0D       		.byte	0xd
 2225 0c46 E4       		.byte	0xe4
 2226 0c47 5E000000 		.4byte	0x5e
 2227 0c4b 02       		.byte	0x2
 2228 0c4c 23       		.byte	0x23
 2229 0c4d 06       		.uleb128 0x6
 2230 0c4e 07       		.uleb128 0x7
 2231 0c4f 63723300 		.ascii	"cr3\000"
 2232 0c53 0D       		.byte	0xd
 2233 0c54 E8       		.byte	0xe8
 2234 0c55 5E000000 		.4byte	0x5e
 2235 0c59 02       		.byte	0x2
 2236 0c5a 23       		.byte	0x23
 2237 0c5b 08       		.uleb128 0x8
 2238 0c5c 00       		.byte	0
 2239 0c5d 03       		.uleb128 0x3
 2240 0c5e 59000000 		.4byte	.LASF211
 2241 0c62 0D       		.byte	0xd
 2242 0c63 E9       		.byte	0xe9
 2243 0c64 1C0C0000 		.4byte	0xc1c
 2244 0c68 05       		.uleb128 0x5
 2245 0c69 E7040000 		.4byte	.LASF212
 2246 0c6d 20       		.byte	0x20
 2247 0c6e 0C       		.byte	0xc
 2248 0c6f 7C       		.byte	0x7c
 2249 0c70 E50C0000 		.4byte	0xce5
 2250 0c74 06       		.uleb128 0x6
 2251 0c75 72000000 		.4byte	.LASF213
 2252 0c79 0C       		.byte	0xc
 2253 0c7a 7D       		.byte	0x7d
 2254 0c7b 76050000 		.4byte	0x576
 2255 0c7f 02       		.byte	0x2
 2256 0c80 23       		.byte	0x23
 2257 0c81 00       		.uleb128 0
 2258 0c82 06       		.uleb128 0x6
 2259 0c83 80060000 		.4byte	.LASF214
 2260 0c87 0C       		.byte	0xc
 2261 0c88 7D       		.byte	0x7d
 2262 0c89 96050000 		.4byte	0x596
 2263 0c8d 02       		.byte	0x2
 2264 0c8e 23       		.byte	0x23
 2265 0c8f 04       		.uleb128 0x4
 2266 0c90 07       		.uleb128 0x7
 2267 0c91 70757400 		.ascii	"put\000"
 2268 0c95 0C       		.byte	0xc
 2269 0c96 7D       		.byte	0x7d
 2270 0c97 B1050000 		.4byte	0x5b1
 2271 0c9b 02       		.byte	0x2
 2272 0c9c 23       		.byte	0x23
ARM GAS  /tmp/ccJH0Mxb.s 			page 41


 2273 0c9d 08       		.uleb128 0x8
 2274 0c9e 07       		.uleb128 0x7
 2275 0c9f 67657400 		.ascii	"get\000"
 2276 0ca3 0C       		.byte	0xc
 2277 0ca4 7D       		.byte	0x7d
 2278 0ca5 74040000 		.4byte	0x474
 2279 0ca9 02       		.byte	0x2
 2280 0caa 23       		.byte	0x23
 2281 0cab 0C       		.uleb128 0xc
 2282 0cac 06       		.uleb128 0x6
 2283 0cad C8000000 		.4byte	.LASF215
 2284 0cb1 0C       		.byte	0xc
 2285 0cb2 7D       		.byte	0x7d
 2286 0cb3 050B0000 		.4byte	0xb05
 2287 0cb7 02       		.byte	0x2
 2288 0cb8 23       		.byte	0x23
 2289 0cb9 10       		.uleb128 0x10
 2290 0cba 06       		.uleb128 0x6
 2291 0cbb 7E030000 		.4byte	.LASF216
 2292 0cbf 0C       		.byte	0xc
 2293 0cc0 7D       		.byte	0x7d
 2294 0cc1 200B0000 		.4byte	0xb20
 2295 0cc5 02       		.byte	0x2
 2296 0cc6 23       		.byte	0x23
 2297 0cc7 14       		.uleb128 0x14
 2298 0cc8 06       		.uleb128 0x6
 2299 0cc9 66000000 		.4byte	.LASF217
 2300 0ccd 0C       		.byte	0xc
 2301 0cce 7D       		.byte	0x7d
 2302 0ccf 450B0000 		.4byte	0xb45
 2303 0cd3 02       		.byte	0x2
 2304 0cd4 23       		.byte	0x23
 2305 0cd5 18       		.uleb128 0x18
 2306 0cd6 06       		.uleb128 0x6
 2307 0cd7 64010000 		.4byte	.LASF218
 2308 0cdb 0C       		.byte	0xc
 2309 0cdc 7D       		.byte	0x7d
 2310 0cdd 6A0B0000 		.4byte	0xb6a
 2311 0ce1 02       		.byte	0x2
 2312 0ce2 23       		.byte	0x23
 2313 0ce3 1C       		.uleb128 0x1c
 2314 0ce4 00       		.byte	0
 2315 0ce5 09       		.uleb128 0x9
 2316 0ce6 04       		.byte	0x4
 2317 0ce7 EB0C0000 		.4byte	0xceb
 2318 0ceb 10       		.uleb128 0x10
 2319 0cec 680C0000 		.4byte	0xc68
 2320 0cf0 16       		.uleb128 0x16
 2321 0cf1 45000000 		.4byte	0x45
 2322 0cf5 000D0000 		.4byte	0xd00
 2323 0cf9 17       		.uleb128 0x17
 2324 0cfa 57030000 		.4byte	0x357
 2325 0cfe 0F       		.byte	0xf
 2326 0cff 00       		.byte	0
 2327 0d00 09       		.uleb128 0x9
 2328 0d01 04       		.byte	0x4
 2329 0d02 DF0A0000 		.4byte	0xadf
ARM GAS  /tmp/ccJH0Mxb.s 			page 42


 2330 0d06 1C       		.uleb128 0x1c
 2331 0d07 F7040000 		.4byte	.LASF219
 2332 0d0b 01       		.byte	0x1
 2333 0d0c 7A       		.byte	0x7a
 2334 0d0d 01       		.byte	0x1
 2335 0d0e 01       		.byte	0x1
 2336 0d0f 1D0D0000 		.4byte	0xd1d
 2337 0d13 1D       		.uleb128 0x1d
 2338 0d14 7500     		.ascii	"u\000"
 2339 0d16 01       		.byte	0x1
 2340 0d17 7A       		.byte	0x7a
 2341 0d18 000D0000 		.4byte	0xd00
 2342 0d1c 00       		.byte	0
 2343 0d1d 1C       		.uleb128 0x1c
 2344 0d1e E3000000 		.4byte	.LASF220
 2345 0d22 01       		.byte	0x1
 2346 0d23 9A       		.byte	0x9a
 2347 0d24 01       		.byte	0x1
 2348 0d25 01       		.byte	0x1
 2349 0d26 E30D0000 		.4byte	0xde3
 2350 0d2a 1D       		.uleb128 0x1d
 2351 0d2b 73647000 		.ascii	"sdp\000"
 2352 0d2f 01       		.byte	0x1
 2353 0d30 9A       		.byte	0x9a
 2354 0d31 E30D0000 		.4byte	0xde3
 2355 0d35 1E       		.uleb128 0x1e
 2356 0d36 7500     		.ascii	"u\000"
 2357 0d38 01       		.byte	0x1
 2358 0d39 9B       		.byte	0x9b
 2359 0d3a 000D0000 		.4byte	0xd00
 2360 0d3e 1E       		.uleb128 0x1e
 2361 0d3f 63723100 		.ascii	"cr1\000"
 2362 0d43 01       		.byte	0x1
 2363 0d44 9C       		.byte	0x9c
 2364 0d45 5E000000 		.4byte	0x5e
 2365 0d49 1E       		.uleb128 0x1e
 2366 0d4a 737200   		.ascii	"sr\000"
 2367 0d4d 01       		.byte	0x1
 2368 0d4e 9D       		.byte	0x9d
 2369 0d4f 5E000000 		.4byte	0x5e
 2370 0d53 1F       		.uleb128 0x1f
 2371 0d54 640D0000 		.4byte	0xd64
 2372 0d58 1E       		.uleb128 0x1e
 2373 0d59 746D7000 		.ascii	"tmp\000"
 2374 0d5d 01       		.byte	0x1
 2375 0d5e A1       		.byte	0xa1
 2376 0d5f 82000000 		.4byte	0x82
 2377 0d63 00       		.byte	0
 2378 0d64 1F       		.uleb128 0x1f
 2379 0d65 750D0000 		.4byte	0xd75
 2380 0d69 1E       		.uleb128 0x1e
 2381 0d6a 746D7000 		.ascii	"tmp\000"
 2382 0d6e 01       		.byte	0x1
 2383 0d6f A3       		.byte	0xa3
 2384 0d70 82000000 		.4byte	0x82
 2385 0d74 00       		.byte	0
 2386 0d75 1F       		.uleb128 0x1f
ARM GAS  /tmp/ccJH0Mxb.s 			page 43


 2387 0d76 860D0000 		.4byte	0xd86
 2388 0d7a 1E       		.uleb128 0x1e
 2389 0d7b 746D7000 		.ascii	"tmp\000"
 2390 0d7f 01       		.byte	0x1
 2391 0d80 A8       		.byte	0xa8
 2392 0d81 82000000 		.4byte	0x82
 2393 0d85 00       		.byte	0
 2394 0d86 1F       		.uleb128 0x1f
 2395 0d87 970D0000 		.4byte	0xd97
 2396 0d8b 1E       		.uleb128 0x1e
 2397 0d8c 746D7000 		.ascii	"tmp\000"
 2398 0d90 01       		.byte	0x1
 2399 0d91 B0       		.byte	0xb0
 2400 0d92 82000000 		.4byte	0x82
 2401 0d96 00       		.byte	0
 2402 0d97 1F       		.uleb128 0x1f
 2403 0d98 C40D0000 		.4byte	0xdc4
 2404 0d9c 1E       		.uleb128 0x1e
 2405 0d9d 6200     		.ascii	"b\000"
 2406 0d9f 01       		.byte	0x1
 2407 0da0 B4       		.byte	0xb4
 2408 0da1 E0000000 		.4byte	0xe0
 2409 0da5 1F       		.uleb128 0x1f
 2410 0da6 B60D0000 		.4byte	0xdb6
 2411 0daa 1E       		.uleb128 0x1e
 2412 0dab 746D7000 		.ascii	"tmp\000"
 2413 0daf 01       		.byte	0x1
 2414 0db0 B5       		.byte	0xb5
 2415 0db1 82000000 		.4byte	0x82
 2416 0db5 00       		.byte	0
 2417 0db6 20       		.uleb128 0x20
 2418 0db7 1E       		.uleb128 0x1e
 2419 0db8 746D7000 		.ascii	"tmp\000"
 2420 0dbc 01       		.byte	0x1
 2421 0dbd BD       		.byte	0xbd
 2422 0dbe 82000000 		.4byte	0x82
 2423 0dc2 00       		.byte	0
 2424 0dc3 00       		.byte	0
 2425 0dc4 1F       		.uleb128 0x1f
 2426 0dc5 D50D0000 		.4byte	0xdd5
 2427 0dc9 1E       		.uleb128 0x1e
 2428 0dca 746D7000 		.ascii	"tmp\000"
 2429 0dce 01       		.byte	0x1
 2430 0dcf C2       		.byte	0xc2
 2431 0dd0 82000000 		.4byte	0x82
 2432 0dd4 00       		.byte	0
 2433 0dd5 20       		.uleb128 0x20
 2434 0dd6 1E       		.uleb128 0x1e
 2435 0dd7 746D7000 		.ascii	"tmp\000"
 2436 0ddb 01       		.byte	0x1
 2437 0ddc C4       		.byte	0xc4
 2438 0ddd 82000000 		.4byte	0x82
 2439 0de1 00       		.byte	0
 2440 0de2 00       		.byte	0
 2441 0de3 09       		.uleb128 0x9
 2442 0de4 04       		.byte	0x4
 2443 0de5 960B0000 		.4byte	0xb96
ARM GAS  /tmp/ccJH0Mxb.s 			page 44


 2444 0de9 21       		.uleb128 0x21
 2445 0dea 16090000 		.4byte	.LASF236
 2446 0dee 01       		.byte	0x1
 2447 0def D3       		.byte	0xd3
 2448 0df0 01       		.byte	0x1
 2449 0df1 00000000 		.4byte	.LFB122
 2450 0df5 14000000 		.4byte	.LFE122
 2451 0df9 02       		.byte	0x2
 2452 0dfa 7D       		.byte	0x7d
 2453 0dfb 00       		.sleb128 0
 2454 0dfc 01       		.byte	0x1
 2455 0dfd 0E0E0000 		.4byte	0xe0e
 2456 0e01 22       		.uleb128 0x22
 2457 0e02 717000   		.ascii	"qp\000"
 2458 0e05 01       		.byte	0x1
 2459 0e06 D3       		.byte	0xd3
 2460 0e07 2F050000 		.4byte	0x52f
 2461 0e0b 01       		.byte	0x1
 2462 0e0c 50       		.byte	0x50
 2463 0e0d 00       		.byte	0
 2464 0e0e 1C       		.uleb128 0x1c
 2465 0e0f F3000000 		.4byte	.LASF221
 2466 0e13 01       		.byte	0x1
 2467 0e14 87       		.byte	0x87
 2468 0e15 01       		.byte	0x1
 2469 0e16 01       		.byte	0x1
 2470 0e17 3C0E0000 		.4byte	0xe3c
 2471 0e1b 1D       		.uleb128 0x1d
 2472 0e1c 73647000 		.ascii	"sdp\000"
 2473 0e20 01       		.byte	0x1
 2474 0e21 87       		.byte	0x87
 2475 0e22 E30D0000 		.4byte	0xde3
 2476 0e26 1D       		.uleb128 0x1d
 2477 0e27 737200   		.ascii	"sr\000"
 2478 0e2a 01       		.byte	0x1
 2479 0e2b 87       		.byte	0x87
 2480 0e2c 5E000000 		.4byte	0x5e
 2481 0e30 1E       		.uleb128 0x1e
 2482 0e31 73747300 		.ascii	"sts\000"
 2483 0e35 01       		.byte	0x1
 2484 0e36 88       		.byte	0x88
 2485 0e37 F6000000 		.4byte	0xf6
 2486 0e3b 00       		.byte	0
 2487 0e3c 23       		.uleb128 0x23
 2488 0e3d 01       		.byte	0x1
 2489 0e3e 8A000000 		.4byte	.LASF222
 2490 0e42 01       		.byte	0x1
 2491 0e43 1A01     		.2byte	0x11a
 2492 0e45 01       		.byte	0x1
 2493 0e46 00000000 		.4byte	.LFB123
 2494 0e4a 20010000 		.4byte	.LFE123
 2495 0e4e 00000000 		.4byte	.LLST0
 2496 0e52 01       		.byte	0x1
 2497 0e53 2D100000 		.4byte	0x102d
 2498 0e57 24       		.uleb128 0x24
 2499 0e58 1D0D0000 		.4byte	0xd1d
 2500 0e5c 00000000 		.4byte	.LBB26
ARM GAS  /tmp/ccJH0Mxb.s 			page 45


 2501 0e60 00000000 		.4byte	.Ldebug_ranges0+0
 2502 0e64 01       		.byte	0x1
 2503 0e65 1E01     		.2byte	0x11e
 2504 0e67 22100000 		.4byte	0x1022
 2505 0e6b 25       		.uleb128 0x25
 2506 0e6c 20000000 		.4byte	.Ldebug_ranges0+0x20
 2507 0e70 26       		.uleb128 0x26
 2508 0e71 350D0000 		.4byte	0xd35
 2509 0e75 01       		.byte	0x1
 2510 0e76 55       		.byte	0x55
 2511 0e77 26       		.uleb128 0x26
 2512 0e78 3E0D0000 		.4byte	0xd3e
 2513 0e7c 01       		.byte	0x1
 2514 0e7d 56       		.byte	0x56
 2515 0e7e 27       		.uleb128 0x27
 2516 0e7f 490D0000 		.4byte	0xd49
 2517 0e83 20000000 		.4byte	.LLST1
 2518 0e87 28       		.uleb128 0x28
 2519 0e88 2A0D0000 		.4byte	0xd2a
 2520 0e8c 06       		.byte	0x6
 2521 0e8d 03       		.byte	0x3
 2522 0e8e 00000000 		.4byte	SD2
 2523 0e92 9F       		.byte	0x9f
 2524 0e93 29       		.uleb128 0x29
 2525 0e94 18000000 		.4byte	.LBB28
 2526 0e98 1E000000 		.4byte	.LBE28
 2527 0e9c AA0E0000 		.4byte	0xeaa
 2528 0ea0 27       		.uleb128 0x27
 2529 0ea1 7A0D0000 		.4byte	0xd7a
 2530 0ea5 49000000 		.4byte	.LLST2
 2531 0ea9 00       		.byte	0
 2532 0eaa 2A       		.uleb128 0x2a
 2533 0eab 0E0E0000 		.4byte	0xe0e
 2534 0eaf 40000000 		.4byte	.LBB29
 2535 0eb3 78000000 		.4byte	.LBE29
 2536 0eb7 01       		.byte	0x1
 2537 0eb8 AC       		.byte	0xac
 2538 0eb9 EC0E0000 		.4byte	0xeec
 2539 0ebd 2B       		.uleb128 0x2b
 2540 0ebe 260E0000 		.4byte	0xe26
 2541 0ec2 5C000000 		.4byte	.LLST3
 2542 0ec6 2B       		.uleb128 0x2b
 2543 0ec7 1B0E0000 		.4byte	0xe1b
 2544 0ecb 6F000000 		.4byte	.LLST4
 2545 0ecf 2C       		.uleb128 0x2c
 2546 0ed0 40000000 		.4byte	.LBB30
 2547 0ed4 78000000 		.4byte	.LBE30
 2548 0ed8 27       		.uleb128 0x27
 2549 0ed9 300E0000 		.4byte	0xe30
 2550 0edd 87000000 		.4byte	.LLST5
 2551 0ee1 2D       		.uleb128 0x2d
 2552 0ee2 76000000 		.4byte	.LVL17
 2553 0ee6 B6110000 		.4byte	0x11b6
 2554 0eea 00       		.byte	0
 2555 0eeb 00       		.byte	0
 2556 0eec 29       		.uleb128 0x29
 2557 0eed 78000000 		.4byte	.LBB31
ARM GAS  /tmp/ccJH0Mxb.s 			page 46


 2558 0ef1 7E000000 		.4byte	.LBE31
 2559 0ef5 030F0000 		.4byte	0xf03
 2560 0ef9 27       		.uleb128 0x27
 2561 0efa 8B0D0000 		.4byte	0xd8b
 2562 0efe A6000000 		.4byte	.LLST6
 2563 0f02 00       		.byte	0
 2564 0f03 29       		.uleb128 0x29
 2565 0f04 98000000 		.4byte	.LBB32
 2566 0f08 9E000000 		.4byte	.LBE32
 2567 0f0c 1A0F0000 		.4byte	0xf1a
 2568 0f10 27       		.uleb128 0x27
 2569 0f11 C90D0000 		.4byte	0xdc9
 2570 0f15 B9000000 		.4byte	.LLST7
 2571 0f19 00       		.byte	0
 2572 0f1a 29       		.uleb128 0x29
 2573 0f1b A6000000 		.4byte	.LBB33
 2574 0f1f AC000000 		.4byte	.LBE33
 2575 0f23 310F0000 		.4byte	0xf31
 2576 0f27 27       		.uleb128 0x27
 2577 0f28 D60D0000 		.4byte	0xdd6
 2578 0f2c CC000000 		.4byte	.LLST8
 2579 0f30 00       		.byte	0
 2580 0f31 29       		.uleb128 0x29
 2581 0f32 C2000000 		.4byte	.LBB34
 2582 0f36 C8000000 		.4byte	.LBE34
 2583 0f3a 480F0000 		.4byte	0xf48
 2584 0f3e 27       		.uleb128 0x27
 2585 0f3f 580D0000 		.4byte	0xd58
 2586 0f43 DF000000 		.4byte	.LLST9
 2587 0f47 00       		.byte	0
 2588 0f48 29       		.uleb128 0x29
 2589 0f49 D2000000 		.4byte	.LBB35
 2590 0f4d D8000000 		.4byte	.LBE35
 2591 0f51 5F0F0000 		.4byte	0xf5f
 2592 0f55 27       		.uleb128 0x27
 2593 0f56 690D0000 		.4byte	0xd69
 2594 0f5a F2000000 		.4byte	.LLST10
 2595 0f5e 00       		.byte	0
 2596 0f5f 29       		.uleb128 0x29
 2597 0f60 E0000000 		.4byte	.LBB36
 2598 0f64 20010000 		.4byte	.LBE36
 2599 0f68 D30F0000 		.4byte	0xfd3
 2600 0f6c 27       		.uleb128 0x27
 2601 0f6d 9C0D0000 		.4byte	0xd9c
 2602 0f71 05010000 		.4byte	.LLST11
 2603 0f75 29       		.uleb128 0x29
 2604 0f76 E0000000 		.4byte	.LBB37
 2605 0f7a E6000000 		.4byte	.LBE37
 2606 0f7e 8C0F0000 		.4byte	0xf8c
 2607 0f82 27       		.uleb128 0x27
 2608 0f83 AA0D0000 		.4byte	0xdaa
 2609 0f87 18010000 		.4byte	.LLST12
 2610 0f8b 00       		.byte	0
 2611 0f8c 29       		.uleb128 0x29
 2612 0f8d F6000000 		.4byte	.LBB38
 2613 0f91 FE000000 		.4byte	.LBE38
 2614 0f95 A30F0000 		.4byte	0xfa3
ARM GAS  /tmp/ccJH0Mxb.s 			page 47


 2615 0f99 27       		.uleb128 0x27
 2616 0f9a B70D0000 		.4byte	0xdb7
 2617 0f9e 2B010000 		.4byte	.LLST13
 2618 0fa2 00       		.byte	0
 2619 0fa3 2E       		.uleb128 0x2e
 2620 0fa4 EC000000 		.4byte	.LVL40
 2621 0fa8 D5110000 		.4byte	0x11d5
 2622 0fac BA0F0000 		.4byte	0xfba
 2623 0fb0 2F       		.uleb128 0x2f
 2624 0fb1 01       		.byte	0x1
 2625 0fb2 50       		.byte	0x50
 2626 0fb3 05       		.byte	0x5
 2627 0fb4 03       		.byte	0x3
 2628 0fb5 30000000 		.4byte	.LANCHOR0+48
 2629 0fb9 00       		.byte	0
 2630 0fba 30       		.uleb128 0x30
 2631 0fbb 06010000 		.4byte	.LVL44
 2632 0fbf B6110000 		.4byte	0x11b6
 2633 0fc3 2F       		.uleb128 0x2f
 2634 0fc4 01       		.byte	0x1
 2635 0fc5 51       		.byte	0x51
 2636 0fc6 01       		.byte	0x1
 2637 0fc7 38       		.byte	0x38
 2638 0fc8 2F       		.uleb128 0x2f
 2639 0fc9 01       		.byte	0x1
 2640 0fca 50       		.byte	0x50
 2641 0fcb 05       		.byte	0x5
 2642 0fcc 03       		.byte	0x3
 2643 0fcd 04000000 		.4byte	.LANCHOR0+4
 2644 0fd1 00       		.byte	0
 2645 0fd2 00       		.byte	0
 2646 0fd3 2E       		.uleb128 0x2e
 2647 0fd4 30000000 		.4byte	.LVL8
 2648 0fd8 F4110000 		.4byte	0x11f4
 2649 0fdc EA0F0000 		.4byte	0xfea
 2650 0fe0 2F       		.uleb128 0x2f
 2651 0fe1 01       		.byte	0x1
 2652 0fe2 50       		.byte	0x50
 2653 0fe3 05       		.byte	0x5
 2654 0fe4 03       		.byte	0x3
 2655 0fe5 00000000 		.4byte	.LANCHOR0
 2656 0fe9 00       		.byte	0
 2657 0fea 2E       		.uleb128 0x2e
 2658 0feb A6000000 		.4byte	.LVL25
 2659 0fef B6110000 		.4byte	0x11b6
 2660 0ff3 06100000 		.4byte	0x1006
 2661 0ff7 2F       		.uleb128 0x2f
 2662 0ff8 01       		.byte	0x1
 2663 0ff9 51       		.byte	0x51
 2664 0ffa 01       		.byte	0x1
 2665 0ffb 40       		.byte	0x40
 2666 0ffc 2F       		.uleb128 0x2f
 2667 0ffd 01       		.byte	0x1
 2668 0ffe 50       		.byte	0x50
 2669 0fff 05       		.byte	0x5
 2670 1000 03       		.byte	0x3
 2671 1001 04000000 		.4byte	.LANCHOR0+4
ARM GAS  /tmp/ccJH0Mxb.s 			page 48


 2672 1005 00       		.byte	0
 2673 1006 30       		.uleb128 0x30
 2674 1007 D2000000 		.4byte	.LVL33
 2675 100b B6110000 		.4byte	0x11b6
 2676 100f 2F       		.uleb128 0x2f
 2677 1010 01       		.byte	0x1
 2678 1011 51       		.byte	0x51
 2679 1012 03       		.byte	0x3
 2680 1013 0A       		.byte	0xa
 2681 1014 0002     		.2byte	0x200
 2682 1016 2F       		.uleb128 0x2f
 2683 1017 01       		.byte	0x1
 2684 1018 50       		.byte	0x50
 2685 1019 05       		.byte	0x5
 2686 101a 03       		.byte	0x3
 2687 101b 04000000 		.4byte	.LANCHOR0+4
 2688 101f 00       		.byte	0
 2689 1020 00       		.byte	0
 2690 1021 00       		.byte	0
 2691 1022 31       		.uleb128 0x31
 2692 1023 C2000000 		.4byte	.LVL30
 2693 1027 01       		.byte	0x1
 2694 1028 0E120000 		.4byte	0x120e
 2695 102c 00       		.byte	0
 2696 102d 23       		.uleb128 0x23
 2697 102e 01       		.byte	0x1
 2698 102f 1F050000 		.4byte	.LASF223
 2699 1033 01       		.byte	0x1
 2700 1034 7901     		.2byte	0x179
 2701 1036 01       		.byte	0x1
 2702 1037 00000000 		.4byte	.LFB124
 2703 103b 26000000 		.4byte	.LFE124
 2704 103f 54010000 		.4byte	.LLST14
 2705 1043 01       		.byte	0x1
 2706 1044 67100000 		.4byte	0x1067
 2707 1048 30       		.uleb128 0x30
 2708 1049 1A000000 		.4byte	.LVL45
 2709 104d 19120000 		.4byte	0x1219
 2710 1051 2F       		.uleb128 0x2f
 2711 1052 01       		.byte	0x1
 2712 1053 52       		.byte	0x52
 2713 1054 05       		.byte	0x5
 2714 1055 03       		.byte	0x3
 2715 1056 00000000 		.4byte	notify2
 2716 105a 2F       		.uleb128 0x2f
 2717 105b 01       		.byte	0x1
 2718 105c 51       		.byte	0x51
 2719 105d 01       		.byte	0x1
 2720 105e 30       		.byte	0x30
 2721 105f 2F       		.uleb128 0x2f
 2722 1060 01       		.byte	0x1
 2723 1061 50       		.byte	0x50
 2724 1062 02       		.byte	0x2
 2725 1063 74       		.byte	0x74
 2726 1064 00       		.sleb128 0
 2727 1065 00       		.byte	0
 2728 1066 00       		.byte	0
ARM GAS  /tmp/ccJH0Mxb.s 			page 49


 2729 1067 1C       		.uleb128 0x1c
 2730 1068 B1070000 		.4byte	.LASF224
 2731 106c 01       		.byte	0x1
 2732 106d 5C       		.byte	0x5c
 2733 106e 01       		.byte	0x1
 2734 106f 01       		.byte	0x1
 2735 1070 94100000 		.4byte	0x1094
 2736 1074 1D       		.uleb128 0x1d
 2737 1075 73647000 		.ascii	"sdp\000"
 2738 1079 01       		.byte	0x1
 2739 107a 5C       		.byte	0x5c
 2740 107b E30D0000 		.4byte	0xde3
 2741 107f 32       		.uleb128 0x32
 2742 1080 BB000000 		.4byte	.LASF225
 2743 1084 01       		.byte	0x1
 2744 1085 5C       		.byte	0x5c
 2745 1086 94100000 		.4byte	0x1094
 2746 108a 1E       		.uleb128 0x1e
 2747 108b 7500     		.ascii	"u\000"
 2748 108d 01       		.byte	0x1
 2749 108e 5D       		.byte	0x5d
 2750 108f 000D0000 		.4byte	0xd00
 2751 1093 00       		.byte	0
 2752 1094 09       		.uleb128 0x9
 2753 1095 04       		.byte	0x4
 2754 1096 9A100000 		.4byte	0x109a
 2755 109a 10       		.uleb128 0x10
 2756 109b 5D0C0000 		.4byte	0xc5d
 2757 109f 23       		.uleb128 0x23
 2758 10a0 01       		.byte	0x1
 2759 10a1 6A010000 		.4byte	.LASF226
 2760 10a5 01       		.byte	0x1
 2761 10a6 A401     		.2byte	0x1a4
 2762 10a8 01       		.byte	0x1
 2763 10a9 00000000 		.4byte	.LFB125
 2764 10ad 9C000000 		.4byte	.LFE125
 2765 10b1 74010000 		.4byte	.LLST15
 2766 10b5 01       		.byte	0x1
 2767 10b6 2B110000 		.4byte	0x112b
 2768 10ba 33       		.uleb128 0x33
 2769 10bb 73647000 		.ascii	"sdp\000"
 2770 10bf 01       		.byte	0x1
 2771 10c0 A401     		.2byte	0x1a4
 2772 10c2 E30D0000 		.4byte	0xde3
 2773 10c6 94010000 		.4byte	.LLST16
 2774 10ca 34       		.uleb128 0x34
 2775 10cb BB000000 		.4byte	.LASF225
 2776 10cf 01       		.byte	0x1
 2777 10d0 A401     		.2byte	0x1a4
 2778 10d2 94100000 		.4byte	0x1094
 2779 10d6 C8010000 		.4byte	.LLST17
 2780 10da 35       		.uleb128 0x35
 2781 10db 67100000 		.4byte	0x1067
 2782 10df 12000000 		.4byte	.LBB45
 2783 10e3 74000000 		.4byte	.LBE45
 2784 10e7 01       		.byte	0x1
 2785 10e8 D501     		.2byte	0x1d5
ARM GAS  /tmp/ccJH0Mxb.s 			page 50


 2786 10ea 14110000 		.4byte	0x1114
 2787 10ee 2B       		.uleb128 0x2b
 2788 10ef 7F100000 		.4byte	0x107f
 2789 10f3 E6010000 		.4byte	.LLST18
 2790 10f7 2B       		.uleb128 0x2b
 2791 10f8 74100000 		.4byte	0x1074
 2792 10fc F9010000 		.4byte	.LLST19
 2793 1100 2C       		.uleb128 0x2c
 2794 1101 12000000 		.4byte	.LBB46
 2795 1105 74000000 		.4byte	.LBE46
 2796 1109 27       		.uleb128 0x27
 2797 110a 8A100000 		.4byte	0x108a
 2798 110e 0C020000 		.4byte	.LLST20
 2799 1112 00       		.byte	0
 2800 1113 00       		.byte	0
 2801 1114 30       		.uleb128 0x30
 2802 1115 92000000 		.4byte	.LVL53
 2803 1119 38120000 		.4byte	0x1238
 2804 111d 2F       		.uleb128 0x2f
 2805 111e 01       		.byte	0x1
 2806 111f 51       		.byte	0x51
 2807 1120 02       		.byte	0x2
 2808 1121 08       		.byte	0x8
 2809 1122 C0       		.byte	0xc0
 2810 1123 2F       		.uleb128 0x2f
 2811 1124 01       		.byte	0x1
 2812 1125 50       		.byte	0x50
 2813 1126 02       		.byte	0x2
 2814 1127 08       		.byte	0x8
 2815 1128 26       		.byte	0x26
 2816 1129 00       		.byte	0
 2817 112a 00       		.byte	0
 2818 112b 36       		.uleb128 0x36
 2819 112c 01       		.byte	0x1
 2820 112d 270A0000 		.4byte	.LASF227
 2821 1131 01       		.byte	0x1
 2822 1132 E101     		.2byte	0x1e1
 2823 1134 01       		.byte	0x1
 2824 1135 00000000 		.4byte	.LFB126
 2825 1139 34000000 		.4byte	.LFE126
 2826 113d 02       		.byte	0x2
 2827 113e 7D       		.byte	0x7d
 2828 113f 00       		.sleb128 0
 2829 1140 01       		.byte	0x1
 2830 1141 85110000 		.4byte	0x1185
 2831 1145 33       		.uleb128 0x33
 2832 1146 73647000 		.ascii	"sdp\000"
 2833 114a 01       		.byte	0x1
 2834 114b E101     		.2byte	0x1e1
 2835 114d E30D0000 		.4byte	0xde3
 2836 1151 2C020000 		.4byte	.LLST21
 2837 1155 35       		.uleb128 0x35
 2838 1156 060D0000 		.4byte	0xd06
 2839 115a 0A000000 		.4byte	.LBB47
 2840 115e 12000000 		.4byte	.LBE47
 2841 1162 01       		.byte	0x1
 2842 1163 E401     		.2byte	0x1e4
ARM GAS  /tmp/ccJH0Mxb.s 			page 51


 2843 1165 73110000 		.4byte	0x1173
 2844 1169 2B       		.uleb128 0x2b
 2845 116a 130D0000 		.4byte	0xd13
 2846 116e 4D020000 		.4byte	.LLST22
 2847 1172 00       		.byte	0
 2848 1173 37       		.uleb128 0x37
 2849 1174 2E000000 		.4byte	.LVL58
 2850 1178 01       		.byte	0x1
 2851 1179 52120000 		.4byte	0x1252
 2852 117d 2F       		.uleb128 0x2f
 2853 117e 01       		.byte	0x1
 2854 117f 50       		.byte	0x50
 2855 1180 02       		.byte	0x2
 2856 1181 08       		.byte	0x8
 2857 1182 26       		.byte	0x26
 2858 1183 00       		.byte	0
 2859 1184 00       		.byte	0
 2860 1185 38       		.uleb128 0x38
 2861 1186 BD010000 		.4byte	.LASF237
 2862 118a 01       		.byte	0x1
 2863 118b 49       		.byte	0x49
 2864 118c 9A100000 		.4byte	0x109a
 2865 1190 05       		.byte	0x5
 2866 1191 03       		.byte	0x3
 2867 1192 00000000 		.4byte	default_config
 2868 1196 39       		.uleb128 0x39
 2869 1197 70090000 		.4byte	.LASF228
 2870 119b 0F       		.byte	0xf
 2871 119c 9806     		.2byte	0x698
 2872 119e 07080000 		.4byte	0x807
 2873 11a2 01       		.byte	0x1
 2874 11a3 01       		.byte	0x1
 2875 11a4 3A       		.uleb128 0x3a
 2876 11a5 53443200 		.ascii	"SD2\000"
 2877 11a9 01       		.byte	0x1
 2878 11aa 2D       		.byte	0x2d
 2879 11ab 960B0000 		.4byte	0xb96
 2880 11af 01       		.byte	0x1
 2881 11b0 05       		.byte	0x5
 2882 11b1 03       		.byte	0x3
 2883 11b2 00000000 		.4byte	SD2
 2884 11b6 3B       		.uleb128 0x3b
 2885 11b7 01       		.byte	0x1
 2886 11b8 49070000 		.4byte	.LASF229
 2887 11bc 09       		.byte	0x9
 2888 11bd BA       		.byte	0xba
 2889 11be 01       		.byte	0x1
 2890 11bf 01       		.byte	0x1
 2891 11c0 CF110000 		.4byte	0x11cf
 2892 11c4 12       		.uleb128 0x12
 2893 11c5 CF110000 		.4byte	0x11cf
 2894 11c9 12       		.uleb128 0x12
 2895 11ca F6000000 		.4byte	0xf6
 2896 11ce 00       		.byte	0
 2897 11cf 09       		.uleb128 0x9
 2898 11d0 04       		.byte	0x4
 2899 11d1 1C040000 		.4byte	0x41c
ARM GAS  /tmp/ccJH0Mxb.s 			page 52


 2900 11d5 3C       		.uleb128 0x3c
 2901 11d6 01       		.byte	0x1
 2902 11d7 BC060000 		.4byte	.LASF238
 2903 11db 0A       		.byte	0xa
 2904 11dc 6E01     		.2byte	0x16e
 2905 11de 01       		.byte	0x1
 2906 11df E0000000 		.4byte	0xe0
 2907 11e3 01       		.byte	0x1
 2908 11e4 EE110000 		.4byte	0x11ee
 2909 11e8 12       		.uleb128 0x12
 2910 11e9 EE110000 		.4byte	0x11ee
 2911 11ed 00       		.byte	0
 2912 11ee 09       		.uleb128 0x9
 2913 11ef 04       		.byte	0x4
 2914 11f0 46050000 		.4byte	0x546
 2915 11f4 3D       		.uleb128 0x3d
 2916 11f5 01       		.byte	0x1
 2917 11f6 57050000 		.4byte	.LASF230
 2918 11fa 0C       		.byte	0xc
 2919 11fb 3901     		.2byte	0x139
 2920 11fd 01       		.byte	0x1
 2921 11fe 01       		.byte	0x1
 2922 11ff 0E120000 		.4byte	0x120e
 2923 1203 12       		.uleb128 0x12
 2924 1204 E30D0000 		.4byte	0xde3
 2925 1208 12       		.uleb128 0x12
 2926 1209 45000000 		.4byte	0x45
 2927 120d 00       		.byte	0
 2928 120e 3E       		.uleb128 0x3e
 2929 120f 01       		.byte	0x1
 2930 1210 C5060000 		.4byte	.LASF239
 2931 1214 07       		.byte	0x7
 2932 1215 0302     		.2byte	0x203
 2933 1217 01       		.byte	0x1
 2934 1218 01       		.byte	0x1
 2935 1219 3D       		.uleb128 0x3d
 2936 121a 01       		.byte	0x1
 2937 121b 89010000 		.4byte	.LASF231
 2938 121f 0C       		.byte	0xc
 2939 1220 3601     		.2byte	0x136
 2940 1222 01       		.byte	0x1
 2941 1223 01       		.byte	0x1
 2942 1224 38120000 		.4byte	0x1238
 2943 1228 12       		.uleb128 0x12
 2944 1229 E30D0000 		.4byte	0xde3
 2945 122d 12       		.uleb128 0x12
 2946 122e 12050000 		.4byte	0x512
 2947 1232 12       		.uleb128 0x12
 2948 1233 12050000 		.4byte	0x512
 2949 1237 00       		.byte	0
 2950 1238 3D       		.uleb128 0x3d
 2951 1239 01       		.byte	0x1
 2952 123a B5090000 		.4byte	.LASF232
 2953 123e 0E       		.byte	0xe
 2954 123f 2301     		.2byte	0x123
 2955 1241 01       		.byte	0x1
 2956 1242 01       		.byte	0x1
ARM GAS  /tmp/ccJH0Mxb.s 			page 53


 2957 1243 52120000 		.4byte	0x1252
 2958 1247 12       		.uleb128 0x12
 2959 1248 82000000 		.4byte	0x82
 2960 124c 12       		.uleb128 0x12
 2961 124d 82000000 		.4byte	0x82
 2962 1251 00       		.byte	0
 2963 1252 3F       		.uleb128 0x3f
 2964 1253 01       		.byte	0x1
 2965 1254 67070000 		.4byte	.LASF240
 2966 1258 0E       		.byte	0xe
 2967 1259 2401     		.2byte	0x124
 2968 125b 01       		.byte	0x1
 2969 125c 01       		.byte	0x1
 2970 125d 12       		.uleb128 0x12
 2971 125e 82000000 		.4byte	0x82
 2972 1262 00       		.byte	0
 2973 1263 00       		.byte	0
 2974              		.section	.debug_abbrev,"",%progbits
 2975              	.Ldebug_abbrev0:
 2976 0000 01       		.uleb128 0x1
 2977 0001 11       		.uleb128 0x11
 2978 0002 01       		.byte	0x1
 2979 0003 25       		.uleb128 0x25
 2980 0004 0E       		.uleb128 0xe
 2981 0005 13       		.uleb128 0x13
 2982 0006 0B       		.uleb128 0xb
 2983 0007 03       		.uleb128 0x3
 2984 0008 0E       		.uleb128 0xe
 2985 0009 55       		.uleb128 0x55
 2986 000a 06       		.uleb128 0x6
 2987 000b 11       		.uleb128 0x11
 2988 000c 01       		.uleb128 0x1
 2989 000d 52       		.uleb128 0x52
 2990 000e 01       		.uleb128 0x1
 2991 000f 10       		.uleb128 0x10
 2992 0010 06       		.uleb128 0x6
 2993 0011 00       		.byte	0
 2994 0012 00       		.byte	0
 2995 0013 02       		.uleb128 0x2
 2996 0014 24       		.uleb128 0x24
 2997 0015 00       		.byte	0
 2998 0016 0B       		.uleb128 0xb
 2999 0017 0B       		.uleb128 0xb
 3000 0018 3E       		.uleb128 0x3e
 3001 0019 0B       		.uleb128 0xb
 3002 001a 03       		.uleb128 0x3
 3003 001b 08       		.uleb128 0x8
 3004 001c 00       		.byte	0
 3005 001d 00       		.byte	0
 3006 001e 03       		.uleb128 0x3
 3007 001f 16       		.uleb128 0x16
 3008 0020 00       		.byte	0
 3009 0021 03       		.uleb128 0x3
 3010 0022 0E       		.uleb128 0xe
 3011 0023 3A       		.uleb128 0x3a
 3012 0024 0B       		.uleb128 0xb
 3013 0025 3B       		.uleb128 0x3b
ARM GAS  /tmp/ccJH0Mxb.s 			page 54


 3014 0026 0B       		.uleb128 0xb
 3015 0027 49       		.uleb128 0x49
 3016 0028 13       		.uleb128 0x13
 3017 0029 00       		.byte	0
 3018 002a 00       		.byte	0
 3019 002b 04       		.uleb128 0x4
 3020 002c 24       		.uleb128 0x24
 3021 002d 00       		.byte	0
 3022 002e 0B       		.uleb128 0xb
 3023 002f 0B       		.uleb128 0xb
 3024 0030 3E       		.uleb128 0x3e
 3025 0031 0B       		.uleb128 0xb
 3026 0032 03       		.uleb128 0x3
 3027 0033 0E       		.uleb128 0xe
 3028 0034 00       		.byte	0
 3029 0035 00       		.byte	0
 3030 0036 05       		.uleb128 0x5
 3031 0037 13       		.uleb128 0x13
 3032 0038 01       		.byte	0x1
 3033 0039 03       		.uleb128 0x3
 3034 003a 0E       		.uleb128 0xe
 3035 003b 0B       		.uleb128 0xb
 3036 003c 0B       		.uleb128 0xb
 3037 003d 3A       		.uleb128 0x3a
 3038 003e 0B       		.uleb128 0xb
 3039 003f 3B       		.uleb128 0x3b
 3040 0040 0B       		.uleb128 0xb
 3041 0041 01       		.uleb128 0x1
 3042 0042 13       		.uleb128 0x13
 3043 0043 00       		.byte	0
 3044 0044 00       		.byte	0
 3045 0045 06       		.uleb128 0x6
 3046 0046 0D       		.uleb128 0xd
 3047 0047 00       		.byte	0
 3048 0048 03       		.uleb128 0x3
 3049 0049 0E       		.uleb128 0xe
 3050 004a 3A       		.uleb128 0x3a
 3051 004b 0B       		.uleb128 0xb
 3052 004c 3B       		.uleb128 0x3b
 3053 004d 0B       		.uleb128 0xb
 3054 004e 49       		.uleb128 0x49
 3055 004f 13       		.uleb128 0x13
 3056 0050 38       		.uleb128 0x38
 3057 0051 0A       		.uleb128 0xa
 3058 0052 00       		.byte	0
 3059 0053 00       		.byte	0
 3060 0054 07       		.uleb128 0x7
 3061 0055 0D       		.uleb128 0xd
 3062 0056 00       		.byte	0
 3063 0057 03       		.uleb128 0x3
 3064 0058 08       		.uleb128 0x8
 3065 0059 3A       		.uleb128 0x3a
 3066 005a 0B       		.uleb128 0xb
 3067 005b 3B       		.uleb128 0x3b
 3068 005c 0B       		.uleb128 0xb
 3069 005d 49       		.uleb128 0x49
 3070 005e 13       		.uleb128 0x13
ARM GAS  /tmp/ccJH0Mxb.s 			page 55


 3071 005f 38       		.uleb128 0x38
 3072 0060 0A       		.uleb128 0xa
 3073 0061 00       		.byte	0
 3074 0062 00       		.byte	0
 3075 0063 08       		.uleb128 0x8
 3076 0064 13       		.uleb128 0x13
 3077 0065 01       		.byte	0x1
 3078 0066 0B       		.uleb128 0xb
 3079 0067 0B       		.uleb128 0xb
 3080 0068 3A       		.uleb128 0x3a
 3081 0069 0B       		.uleb128 0xb
 3082 006a 3B       		.uleb128 0x3b
 3083 006b 0B       		.uleb128 0xb
 3084 006c 01       		.uleb128 0x1
 3085 006d 13       		.uleb128 0x13
 3086 006e 00       		.byte	0
 3087 006f 00       		.byte	0
 3088 0070 09       		.uleb128 0x9
 3089 0071 0F       		.uleb128 0xf
 3090 0072 00       		.byte	0
 3091 0073 0B       		.uleb128 0xb
 3092 0074 0B       		.uleb128 0xb
 3093 0075 49       		.uleb128 0x49
 3094 0076 13       		.uleb128 0x13
 3095 0077 00       		.byte	0
 3096 0078 00       		.byte	0
 3097 0079 0A       		.uleb128 0xa
 3098 007a 0F       		.uleb128 0xf
 3099 007b 00       		.byte	0
 3100 007c 0B       		.uleb128 0xb
 3101 007d 0B       		.uleb128 0xb
 3102 007e 00       		.byte	0
 3103 007f 00       		.byte	0
 3104 0080 0B       		.uleb128 0xb
 3105 0081 13       		.uleb128 0x13
 3106 0082 01       		.byte	0x1
 3107 0083 03       		.uleb128 0x3
 3108 0084 0E       		.uleb128 0xe
 3109 0085 0B       		.uleb128 0xb
 3110 0086 0B       		.uleb128 0xb
 3111 0087 3A       		.uleb128 0x3a
 3112 0088 0B       		.uleb128 0xb
 3113 0089 3B       		.uleb128 0x3b
 3114 008a 05       		.uleb128 0x5
 3115 008b 01       		.uleb128 0x1
 3116 008c 13       		.uleb128 0x13
 3117 008d 00       		.byte	0
 3118 008e 00       		.byte	0
 3119 008f 0C       		.uleb128 0xc
 3120 0090 0D       		.uleb128 0xd
 3121 0091 00       		.byte	0
 3122 0092 03       		.uleb128 0x3
 3123 0093 08       		.uleb128 0x8
 3124 0094 3A       		.uleb128 0x3a
 3125 0095 0B       		.uleb128 0xb
 3126 0096 3B       		.uleb128 0x3b
 3127 0097 05       		.uleb128 0x5
ARM GAS  /tmp/ccJH0Mxb.s 			page 56


 3128 0098 49       		.uleb128 0x49
 3129 0099 13       		.uleb128 0x13
 3130 009a 38       		.uleb128 0x38
 3131 009b 0A       		.uleb128 0xa
 3132 009c 00       		.byte	0
 3133 009d 00       		.byte	0
 3134 009e 0D       		.uleb128 0xd
 3135 009f 35       		.uleb128 0x35
 3136 00a0 00       		.byte	0
 3137 00a1 49       		.uleb128 0x49
 3138 00a2 13       		.uleb128 0x13
 3139 00a3 00       		.byte	0
 3140 00a4 00       		.byte	0
 3141 00a5 0E       		.uleb128 0xe
 3142 00a6 17       		.uleb128 0x17
 3143 00a7 01       		.byte	0x1
 3144 00a8 0B       		.uleb128 0xb
 3145 00a9 0B       		.uleb128 0xb
 3146 00aa 3A       		.uleb128 0x3a
 3147 00ab 0B       		.uleb128 0xb
 3148 00ac 3B       		.uleb128 0x3b
 3149 00ad 0B       		.uleb128 0xb
 3150 00ae 01       		.uleb128 0x1
 3151 00af 13       		.uleb128 0x13
 3152 00b0 00       		.byte	0
 3153 00b1 00       		.byte	0
 3154 00b2 0F       		.uleb128 0xf
 3155 00b3 0D       		.uleb128 0xd
 3156 00b4 00       		.byte	0
 3157 00b5 03       		.uleb128 0x3
 3158 00b6 0E       		.uleb128 0xe
 3159 00b7 3A       		.uleb128 0x3a
 3160 00b8 0B       		.uleb128 0xb
 3161 00b9 3B       		.uleb128 0x3b
 3162 00ba 0B       		.uleb128 0xb
 3163 00bb 49       		.uleb128 0x49
 3164 00bc 13       		.uleb128 0x13
 3165 00bd 00       		.byte	0
 3166 00be 00       		.byte	0
 3167 00bf 10       		.uleb128 0x10
 3168 00c0 26       		.uleb128 0x26
 3169 00c1 00       		.byte	0
 3170 00c2 49       		.uleb128 0x49
 3171 00c3 13       		.uleb128 0x13
 3172 00c4 00       		.byte	0
 3173 00c5 00       		.byte	0
 3174 00c6 11       		.uleb128 0x11
 3175 00c7 15       		.uleb128 0x15
 3176 00c8 01       		.byte	0x1
 3177 00c9 27       		.uleb128 0x27
 3178 00ca 0C       		.uleb128 0xc
 3179 00cb 49       		.uleb128 0x49
 3180 00cc 13       		.uleb128 0x13
 3181 00cd 01       		.uleb128 0x1
 3182 00ce 13       		.uleb128 0x13
 3183 00cf 00       		.byte	0
 3184 00d0 00       		.byte	0
ARM GAS  /tmp/ccJH0Mxb.s 			page 57


 3185 00d1 12       		.uleb128 0x12
 3186 00d2 05       		.uleb128 0x5
 3187 00d3 00       		.byte	0
 3188 00d4 49       		.uleb128 0x49
 3189 00d5 13       		.uleb128 0x13
 3190 00d6 00       		.byte	0
 3191 00d7 00       		.byte	0
 3192 00d8 13       		.uleb128 0x13
 3193 00d9 15       		.uleb128 0x15
 3194 00da 01       		.byte	0x1
 3195 00db 27       		.uleb128 0x27
 3196 00dc 0C       		.uleb128 0xc
 3197 00dd 01       		.uleb128 0x1
 3198 00de 13       		.uleb128 0x13
 3199 00df 00       		.byte	0
 3200 00e0 00       		.byte	0
 3201 00e1 14       		.uleb128 0x14
 3202 00e2 04       		.uleb128 0x4
 3203 00e3 01       		.byte	0x1
 3204 00e4 03       		.uleb128 0x3
 3205 00e5 0E       		.uleb128 0xe
 3206 00e6 0B       		.uleb128 0xb
 3207 00e7 0B       		.uleb128 0xb
 3208 00e8 3A       		.uleb128 0x3a
 3209 00e9 0B       		.uleb128 0xb
 3210 00ea 3B       		.uleb128 0x3b
 3211 00eb 0B       		.uleb128 0xb
 3212 00ec 01       		.uleb128 0x1
 3213 00ed 13       		.uleb128 0x13
 3214 00ee 00       		.byte	0
 3215 00ef 00       		.byte	0
 3216 00f0 15       		.uleb128 0x15
 3217 00f1 28       		.uleb128 0x28
 3218 00f2 00       		.byte	0
 3219 00f3 03       		.uleb128 0x3
 3220 00f4 0E       		.uleb128 0xe
 3221 00f5 1C       		.uleb128 0x1c
 3222 00f6 0D       		.uleb128 0xd
 3223 00f7 00       		.byte	0
 3224 00f8 00       		.byte	0
 3225 00f9 16       		.uleb128 0x16
 3226 00fa 01       		.uleb128 0x1
 3227 00fb 01       		.byte	0x1
 3228 00fc 49       		.uleb128 0x49
 3229 00fd 13       		.uleb128 0x13
 3230 00fe 01       		.uleb128 0x1
 3231 00ff 13       		.uleb128 0x13
 3232 0100 00       		.byte	0
 3233 0101 00       		.byte	0
 3234 0102 17       		.uleb128 0x17
 3235 0103 21       		.uleb128 0x21
 3236 0104 00       		.byte	0
 3237 0105 49       		.uleb128 0x49
 3238 0106 13       		.uleb128 0x13
 3239 0107 2F       		.uleb128 0x2f
 3240 0108 0B       		.uleb128 0xb
 3241 0109 00       		.byte	0
ARM GAS  /tmp/ccJH0Mxb.s 			page 58


 3242 010a 00       		.byte	0
 3243 010b 18       		.uleb128 0x18
 3244 010c 13       		.uleb128 0x13
 3245 010d 01       		.byte	0x1
 3246 010e 0B       		.uleb128 0xb
 3247 010f 0B       		.uleb128 0xb
 3248 0110 3A       		.uleb128 0x3a
 3249 0111 0B       		.uleb128 0xb
 3250 0112 3B       		.uleb128 0x3b
 3251 0113 05       		.uleb128 0x5
 3252 0114 01       		.uleb128 0x1
 3253 0115 13       		.uleb128 0x13
 3254 0116 00       		.byte	0
 3255 0117 00       		.byte	0
 3256 0118 19       		.uleb128 0x19
 3257 0119 0D       		.uleb128 0xd
 3258 011a 00       		.byte	0
 3259 011b 03       		.uleb128 0x3
 3260 011c 0E       		.uleb128 0xe
 3261 011d 3A       		.uleb128 0x3a
 3262 011e 0B       		.uleb128 0xb
 3263 011f 3B       		.uleb128 0x3b
 3264 0120 05       		.uleb128 0x5
 3265 0121 49       		.uleb128 0x49
 3266 0122 13       		.uleb128 0x13
 3267 0123 38       		.uleb128 0x38
 3268 0124 0A       		.uleb128 0xa
 3269 0125 00       		.byte	0
 3270 0126 00       		.byte	0
 3271 0127 1A       		.uleb128 0x1a
 3272 0128 16       		.uleb128 0x16
 3273 0129 00       		.byte	0
 3274 012a 03       		.uleb128 0x3
 3275 012b 0E       		.uleb128 0xe
 3276 012c 3A       		.uleb128 0x3a
 3277 012d 0B       		.uleb128 0xb
 3278 012e 3B       		.uleb128 0x3b
 3279 012f 05       		.uleb128 0x5
 3280 0130 49       		.uleb128 0x49
 3281 0131 13       		.uleb128 0x13
 3282 0132 00       		.byte	0
 3283 0133 00       		.byte	0
 3284 0134 1B       		.uleb128 0x1b
 3285 0135 04       		.uleb128 0x4
 3286 0136 01       		.byte	0x1
 3287 0137 0B       		.uleb128 0xb
 3288 0138 0B       		.uleb128 0xb
 3289 0139 3A       		.uleb128 0x3a
 3290 013a 0B       		.uleb128 0xb
 3291 013b 3B       		.uleb128 0x3b
 3292 013c 0B       		.uleb128 0xb
 3293 013d 01       		.uleb128 0x1
 3294 013e 13       		.uleb128 0x13
 3295 013f 00       		.byte	0
 3296 0140 00       		.byte	0
 3297 0141 1C       		.uleb128 0x1c
 3298 0142 2E       		.uleb128 0x2e
ARM GAS  /tmp/ccJH0Mxb.s 			page 59


 3299 0143 01       		.byte	0x1
 3300 0144 03       		.uleb128 0x3
 3301 0145 0E       		.uleb128 0xe
 3302 0146 3A       		.uleb128 0x3a
 3303 0147 0B       		.uleb128 0xb
 3304 0148 3B       		.uleb128 0x3b
 3305 0149 0B       		.uleb128 0xb
 3306 014a 27       		.uleb128 0x27
 3307 014b 0C       		.uleb128 0xc
 3308 014c 20       		.uleb128 0x20
 3309 014d 0B       		.uleb128 0xb
 3310 014e 01       		.uleb128 0x1
 3311 014f 13       		.uleb128 0x13
 3312 0150 00       		.byte	0
 3313 0151 00       		.byte	0
 3314 0152 1D       		.uleb128 0x1d
 3315 0153 05       		.uleb128 0x5
 3316 0154 00       		.byte	0
 3317 0155 03       		.uleb128 0x3
 3318 0156 08       		.uleb128 0x8
 3319 0157 3A       		.uleb128 0x3a
 3320 0158 0B       		.uleb128 0xb
 3321 0159 3B       		.uleb128 0x3b
 3322 015a 0B       		.uleb128 0xb
 3323 015b 49       		.uleb128 0x49
 3324 015c 13       		.uleb128 0x13
 3325 015d 00       		.byte	0
 3326 015e 00       		.byte	0
 3327 015f 1E       		.uleb128 0x1e
 3328 0160 34       		.uleb128 0x34
 3329 0161 00       		.byte	0
 3330 0162 03       		.uleb128 0x3
 3331 0163 08       		.uleb128 0x8
 3332 0164 3A       		.uleb128 0x3a
 3333 0165 0B       		.uleb128 0xb
 3334 0166 3B       		.uleb128 0x3b
 3335 0167 0B       		.uleb128 0xb
 3336 0168 49       		.uleb128 0x49
 3337 0169 13       		.uleb128 0x13
 3338 016a 00       		.byte	0
 3339 016b 00       		.byte	0
 3340 016c 1F       		.uleb128 0x1f
 3341 016d 0B       		.uleb128 0xb
 3342 016e 01       		.byte	0x1
 3343 016f 01       		.uleb128 0x1
 3344 0170 13       		.uleb128 0x13
 3345 0171 00       		.byte	0
 3346 0172 00       		.byte	0
 3347 0173 20       		.uleb128 0x20
 3348 0174 0B       		.uleb128 0xb
 3349 0175 01       		.byte	0x1
 3350 0176 00       		.byte	0
 3351 0177 00       		.byte	0
 3352 0178 21       		.uleb128 0x21
 3353 0179 2E       		.uleb128 0x2e
 3354 017a 01       		.byte	0x1
 3355 017b 03       		.uleb128 0x3
ARM GAS  /tmp/ccJH0Mxb.s 			page 60


 3356 017c 0E       		.uleb128 0xe
 3357 017d 3A       		.uleb128 0x3a
 3358 017e 0B       		.uleb128 0xb
 3359 017f 3B       		.uleb128 0x3b
 3360 0180 0B       		.uleb128 0xb
 3361 0181 27       		.uleb128 0x27
 3362 0182 0C       		.uleb128 0xc
 3363 0183 11       		.uleb128 0x11
 3364 0184 01       		.uleb128 0x1
 3365 0185 12       		.uleb128 0x12
 3366 0186 01       		.uleb128 0x1
 3367 0187 40       		.uleb128 0x40
 3368 0188 0A       		.uleb128 0xa
 3369 0189 9742     		.uleb128 0x2117
 3370 018b 0C       		.uleb128 0xc
 3371 018c 01       		.uleb128 0x1
 3372 018d 13       		.uleb128 0x13
 3373 018e 00       		.byte	0
 3374 018f 00       		.byte	0
 3375 0190 22       		.uleb128 0x22
 3376 0191 05       		.uleb128 0x5
 3377 0192 00       		.byte	0
 3378 0193 03       		.uleb128 0x3
 3379 0194 08       		.uleb128 0x8
 3380 0195 3A       		.uleb128 0x3a
 3381 0196 0B       		.uleb128 0xb
 3382 0197 3B       		.uleb128 0x3b
 3383 0198 0B       		.uleb128 0xb
 3384 0199 49       		.uleb128 0x49
 3385 019a 13       		.uleb128 0x13
 3386 019b 02       		.uleb128 0x2
 3387 019c 0A       		.uleb128 0xa
 3388 019d 00       		.byte	0
 3389 019e 00       		.byte	0
 3390 019f 23       		.uleb128 0x23
 3391 01a0 2E       		.uleb128 0x2e
 3392 01a1 01       		.byte	0x1
 3393 01a2 3F       		.uleb128 0x3f
 3394 01a3 0C       		.uleb128 0xc
 3395 01a4 03       		.uleb128 0x3
 3396 01a5 0E       		.uleb128 0xe
 3397 01a6 3A       		.uleb128 0x3a
 3398 01a7 0B       		.uleb128 0xb
 3399 01a8 3B       		.uleb128 0x3b
 3400 01a9 05       		.uleb128 0x5
 3401 01aa 27       		.uleb128 0x27
 3402 01ab 0C       		.uleb128 0xc
 3403 01ac 11       		.uleb128 0x11
 3404 01ad 01       		.uleb128 0x1
 3405 01ae 12       		.uleb128 0x12
 3406 01af 01       		.uleb128 0x1
 3407 01b0 40       		.uleb128 0x40
 3408 01b1 06       		.uleb128 0x6
 3409 01b2 9742     		.uleb128 0x2117
 3410 01b4 0C       		.uleb128 0xc
 3411 01b5 01       		.uleb128 0x1
 3412 01b6 13       		.uleb128 0x13
ARM GAS  /tmp/ccJH0Mxb.s 			page 61


 3413 01b7 00       		.byte	0
 3414 01b8 00       		.byte	0
 3415 01b9 24       		.uleb128 0x24
 3416 01ba 1D       		.uleb128 0x1d
 3417 01bb 01       		.byte	0x1
 3418 01bc 31       		.uleb128 0x31
 3419 01bd 13       		.uleb128 0x13
 3420 01be 52       		.uleb128 0x52
 3421 01bf 01       		.uleb128 0x1
 3422 01c0 55       		.uleb128 0x55
 3423 01c1 06       		.uleb128 0x6
 3424 01c2 58       		.uleb128 0x58
 3425 01c3 0B       		.uleb128 0xb
 3426 01c4 59       		.uleb128 0x59
 3427 01c5 05       		.uleb128 0x5
 3428 01c6 01       		.uleb128 0x1
 3429 01c7 13       		.uleb128 0x13
 3430 01c8 00       		.byte	0
 3431 01c9 00       		.byte	0
 3432 01ca 25       		.uleb128 0x25
 3433 01cb 0B       		.uleb128 0xb
 3434 01cc 01       		.byte	0x1
 3435 01cd 55       		.uleb128 0x55
 3436 01ce 06       		.uleb128 0x6
 3437 01cf 00       		.byte	0
 3438 01d0 00       		.byte	0
 3439 01d1 26       		.uleb128 0x26
 3440 01d2 34       		.uleb128 0x34
 3441 01d3 00       		.byte	0
 3442 01d4 31       		.uleb128 0x31
 3443 01d5 13       		.uleb128 0x13
 3444 01d6 02       		.uleb128 0x2
 3445 01d7 0A       		.uleb128 0xa
 3446 01d8 00       		.byte	0
 3447 01d9 00       		.byte	0
 3448 01da 27       		.uleb128 0x27
 3449 01db 34       		.uleb128 0x34
 3450 01dc 00       		.byte	0
 3451 01dd 31       		.uleb128 0x31
 3452 01de 13       		.uleb128 0x13
 3453 01df 02       		.uleb128 0x2
 3454 01e0 06       		.uleb128 0x6
 3455 01e1 00       		.byte	0
 3456 01e2 00       		.byte	0
 3457 01e3 28       		.uleb128 0x28
 3458 01e4 05       		.uleb128 0x5
 3459 01e5 00       		.byte	0
 3460 01e6 31       		.uleb128 0x31
 3461 01e7 13       		.uleb128 0x13
 3462 01e8 02       		.uleb128 0x2
 3463 01e9 0A       		.uleb128 0xa
 3464 01ea 00       		.byte	0
 3465 01eb 00       		.byte	0
 3466 01ec 29       		.uleb128 0x29
 3467 01ed 0B       		.uleb128 0xb
 3468 01ee 01       		.byte	0x1
 3469 01ef 11       		.uleb128 0x11
ARM GAS  /tmp/ccJH0Mxb.s 			page 62


 3470 01f0 01       		.uleb128 0x1
 3471 01f1 12       		.uleb128 0x12
 3472 01f2 01       		.uleb128 0x1
 3473 01f3 01       		.uleb128 0x1
 3474 01f4 13       		.uleb128 0x13
 3475 01f5 00       		.byte	0
 3476 01f6 00       		.byte	0
 3477 01f7 2A       		.uleb128 0x2a
 3478 01f8 1D       		.uleb128 0x1d
 3479 01f9 01       		.byte	0x1
 3480 01fa 31       		.uleb128 0x31
 3481 01fb 13       		.uleb128 0x13
 3482 01fc 11       		.uleb128 0x11
 3483 01fd 01       		.uleb128 0x1
 3484 01fe 12       		.uleb128 0x12
 3485 01ff 01       		.uleb128 0x1
 3486 0200 58       		.uleb128 0x58
 3487 0201 0B       		.uleb128 0xb
 3488 0202 59       		.uleb128 0x59
 3489 0203 0B       		.uleb128 0xb
 3490 0204 01       		.uleb128 0x1
 3491 0205 13       		.uleb128 0x13
 3492 0206 00       		.byte	0
 3493 0207 00       		.byte	0
 3494 0208 2B       		.uleb128 0x2b
 3495 0209 05       		.uleb128 0x5
 3496 020a 00       		.byte	0
 3497 020b 31       		.uleb128 0x31
 3498 020c 13       		.uleb128 0x13
 3499 020d 02       		.uleb128 0x2
 3500 020e 06       		.uleb128 0x6
 3501 020f 00       		.byte	0
 3502 0210 00       		.byte	0
 3503 0211 2C       		.uleb128 0x2c
 3504 0212 0B       		.uleb128 0xb
 3505 0213 01       		.byte	0x1
 3506 0214 11       		.uleb128 0x11
 3507 0215 01       		.uleb128 0x1
 3508 0216 12       		.uleb128 0x12
 3509 0217 01       		.uleb128 0x1
 3510 0218 00       		.byte	0
 3511 0219 00       		.byte	0
 3512 021a 2D       		.uleb128 0x2d
 3513 021b 898201   		.uleb128 0x4109
 3514 021e 00       		.byte	0
 3515 021f 11       		.uleb128 0x11
 3516 0220 01       		.uleb128 0x1
 3517 0221 31       		.uleb128 0x31
 3518 0222 13       		.uleb128 0x13
 3519 0223 00       		.byte	0
 3520 0224 00       		.byte	0
 3521 0225 2E       		.uleb128 0x2e
 3522 0226 898201   		.uleb128 0x4109
 3523 0229 01       		.byte	0x1
 3524 022a 11       		.uleb128 0x11
 3525 022b 01       		.uleb128 0x1
 3526 022c 31       		.uleb128 0x31
ARM GAS  /tmp/ccJH0Mxb.s 			page 63


 3527 022d 13       		.uleb128 0x13
 3528 022e 01       		.uleb128 0x1
 3529 022f 13       		.uleb128 0x13
 3530 0230 00       		.byte	0
 3531 0231 00       		.byte	0
 3532 0232 2F       		.uleb128 0x2f
 3533 0233 8A8201   		.uleb128 0x410a
 3534 0236 00       		.byte	0
 3535 0237 02       		.uleb128 0x2
 3536 0238 0A       		.uleb128 0xa
 3537 0239 9142     		.uleb128 0x2111
 3538 023b 0A       		.uleb128 0xa
 3539 023c 00       		.byte	0
 3540 023d 00       		.byte	0
 3541 023e 30       		.uleb128 0x30
 3542 023f 898201   		.uleb128 0x4109
 3543 0242 01       		.byte	0x1
 3544 0243 11       		.uleb128 0x11
 3545 0244 01       		.uleb128 0x1
 3546 0245 31       		.uleb128 0x31
 3547 0246 13       		.uleb128 0x13
 3548 0247 00       		.byte	0
 3549 0248 00       		.byte	0
 3550 0249 31       		.uleb128 0x31
 3551 024a 898201   		.uleb128 0x4109
 3552 024d 00       		.byte	0
 3553 024e 11       		.uleb128 0x11
 3554 024f 01       		.uleb128 0x1
 3555 0250 9542     		.uleb128 0x2115
 3556 0252 0C       		.uleb128 0xc
 3557 0253 31       		.uleb128 0x31
 3558 0254 13       		.uleb128 0x13
 3559 0255 00       		.byte	0
 3560 0256 00       		.byte	0
 3561 0257 32       		.uleb128 0x32
 3562 0258 05       		.uleb128 0x5
 3563 0259 00       		.byte	0
 3564 025a 03       		.uleb128 0x3
 3565 025b 0E       		.uleb128 0xe
 3566 025c 3A       		.uleb128 0x3a
 3567 025d 0B       		.uleb128 0xb
 3568 025e 3B       		.uleb128 0x3b
 3569 025f 0B       		.uleb128 0xb
 3570 0260 49       		.uleb128 0x49
 3571 0261 13       		.uleb128 0x13
 3572 0262 00       		.byte	0
 3573 0263 00       		.byte	0
 3574 0264 33       		.uleb128 0x33
 3575 0265 05       		.uleb128 0x5
 3576 0266 00       		.byte	0
 3577 0267 03       		.uleb128 0x3
 3578 0268 08       		.uleb128 0x8
 3579 0269 3A       		.uleb128 0x3a
 3580 026a 0B       		.uleb128 0xb
 3581 026b 3B       		.uleb128 0x3b
 3582 026c 05       		.uleb128 0x5
 3583 026d 49       		.uleb128 0x49
ARM GAS  /tmp/ccJH0Mxb.s 			page 64


 3584 026e 13       		.uleb128 0x13
 3585 026f 02       		.uleb128 0x2
 3586 0270 06       		.uleb128 0x6
 3587 0271 00       		.byte	0
 3588 0272 00       		.byte	0
 3589 0273 34       		.uleb128 0x34
 3590 0274 05       		.uleb128 0x5
 3591 0275 00       		.byte	0
 3592 0276 03       		.uleb128 0x3
 3593 0277 0E       		.uleb128 0xe
 3594 0278 3A       		.uleb128 0x3a
 3595 0279 0B       		.uleb128 0xb
 3596 027a 3B       		.uleb128 0x3b
 3597 027b 05       		.uleb128 0x5
 3598 027c 49       		.uleb128 0x49
 3599 027d 13       		.uleb128 0x13
 3600 027e 02       		.uleb128 0x2
 3601 027f 06       		.uleb128 0x6
 3602 0280 00       		.byte	0
 3603 0281 00       		.byte	0
 3604 0282 35       		.uleb128 0x35
 3605 0283 1D       		.uleb128 0x1d
 3606 0284 01       		.byte	0x1
 3607 0285 31       		.uleb128 0x31
 3608 0286 13       		.uleb128 0x13
 3609 0287 11       		.uleb128 0x11
 3610 0288 01       		.uleb128 0x1
 3611 0289 12       		.uleb128 0x12
 3612 028a 01       		.uleb128 0x1
 3613 028b 58       		.uleb128 0x58
 3614 028c 0B       		.uleb128 0xb
 3615 028d 59       		.uleb128 0x59
 3616 028e 05       		.uleb128 0x5
 3617 028f 01       		.uleb128 0x1
 3618 0290 13       		.uleb128 0x13
 3619 0291 00       		.byte	0
 3620 0292 00       		.byte	0
 3621 0293 36       		.uleb128 0x36
 3622 0294 2E       		.uleb128 0x2e
 3623 0295 01       		.byte	0x1
 3624 0296 3F       		.uleb128 0x3f
 3625 0297 0C       		.uleb128 0xc
 3626 0298 03       		.uleb128 0x3
 3627 0299 0E       		.uleb128 0xe
 3628 029a 3A       		.uleb128 0x3a
 3629 029b 0B       		.uleb128 0xb
 3630 029c 3B       		.uleb128 0x3b
 3631 029d 05       		.uleb128 0x5
 3632 029e 27       		.uleb128 0x27
 3633 029f 0C       		.uleb128 0xc
 3634 02a0 11       		.uleb128 0x11
 3635 02a1 01       		.uleb128 0x1
 3636 02a2 12       		.uleb128 0x12
 3637 02a3 01       		.uleb128 0x1
 3638 02a4 40       		.uleb128 0x40
 3639 02a5 0A       		.uleb128 0xa
 3640 02a6 9742     		.uleb128 0x2117
ARM GAS  /tmp/ccJH0Mxb.s 			page 65


 3641 02a8 0C       		.uleb128 0xc
 3642 02a9 01       		.uleb128 0x1
 3643 02aa 13       		.uleb128 0x13
 3644 02ab 00       		.byte	0
 3645 02ac 00       		.byte	0
 3646 02ad 37       		.uleb128 0x37
 3647 02ae 898201   		.uleb128 0x4109
 3648 02b1 01       		.byte	0x1
 3649 02b2 11       		.uleb128 0x11
 3650 02b3 01       		.uleb128 0x1
 3651 02b4 9542     		.uleb128 0x2115
 3652 02b6 0C       		.uleb128 0xc
 3653 02b7 31       		.uleb128 0x31
 3654 02b8 13       		.uleb128 0x13
 3655 02b9 00       		.byte	0
 3656 02ba 00       		.byte	0
 3657 02bb 38       		.uleb128 0x38
 3658 02bc 34       		.uleb128 0x34
 3659 02bd 00       		.byte	0
 3660 02be 03       		.uleb128 0x3
 3661 02bf 0E       		.uleb128 0xe
 3662 02c0 3A       		.uleb128 0x3a
 3663 02c1 0B       		.uleb128 0xb
 3664 02c2 3B       		.uleb128 0x3b
 3665 02c3 0B       		.uleb128 0xb
 3666 02c4 49       		.uleb128 0x49
 3667 02c5 13       		.uleb128 0x13
 3668 02c6 02       		.uleb128 0x2
 3669 02c7 0A       		.uleb128 0xa
 3670 02c8 00       		.byte	0
 3671 02c9 00       		.byte	0
 3672 02ca 39       		.uleb128 0x39
 3673 02cb 34       		.uleb128 0x34
 3674 02cc 00       		.byte	0
 3675 02cd 03       		.uleb128 0x3
 3676 02ce 0E       		.uleb128 0xe
 3677 02cf 3A       		.uleb128 0x3a
 3678 02d0 0B       		.uleb128 0xb
 3679 02d1 3B       		.uleb128 0x3b
 3680 02d2 05       		.uleb128 0x5
 3681 02d3 49       		.uleb128 0x49
 3682 02d4 13       		.uleb128 0x13
 3683 02d5 3F       		.uleb128 0x3f
 3684 02d6 0C       		.uleb128 0xc
 3685 02d7 3C       		.uleb128 0x3c
 3686 02d8 0C       		.uleb128 0xc
 3687 02d9 00       		.byte	0
 3688 02da 00       		.byte	0
 3689 02db 3A       		.uleb128 0x3a
 3690 02dc 34       		.uleb128 0x34
 3691 02dd 00       		.byte	0
 3692 02de 03       		.uleb128 0x3
 3693 02df 08       		.uleb128 0x8
 3694 02e0 3A       		.uleb128 0x3a
 3695 02e1 0B       		.uleb128 0xb
 3696 02e2 3B       		.uleb128 0x3b
 3697 02e3 0B       		.uleb128 0xb
ARM GAS  /tmp/ccJH0Mxb.s 			page 66


 3698 02e4 49       		.uleb128 0x49
 3699 02e5 13       		.uleb128 0x13
 3700 02e6 3F       		.uleb128 0x3f
 3701 02e7 0C       		.uleb128 0xc
 3702 02e8 02       		.uleb128 0x2
 3703 02e9 0A       		.uleb128 0xa
 3704 02ea 00       		.byte	0
 3705 02eb 00       		.byte	0
 3706 02ec 3B       		.uleb128 0x3b
 3707 02ed 2E       		.uleb128 0x2e
 3708 02ee 01       		.byte	0x1
 3709 02ef 3F       		.uleb128 0x3f
 3710 02f0 0C       		.uleb128 0xc
 3711 02f1 03       		.uleb128 0x3
 3712 02f2 0E       		.uleb128 0xe
 3713 02f3 3A       		.uleb128 0x3a
 3714 02f4 0B       		.uleb128 0xb
 3715 02f5 3B       		.uleb128 0x3b
 3716 02f6 0B       		.uleb128 0xb
 3717 02f7 27       		.uleb128 0x27
 3718 02f8 0C       		.uleb128 0xc
 3719 02f9 3C       		.uleb128 0x3c
 3720 02fa 0C       		.uleb128 0xc
 3721 02fb 01       		.uleb128 0x1
 3722 02fc 13       		.uleb128 0x13
 3723 02fd 00       		.byte	0
 3724 02fe 00       		.byte	0
 3725 02ff 3C       		.uleb128 0x3c
 3726 0300 2E       		.uleb128 0x2e
 3727 0301 01       		.byte	0x1
 3728 0302 3F       		.uleb128 0x3f
 3729 0303 0C       		.uleb128 0xc
 3730 0304 03       		.uleb128 0x3
 3731 0305 0E       		.uleb128 0xe
 3732 0306 3A       		.uleb128 0x3a
 3733 0307 0B       		.uleb128 0xb
 3734 0308 3B       		.uleb128 0x3b
 3735 0309 05       		.uleb128 0x5
 3736 030a 27       		.uleb128 0x27
 3737 030b 0C       		.uleb128 0xc
 3738 030c 49       		.uleb128 0x49
 3739 030d 13       		.uleb128 0x13
 3740 030e 3C       		.uleb128 0x3c
 3741 030f 0C       		.uleb128 0xc
 3742 0310 01       		.uleb128 0x1
 3743 0311 13       		.uleb128 0x13
 3744 0312 00       		.byte	0
 3745 0313 00       		.byte	0
 3746 0314 3D       		.uleb128 0x3d
 3747 0315 2E       		.uleb128 0x2e
 3748 0316 01       		.byte	0x1
 3749 0317 3F       		.uleb128 0x3f
 3750 0318 0C       		.uleb128 0xc
 3751 0319 03       		.uleb128 0x3
 3752 031a 0E       		.uleb128 0xe
 3753 031b 3A       		.uleb128 0x3a
 3754 031c 0B       		.uleb128 0xb
ARM GAS  /tmp/ccJH0Mxb.s 			page 67


 3755 031d 3B       		.uleb128 0x3b
 3756 031e 05       		.uleb128 0x5
 3757 031f 27       		.uleb128 0x27
 3758 0320 0C       		.uleb128 0xc
 3759 0321 3C       		.uleb128 0x3c
 3760 0322 0C       		.uleb128 0xc
 3761 0323 01       		.uleb128 0x1
 3762 0324 13       		.uleb128 0x13
 3763 0325 00       		.byte	0
 3764 0326 00       		.byte	0
 3765 0327 3E       		.uleb128 0x3e
 3766 0328 2E       		.uleb128 0x2e
 3767 0329 00       		.byte	0
 3768 032a 3F       		.uleb128 0x3f
 3769 032b 0C       		.uleb128 0xc
 3770 032c 03       		.uleb128 0x3
 3771 032d 0E       		.uleb128 0xe
 3772 032e 3A       		.uleb128 0x3a
 3773 032f 0B       		.uleb128 0xb
 3774 0330 3B       		.uleb128 0x3b
 3775 0331 05       		.uleb128 0x5
 3776 0332 27       		.uleb128 0x27
 3777 0333 0C       		.uleb128 0xc
 3778 0334 3C       		.uleb128 0x3c
 3779 0335 0C       		.uleb128 0xc
 3780 0336 00       		.byte	0
 3781 0337 00       		.byte	0
 3782 0338 3F       		.uleb128 0x3f
 3783 0339 2E       		.uleb128 0x2e
 3784 033a 01       		.byte	0x1
 3785 033b 3F       		.uleb128 0x3f
 3786 033c 0C       		.uleb128 0xc
 3787 033d 03       		.uleb128 0x3
 3788 033e 0E       		.uleb128 0xe
 3789 033f 3A       		.uleb128 0x3a
 3790 0340 0B       		.uleb128 0xb
 3791 0341 3B       		.uleb128 0x3b
 3792 0342 05       		.uleb128 0x5
 3793 0343 27       		.uleb128 0x27
 3794 0344 0C       		.uleb128 0xc
 3795 0345 3C       		.uleb128 0x3c
 3796 0346 0C       		.uleb128 0xc
 3797 0347 00       		.byte	0
 3798 0348 00       		.byte	0
 3799 0349 00       		.byte	0
 3800              		.section	.debug_loc,"",%progbits
 3801              	.Ldebug_loc0:
 3802              	.LLST0:
 3803 0000 00000000 		.4byte	.LFB123
 3804 0004 04000000 		.4byte	.LCFI0
 3805 0008 0200     		.2byte	0x2
 3806 000a 7D       		.byte	0x7d
 3807 000b 00       		.sleb128 0
 3808 000c 04000000 		.4byte	.LCFI0
 3809 0010 20010000 		.4byte	.LFE123
 3810 0014 0200     		.2byte	0x2
 3811 0016 7D       		.byte	0x7d
ARM GAS  /tmp/ccJH0Mxb.s 			page 68


 3812 0017 10       		.sleb128 16
 3813 0018 00000000 		.4byte	0
 3814 001c 00000000 		.4byte	0
 3815              	.LLST1:
 3816 0020 14000000 		.4byte	.LVL3
 3817 0024 26000000 		.4byte	.LVL7
 3818 0028 0100     		.2byte	0x1
 3819 002a 54       		.byte	0x54
 3820 002b 34000000 		.4byte	.LVL9
 3821 002f 3C000000 		.4byte	.LVL10
 3822 0033 0100     		.2byte	0x1
 3823 0035 54       		.byte	0x54
 3824 0036 C2000000 		.4byte	.LVL30
 3825 003a E0000000 		.4byte	.LVL37
 3826 003e 0100     		.2byte	0x1
 3827 0040 54       		.byte	0x54
 3828 0041 00000000 		.4byte	0
 3829 0045 00000000 		.4byte	0
 3830              	.LLST2:
 3831 0049 1E000000 		.4byte	.LVL5
 3832 004d 20000000 		.4byte	.LVL6
 3833 0051 0100     		.2byte	0x1
 3834 0053 53       		.byte	0x53
 3835 0054 00000000 		.4byte	0
 3836 0058 00000000 		.4byte	0
 3837              	.LLST3:
 3838 005c 40000000 		.4byte	.LVL11
 3839 0060 5C000000 		.4byte	.LVL13
 3840 0064 0100     		.2byte	0x1
 3841 0066 54       		.byte	0x54
 3842 0067 00000000 		.4byte	0
 3843 006b 00000000 		.4byte	0
 3844              	.LLST4:
 3845 006f 40000000 		.4byte	.LVL11
 3846 0073 78000000 		.4byte	.LVL18
 3847 0077 0600     		.2byte	0x6
 3848 0079 03       		.byte	0x3
 3849 007a 00000000 		.4byte	SD2
 3850 007e 9F       		.byte	0x9f
 3851 007f 00000000 		.4byte	0
 3852 0083 00000000 		.4byte	0
 3853              	.LLST5:
 3854 0087 40000000 		.4byte	.LVL11
 3855 008b 52000000 		.4byte	.LVL12
 3856 008f 0200     		.2byte	0x2
 3857 0091 30       		.byte	0x30
 3858 0092 9F       		.byte	0x9f
 3859 0093 52000000 		.4byte	.LVL12
 3860 0097 75000000 		.4byte	.LVL17-1
 3861 009b 0100     		.2byte	0x1
 3862 009d 51       		.byte	0x51
 3863 009e 00000000 		.4byte	0
 3864 00a2 00000000 		.4byte	0
 3865              	.LLST6:
 3866 00a6 7E000000 		.4byte	.LVL20
 3867 00aa 82000000 		.4byte	.LVL21
 3868 00ae 0100     		.2byte	0x1
ARM GAS  /tmp/ccJH0Mxb.s 			page 69


 3869 00b0 53       		.byte	0x53
 3870 00b1 00000000 		.4byte	0
 3871 00b5 00000000 		.4byte	0
 3872              	.LLST7:
 3873 00b9 9E000000 		.4byte	.LVL24
 3874 00bd A5000000 		.4byte	.LVL25-1
 3875 00c1 0100     		.2byte	0x1
 3876 00c3 53       		.byte	0x53
 3877 00c4 00000000 		.4byte	0
 3878 00c8 00000000 		.4byte	0
 3879              	.LLST8:
 3880 00cc AC000000 		.4byte	.LVL27
 3881 00d0 B0000000 		.4byte	.LVL28
 3882 00d4 0100     		.2byte	0x1
 3883 00d6 53       		.byte	0x53
 3884 00d7 00000000 		.4byte	0
 3885 00db 00000000 		.4byte	0
 3886              	.LLST9:
 3887 00df C8000000 		.4byte	.LVL32
 3888 00e3 D1000000 		.4byte	.LVL33-1
 3889 00e7 0100     		.2byte	0x1
 3890 00e9 53       		.byte	0x53
 3891 00ea 00000000 		.4byte	0
 3892 00ee 00000000 		.4byte	0
 3893              	.LLST10:
 3894 00f2 D8000000 		.4byte	.LVL35
 3895 00f6 DC000000 		.4byte	.LVL36
 3896 00fa 0100     		.2byte	0x1
 3897 00fc 53       		.byte	0x53
 3898 00fd 00000000 		.4byte	0
 3899 0101 00000000 		.4byte	0
 3900              	.LLST11:
 3901 0105 EC000000 		.4byte	.LVL40
 3902 0109 F2000000 		.4byte	.LVL41
 3903 010d 0100     		.2byte	0x1
 3904 010f 50       		.byte	0x50
 3905 0110 00000000 		.4byte	0
 3906 0114 00000000 		.4byte	0
 3907              	.LLST12:
 3908 0118 E6000000 		.4byte	.LVL39
 3909 011c EB000000 		.4byte	.LVL40-1
 3910 0120 0100     		.2byte	0x1
 3911 0122 53       		.byte	0x53
 3912 0123 00000000 		.4byte	0
 3913 0127 00000000 		.4byte	0
 3914              	.LLST13:
 3915 012b 90000000 		.4byte	.LVL22
 3916 012f 9A000000 		.4byte	.LVL23
 3917 0133 0100     		.2byte	0x1
 3918 0135 53       		.byte	0x53
 3919 0136 BA000000 		.4byte	.LVL29
 3920 013a C1000000 		.4byte	.LVL30-1
 3921 013e 0100     		.2byte	0x1
 3922 0140 53       		.byte	0x53
 3923 0141 FC000000 		.4byte	.LVL42
 3924 0145 FE000000 		.4byte	.LVL43
 3925 0149 0100     		.2byte	0x1
ARM GAS  /tmp/ccJH0Mxb.s 			page 70


 3926 014b 53       		.byte	0x53
 3927 014c 00000000 		.4byte	0
 3928 0150 00000000 		.4byte	0
 3929              	.LLST14:
 3930 0154 00000000 		.4byte	.LFB124
 3931 0158 02000000 		.4byte	.LCFI1
 3932 015c 0200     		.2byte	0x2
 3933 015e 7D       		.byte	0x7d
 3934 015f 00       		.sleb128 0
 3935 0160 02000000 		.4byte	.LCFI1
 3936 0164 26000000 		.4byte	.LFE124
 3937 0168 0200     		.2byte	0x2
 3938 016a 7D       		.byte	0x7d
 3939 016b 08       		.sleb128 8
 3940 016c 00000000 		.4byte	0
 3941 0170 00000000 		.4byte	0
 3942              	.LLST15:
 3943 0174 00000000 		.4byte	.LFB125
 3944 0178 02000000 		.4byte	.LCFI2
 3945 017c 0200     		.2byte	0x2
 3946 017e 7D       		.byte	0x7d
 3947 017f 00       		.sleb128 0
 3948 0180 02000000 		.4byte	.LCFI2
 3949 0184 9C000000 		.4byte	.LFE125
 3950 0188 0200     		.2byte	0x2
 3951 018a 7D       		.byte	0x7d
 3952 018b 10       		.sleb128 16
 3953 018c 00000000 		.4byte	0
 3954 0190 00000000 		.4byte	0
 3955              	.LLST16:
 3956 0194 00000000 		.4byte	.LVL46
 3957 0198 12000000 		.4byte	.LVL48
 3958 019c 0100     		.2byte	0x1
 3959 019e 50       		.byte	0x50
 3960 019f 12000000 		.4byte	.LVL48
 3961 01a3 74000000 		.4byte	.LVL51
 3962 01a7 0100     		.2byte	0x1
 3963 01a9 55       		.byte	0x55
 3964 01aa 74000000 		.4byte	.LVL51
 3965 01ae 84000000 		.4byte	.LVL52
 3966 01b2 0100     		.2byte	0x1
 3967 01b4 50       		.byte	0x50
 3968 01b5 84000000 		.4byte	.LVL52
 3969 01b9 9C000000 		.4byte	.LFE125
 3970 01bd 0100     		.2byte	0x1
 3971 01bf 55       		.byte	0x55
 3972 01c0 00000000 		.4byte	0
 3973 01c4 00000000 		.4byte	0
 3974              	.LLST17:
 3975 01c8 00000000 		.4byte	.LVL46
 3976 01cc 0C000000 		.4byte	.LVL47
 3977 01d0 0100     		.2byte	0x1
 3978 01d2 51       		.byte	0x51
 3979 01d3 0C000000 		.4byte	.LVL47
 3980 01d7 9C000000 		.4byte	.LFE125
 3981 01db 0100     		.2byte	0x1
 3982 01dd 54       		.byte	0x54
ARM GAS  /tmp/ccJH0Mxb.s 			page 71


 3983 01de 00000000 		.4byte	0
 3984 01e2 00000000 		.4byte	0
 3985              	.LLST18:
 3986 01e6 12000000 		.4byte	.LVL48
 3987 01ea 74000000 		.4byte	.LVL51
 3988 01ee 0100     		.2byte	0x1
 3989 01f0 54       		.byte	0x54
 3990 01f1 00000000 		.4byte	0
 3991 01f5 00000000 		.4byte	0
 3992              	.LLST19:
 3993 01f9 12000000 		.4byte	.LVL48
 3994 01fd 74000000 		.4byte	.LVL51
 3995 0201 0100     		.2byte	0x1
 3996 0203 55       		.byte	0x55
 3997 0204 00000000 		.4byte	0
 3998 0208 00000000 		.4byte	0
 3999              	.LLST20:
 4000 020c 14000000 		.4byte	.LVL49
 4001 0210 72000000 		.4byte	.LVL50
 4002 0214 0100     		.2byte	0x1
 4003 0216 53       		.byte	0x53
 4004 0217 72000000 		.4byte	.LVL50
 4005 021b 74000000 		.4byte	.LVL51
 4006 021f 0300     		.2byte	0x3
 4007 0221 75       		.byte	0x75
 4008 0222 F400     		.sleb128 116
 4009 0224 00000000 		.4byte	0
 4010 0228 00000000 		.4byte	0
 4011              	.LLST21:
 4012 022c 00000000 		.4byte	.LVL54
 4013 0230 22000000 		.4byte	.LVL57
 4014 0234 0100     		.2byte	0x1
 4015 0236 50       		.byte	0x50
 4016 0237 22000000 		.4byte	.LVL57
 4017 023b 34000000 		.4byte	.LFE126
 4018 023f 0400     		.2byte	0x4
 4019 0241 F3       		.byte	0xf3
 4020 0242 01       		.uleb128 0x1
 4021 0243 50       		.byte	0x50
 4022 0244 9F       		.byte	0x9f
 4023 0245 00000000 		.4byte	0
 4024 0249 00000000 		.4byte	0
 4025              	.LLST22:
 4026 024d 0A000000 		.4byte	.LVL55
 4027 0251 14000000 		.4byte	.LVL56
 4028 0255 0100     		.2byte	0x1
 4029 0257 53       		.byte	0x53
 4030 0258 14000000 		.4byte	.LVL56
 4031 025c 22000000 		.4byte	.LVL57
 4032 0260 0300     		.2byte	0x3
 4033 0262 70       		.byte	0x70
 4034 0263 F400     		.sleb128 116
 4035 0265 22000000 		.4byte	.LVL57
 4036 0269 2D000000 		.4byte	.LVL58-1
 4037 026d 0500     		.2byte	0x5
 4038 026f F3       		.byte	0xf3
 4039 0270 01       		.uleb128 0x1
ARM GAS  /tmp/ccJH0Mxb.s 			page 72


 4040 0271 50       		.byte	0x50
 4041 0272 23       		.byte	0x23
 4042 0273 74       		.uleb128 0x74
 4043 0274 00000000 		.4byte	0
 4044 0278 00000000 		.4byte	0
 4045              		.section	.debug_aranges,"",%progbits
 4046 0000 3C000000 		.4byte	0x3c
 4047 0004 0200     		.2byte	0x2
 4048 0006 00000000 		.4byte	.Ldebug_info0
 4049 000a 04       		.byte	0x4
 4050 000b 00       		.byte	0
 4051 000c 0000     		.2byte	0
 4052 000e 0000     		.2byte	0
 4053 0010 00000000 		.4byte	.LFB122
 4054 0014 14000000 		.4byte	.LFE122-.LFB122
 4055 0018 00000000 		.4byte	.LFB123
 4056 001c 20010000 		.4byte	.LFE123-.LFB123
 4057 0020 00000000 		.4byte	.LFB124
 4058 0024 26000000 		.4byte	.LFE124-.LFB124
 4059 0028 00000000 		.4byte	.LFB125
 4060 002c 9C000000 		.4byte	.LFE125-.LFB125
 4061 0030 00000000 		.4byte	.LFB126
 4062 0034 34000000 		.4byte	.LFE126-.LFB126
 4063 0038 00000000 		.4byte	0
 4064 003c 00000000 		.4byte	0
 4065              		.section	.debug_ranges,"",%progbits
 4066              	.Ldebug_ranges0:
 4067 0000 00000000 		.4byte	.LBB26
 4068 0004 02000000 		.4byte	.LBE26
 4069 0008 04000000 		.4byte	.LBB41
 4070 000c BA000000 		.4byte	.LBE41
 4071 0010 C2000000 		.4byte	.LBB42
 4072 0014 20010000 		.4byte	.LBE42
 4073 0018 00000000 		.4byte	0
 4074 001c 00000000 		.4byte	0
 4075 0020 00000000 		.4byte	.LBB27
 4076 0024 02000000 		.4byte	.LBE27
 4077 0028 04000000 		.4byte	.LBB39
 4078 002c BA000000 		.4byte	.LBE39
 4079 0030 C2000000 		.4byte	.LBB40
 4080 0034 20010000 		.4byte	.LBE40
 4081 0038 00000000 		.4byte	0
 4082 003c 00000000 		.4byte	0
 4083 0040 00000000 		.4byte	.LFB122
 4084 0044 14000000 		.4byte	.LFE122
 4085 0048 00000000 		.4byte	.LFB123
 4086 004c 20010000 		.4byte	.LFE123
 4087 0050 00000000 		.4byte	.LFB124
 4088 0054 26000000 		.4byte	.LFE124
 4089 0058 00000000 		.4byte	.LFB125
 4090 005c 9C000000 		.4byte	.LFE125
 4091 0060 00000000 		.4byte	.LFB126
 4092 0064 34000000 		.4byte	.LFE126
 4093 0068 00000000 		.4byte	0
 4094 006c 00000000 		.4byte	0
 4095              		.section	.debug_line,"",%progbits
 4096              	.Ldebug_line0:
ARM GAS  /tmp/ccJH0Mxb.s 			page 73


 4097 0000 11040000 		.section	.debug_str,"MS",%progbits,1
 4097      02003403 
 4097      00000201 
 4097      FB0E0D00 
 4097      01010101 
 4098              	.LASF2:
 4099 0000 73697A65 		.ascii	"size_t\000"
 4099      5F7400
 4100              	.LASF130:
 4101 0007 54494D38 		.ascii	"TIM8_UP_TIM13_IRQn\000"
 4101      5F55505F 
 4101      54494D31 
 4101      335F4952 
 4101      516E00
 4102              	.LASF49:
 4103 001a 73697A65 		.ascii	"sizetype\000"
 4103      74797065 
 4103      00
 4104              	.LASF23:
 4105 0023 73797374 		.ascii	"systime_t\000"
 4105      696D655F 
 4105      7400
 4106              	.LASF194:
 4107 002d 504C4C49 		.ascii	"PLLI2SCFGR\000"
 4107      32534346 
 4107      475200
 4108              	.LASF28:
 4109 0038 705F6374 		.ascii	"p_ctx\000"
 4109      7800
 4110              	.LASF19:
 4111 003e 74707269 		.ascii	"tprio_t\000"
 4111      6F5F7400 
 4112              	.LASF38:
 4113 0046 705F6D73 		.ascii	"p_msgqueue\000"
 4113      67717565 
 4113      756500
 4114              	.LASF8:
 4115 0051 696E7433 		.ascii	"int32_t\000"
 4115      325F7400 
 4116              	.LASF211:
 4117 0059 53657269 		.ascii	"SerialConfig\000"
 4117      616C436F 
 4117      6E666967 
 4117      00
 4118              	.LASF217:
 4119 0066 77726974 		.ascii	"writet\000"
 4119      657400
 4120              	.LASF198:
 4121 006d 47545052 		.ascii	"GTPR\000"
 4121      00
 4122              	.LASF213:
 4123 0072 77726974 		.ascii	"write\000"
 4123      6500
 4124              	.LASF143:
 4125 0078 444D4132 		.ascii	"DMA2_Stream1_IRQn\000"
 4125      5F537472 
 4125      65616D31 
ARM GAS  /tmp/ccJH0Mxb.s 			page 74


 4125      5F495251 
 4125      6E00
 4126              	.LASF222:
 4127 008a 56656374 		.ascii	"VectorD8\000"
 4127      6F724438 
 4127      00
 4128              	.LASF137:
 4129 0093 53504933 		.ascii	"SPI3_IRQn\000"
 4129      5F495251 
 4129      6E00
 4130              	.LASF90:
 4131 009d 464C4153 		.ascii	"FLASH_IRQn\000"
 4131      485F4952 
 4131      516E00
 4132              	.LASF164:
 4133 00a8 44434D49 		.ascii	"DCMI_IRQn\000"
 4133      5F495251 
 4133      6E00
 4134              	.LASF58:
 4135 00b2 656C5F66 		.ascii	"el_flags\000"
 4135      6C616773 
 4135      00
 4136              	.LASF225:
 4137 00bb 636F6E66 		.ascii	"config\000"
 4137      696700
 4138              	.LASF206:
 4139 00c2 73746174 		.ascii	"state\000"
 4139      6500
 4140              	.LASF215:
 4141 00c8 70757474 		.ascii	"putt\000"
 4141      00
 4142              	.LASF114:
 4143 00cd 54494D32 		.ascii	"TIM2_IRQn\000"
 4143      5F495251 
 4143      6E00
 4144              	.LASF233:
 4145 00d7 474E5520 		.ascii	"GNU C 4.7.2\000"
 4145      4320342E 
 4145      372E3200 
 4146              	.LASF220:
 4147 00e3 73657276 		.ascii	"serve_interrupt\000"
 4147      655F696E 
 4147      74657272 
 4147      75707400 
 4148              	.LASF221:
 4149 00f3 7365745F 		.ascii	"set_error\000"
 4149      6572726F 
 4149      7200
 4150              	.LASF150:
 4151 00fd 43414E32 		.ascii	"CAN2_RX0_IRQn\000"
 4151      5F525830 
 4151      5F495251 
 4151      6E00
 4152              	.LASF157:
 4153 010b 55534152 		.ascii	"USART6_IRQn\000"
 4153      54365F49 
 4153      52516E00 
ARM GAS  /tmp/ccJH0Mxb.s 			page 75


 4154              	.LASF52:
 4155 0117 6D5F6F77 		.ascii	"m_owner\000"
 4155      6E657200 
 4156              	.LASF62:
 4157 011f 65786974 		.ascii	"exitcode\000"
 4157      636F6465 
 4157      00
 4158              	.LASF162:
 4159 0128 4F54475F 		.ascii	"OTG_HS_WKUP_IRQn\000"
 4159      48535F57 
 4159      4B55505F 
 4159      4952516E 
 4159      00
 4160              	.LASF70:
 4161 0139 715F746F 		.ascii	"q_top\000"
 4161      7000
 4162              	.LASF64:
 4163 013f 65776D61 		.ascii	"ewmask\000"
 4163      736B00
 4164              	.LASF129:
 4165 0146 54494D38 		.ascii	"TIM8_BRK_TIM12_IRQn\000"
 4165      5F42524B 
 4165      5F54494D 
 4165      31325F49 
 4165      52516E00 
 4166              	.LASF185:
 4167 015a 41484232 		.ascii	"AHB2LPENR\000"
 4167      4C50454E 
 4167      5200
 4168              	.LASF218:
 4169 0164 72656164 		.ascii	"readt\000"
 4169      7400
 4170              	.LASF226:
 4171 016a 73645F6C 		.ascii	"sd_lld_start\000"
 4171      6C645F73 
 4171      74617274 
 4171      00
 4172              	.LASF69:
 4173 0177 715F6275 		.ascii	"q_buffer\000"
 4173      66666572 
 4173      00
 4174              	.LASF73:
 4175 0180 715F6E6F 		.ascii	"q_notify\000"
 4175      74696679 
 4175      00
 4176              	.LASF231:
 4177 0189 73644F62 		.ascii	"sdObjectInit\000"
 4177      6A656374 
 4177      496E6974 
 4177      00
 4178              	.LASF29:
 4179 0196 705F6E65 		.ascii	"p_newer\000"
 4179      77657200 
 4180              	.LASF9:
 4181 019e 6C6F6E67 		.ascii	"long int\000"
 4181      20696E74 
 4181      00
ARM GAS  /tmp/ccJH0Mxb.s 			page 76


 4182              	.LASF25:
 4183 01a7 705F6E65 		.ascii	"p_next\000"
 4183      787400
 4184              	.LASF72:
 4185 01ae 715F7264 		.ascii	"q_rdptr\000"
 4185      70747200 
 4186              	.LASF26:
 4187 01b6 705F7072 		.ascii	"p_prev\000"
 4187      657600
 4188              	.LASF237:
 4189 01bd 64656661 		.ascii	"default_config\000"
 4189      756C745F 
 4189      636F6E66 
 4189      696700
 4190              	.LASF154:
 4191 01cc 444D4132 		.ascii	"DMA2_Stream5_IRQn\000"
 4191      5F537472 
 4191      65616D35 
 4191      5F495251 
 4191      6E00
 4192              	.LASF16:
 4193 01de 74737461 		.ascii	"tstate_t\000"
 4193      74655F74 
 4193      00
 4194              	.LASF41:
 4195 01e7 705F6D74 		.ascii	"p_mtxlist\000"
 4195      786C6973 
 4195      7400
 4196              	.LASF112:
 4197 01f1 54494D31 		.ascii	"TIM1_TRG_COM_TIM11_IRQn\000"
 4197      5F545247 
 4197      5F434F4D 
 4197      5F54494D 
 4197      31315F49 
 4198              	.LASF208:
 4199 0209 6F717565 		.ascii	"oqueue\000"
 4199      756500
 4200              	.LASF46:
 4201 0210 72656761 		.ascii	"regarm_t\000"
 4201      726D5F74 
 4201      00
 4202              	.LASF182:
 4203 0219 41504232 		.ascii	"APB2ENR\000"
 4203      454E5200 
 4204              	.LASF184:
 4205 0221 41484231 		.ascii	"AHB1LPENR\000"
 4205      4C50454E 
 4205      5200
 4206              	.LASF85:
 4207 022b 53797354 		.ascii	"SysTick_IRQn\000"
 4207      69636B5F 
 4207      4952516E 
 4207      00
 4208              	.LASF125:
 4209 0238 55534152 		.ascii	"USART3_IRQn\000"
 4209      54335F49 
 4209      52516E00 
ARM GAS  /tmp/ccJH0Mxb.s 			page 77


 4210              	.LASF196:
 4211 0244 44434B43 		.ascii	"DCKCFGR\000"
 4211      46475200 
 4212              	.LASF209:
 4213 024c 75736172 		.ascii	"usart\000"
 4213      7400
 4214              	.LASF1:
 4215 0252 7369676E 		.ascii	"signed char\000"
 4215      65642063 
 4215      68617200 
 4216              	.LASF35:
 4217 025e 705F7072 		.ascii	"p_preempt\000"
 4217      65656D70 
 4217      7400
 4218              	.LASF3:
 4219 0268 75696E74 		.ascii	"uint8_t\000"
 4219      385F7400 
 4220              	.LASF21:
 4221 0270 6576656E 		.ascii	"eventmask_t\000"
 4221      746D6173 
 4221      6B5F7400 
 4222              	.LASF48:
 4223 027c 636F6E74 		.ascii	"context\000"
 4223      65787400 
 4224              	.LASF99:
 4225 0284 444D4131 		.ascii	"DMA1_Stream2_IRQn\000"
 4225      5F537472 
 4225      65616D32 
 4225      5F495251 
 4225      6E00
 4226              	.LASF173:
 4227 0296 52455345 		.ascii	"RESERVED0\000"
 4227      52564544 
 4227      3000
 4228              	.LASF176:
 4229 02a0 52455345 		.ascii	"RESERVED1\000"
 4229      52564544 
 4229      3100
 4230              	.LASF4:
 4231 02aa 756E7369 		.ascii	"unsigned char\000"
 4231      676E6564 
 4231      20636861 
 4231      7200
 4232              	.LASF146:
 4233 02b8 444D4132 		.ascii	"DMA2_Stream4_IRQn\000"
 4233      5F537472 
 4233      65616D34 
 4233      5F495251 
 4233      6E00
 4234              	.LASF187:
 4235 02ca 52455345 		.ascii	"RESERVED4\000"
 4235      52564544 
 4235      3400
 4236              	.LASF74:
 4237 02d4 715F6C69 		.ascii	"q_link\000"
 4237      6E6B00
 4238              	.LASF192:
ARM GAS  /tmp/ccJH0Mxb.s 			page 78


 4239 02db 52455345 		.ascii	"RESERVED6\000"
 4239      52564544 
 4239      3600
 4240              	.LASF118:
 4241 02e5 49324331 		.ascii	"I2C1_ER_IRQn\000"
 4241      5F45525F 
 4241      4952516E 
 4241      00
 4242              	.LASF152:
 4243 02f2 43414E32 		.ascii	"CAN2_SCE_IRQn\000"
 4243      5F534345 
 4243      5F495251 
 4243      6E00
 4244              	.LASF200:
 4245 0300 53445F55 		.ascii	"SD_UNINIT\000"
 4245      4E494E49 
 4245      5400
 4246              	.LASF14:
 4247 030a 5F426F6F 		.ascii	"_Bool\000"
 4247      6C00
 4248              	.LASF180:
 4249 0310 52455345 		.ascii	"RESERVED2\000"
 4249      52564544 
 4249      3200
 4250              	.LASF183:
 4251 031a 52455345 		.ascii	"RESERVED3\000"
 4251      52564544 
 4251      3300
 4252              	.LASF136:
 4253 0324 54494D35 		.ascii	"TIM5_IRQn\000"
 4253      5F495251 
 4253      6E00
 4254              	.LASF190:
 4255 032e 52455345 		.ascii	"RESERVED5\000"
 4255      52564544 
 4255      3500
 4256              	.LASF81:
 4257 0338 55736167 		.ascii	"UsageFault_IRQn\000"
 4257      65466175 
 4257      6C745F49 
 4257      52516E00 
 4258              	.LASF65:
 4259 0348 63686172 		.ascii	"char\000"
 4259      00
 4260              	.LASF27:
 4261 034d 705F7072 		.ascii	"p_prio\000"
 4261      696F00
 4262              	.LASF178:
 4263 0354 41484232 		.ascii	"AHB2ENR\000"
 4263      454E5200 
 4264              	.LASF66:
 4265 035c 47656E65 		.ascii	"GenericQueue\000"
 4265      72696351 
 4265      75657565 
 4265      00
 4266              	.LASF63:
 4267 0369 77746F62 		.ascii	"wtobjp\000"
ARM GAS  /tmp/ccJH0Mxb.s 			page 79


 4267      6A7000
 4268              	.LASF106:
 4269 0370 43414E31 		.ascii	"CAN1_RX0_IRQn\000"
 4269      5F525830 
 4269      5F495251 
 4269      6E00
 4270              	.LASF216:
 4271 037e 67657474 		.ascii	"gett\000"
 4271      00
 4272              	.LASF199:
 4273 0383 55534152 		.ascii	"USART_TypeDef\000"
 4273      545F5479 
 4273      70654465 
 4273      6600
 4274              	.LASF77:
 4275 0391 4F757470 		.ascii	"OutputQueue\000"
 4275      75745175 
 4275      65756500 
 4276              	.LASF116:
 4277 039d 54494D34 		.ascii	"TIM4_IRQn\000"
 4277      5F495251 
 4277      6E00
 4278              	.LASF124:
 4279 03a7 55534152 		.ascii	"USART2_IRQn\000"
 4279      54325F49 
 4279      52516E00 
 4280              	.LASF191:
 4281 03b3 42444352 		.ascii	"BDCR\000"
 4281      00
 4282              	.LASF117:
 4283 03b8 49324331 		.ascii	"I2C1_EV_IRQn\000"
 4283      5F45565F 
 4283      4952516E 
 4283      00
 4284              	.LASF47:
 4285 03c5 696E7463 		.ascii	"intctx\000"
 4285      747800
 4286              	.LASF210:
 4287 03cc 73706565 		.ascii	"speed\000"
 4287      6400
 4288              	.LASF40:
 4289 03d2 705F6570 		.ascii	"p_epending\000"
 4289      656E6469 
 4289      6E6700
 4290              	.LASF169:
 4291 03dd 43464752 		.ascii	"CFGR\000"
 4291      00
 4292              	.LASF113:
 4293 03e2 54494D31 		.ascii	"TIM1_CC_IRQn\000"
 4293      5F43435F 
 4293      4952516E 
 4293      00
 4294              	.LASF166:
 4295 03ef 48415348 		.ascii	"HASH_RNG_IRQn\000"
 4295      5F524E47 
 4295      5F495251 
 4295      6E00
ARM GAS  /tmp/ccJH0Mxb.s 			page 80


 4296              	.LASF93:
 4297 03fd 45585449 		.ascii	"EXTI1_IRQn\000"
 4297      315F4952 
 4297      516E00
 4298              	.LASF105:
 4299 0408 43414E31 		.ascii	"CAN1_TX_IRQn\000"
 4299      5F54585F 
 4299      4952516E 
 4299      00
 4300              	.LASF102:
 4301 0415 444D4131 		.ascii	"DMA1_Stream5_IRQn\000"
 4301      5F537472 
 4301      65616D35 
 4301      5F495251 
 4301      6E00
 4302              	.LASF131:
 4303 0427 54494D38 		.ascii	"TIM8_TRG_COM_TIM14_IRQn\000"
 4303      5F545247 
 4303      5F434F4D 
 4303      5F54494D 
 4303      31345F49 
 4304              	.LASF60:
 4305 043f 65735F6E 		.ascii	"es_next\000"
 4305      65787400 
 4306              	.LASF68:
 4307 0447 715F636F 		.ascii	"q_counter\000"
 4307      756E7465 
 4307      7200
 4308              	.LASF153:
 4309 0451 4F54475F 		.ascii	"OTG_FS_IRQn\000"
 4309      46535F49 
 4309      52516E00 
 4310              	.LASF78:
 4311 045d 4E6F6E4D 		.ascii	"NonMaskableInt_IRQn\000"
 4311      61736B61 
 4311      626C6549 
 4311      6E745F49 
 4311      52516E00 
 4312              	.LASF134:
 4313 0471 46534D43 		.ascii	"FSMC_IRQn\000"
 4313      5F495251 
 4313      6E00
 4314              	.LASF59:
 4315 047b 4576656E 		.ascii	"EventSource\000"
 4315      74536F75 
 4315      72636500 
 4316              	.LASF86:
 4317 0487 57574447 		.ascii	"WWDG_IRQn\000"
 4317      5F495251 
 4317      6E00
 4318              	.LASF11:
 4319 0491 6C6F6E67 		.ascii	"long unsigned int\000"
 4319      20756E73 
 4319      69676E65 
 4319      6420696E 
 4319      7400
 4320              	.LASF79:
ARM GAS  /tmp/ccJH0Mxb.s 			page 81


 4321 04a3 4D656D6F 		.ascii	"MemoryManagement_IRQn\000"
 4321      72794D61 
 4321      6E616765 
 4321      6D656E74 
 4321      5F495251 
 4322              	.LASF88:
 4323 04b9 54414D50 		.ascii	"TAMP_STAMP_IRQn\000"
 4323      5F535441 
 4323      4D505F49 
 4323      52516E00 
 4324              	.LASF108:
 4325 04c9 43414E31 		.ascii	"CAN1_SCE_IRQn\000"
 4325      5F534345 
 4325      5F495251 
 4325      6E00
 4326              	.LASF55:
 4327 04d7 656C5F6E 		.ascii	"el_next\000"
 4327      65787400 
 4328              	.LASF71:
 4329 04df 715F7772 		.ascii	"q_wrptr\000"
 4329      70747200 
 4330              	.LASF212:
 4331 04e7 53657269 		.ascii	"SerialDriverVMT\000"
 4331      616C4472 
 4331      69766572 
 4331      564D5400 
 4332              	.LASF219:
 4333 04f7 75736172 		.ascii	"usart_deinit\000"
 4333      745F6465 
 4333      696E6974 
 4333      00
 4334              	.LASF120:
 4335 0504 49324332 		.ascii	"I2C2_ER_IRQn\000"
 4335      5F45525F 
 4335      4952516E 
 4335      00
 4336              	.LASF80:
 4337 0511 42757346 		.ascii	"BusFault_IRQn\000"
 4337      61756C74 
 4337      5F495251 
 4337      6E00
 4338              	.LASF223:
 4339 051f 73645F6C 		.ascii	"sd_lld_init\000"
 4339      6C645F69 
 4339      6E697400 
 4340              	.LASF168:
 4341 052b 504C4C43 		.ascii	"PLLCFGR\000"
 4341      46475200 
 4342              	.LASF139:
 4343 0533 55415254 		.ascii	"UART5_IRQn\000"
 4343      355F4952 
 4343      516E00
 4344              	.LASF110:
 4345 053e 54494D31 		.ascii	"TIM1_BRK_TIM9_IRQn\000"
 4345      5F42524B 
 4345      5F54494D 
 4345      395F4952 
ARM GAS  /tmp/ccJH0Mxb.s 			page 82


 4345      516E00
 4346              	.LASF50:
 4347 0551 4D757465 		.ascii	"Mutex\000"
 4347      7800
 4348              	.LASF230:
 4349 0557 7364496E 		.ascii	"sdIncomingDataI\000"
 4349      636F6D69 
 4349      6E674461 
 4349      74614900 
 4350              	.LASF141:
 4351 0567 54494D37 		.ascii	"TIM7_IRQn\000"
 4351      5F495251 
 4351      6E00
 4352              	.LASF12:
 4353 0571 6C6F6E67 		.ascii	"long long int\000"
 4353      206C6F6E 
 4353      6720696E 
 4353      7400
 4354              	.LASF148:
 4355 057f 4554485F 		.ascii	"ETH_WKUP_IRQn\000"
 4355      574B5550 
 4355      5F495251 
 4355      6E00
 4356              	.LASF122:
 4357 058d 53504932 		.ascii	"SPI2_IRQn\000"
 4357      5F495251 
 4357      6E00
 4358              	.LASF163:
 4359 0597 4F54475F 		.ascii	"OTG_HS_IRQn\000"
 4359      48535F49 
 4359      52516E00 
 4360              	.LASF51:
 4361 05a3 6D5F7175 		.ascii	"m_queue\000"
 4361      65756500 
 4362              	.LASF193:
 4363 05ab 53534347 		.ascii	"SSCGR\000"
 4363      5200
 4364              	.LASF121:
 4365 05b1 53504931 		.ascii	"SPI1_IRQn\000"
 4365      5F495251 
 4365      6E00
 4366              	.LASF82:
 4367 05bb 53564361 		.ascii	"SVCall_IRQn\000"
 4367      6C6C5F49 
 4367      52516E00 
 4368              	.LASF175:
 4369 05c7 41504232 		.ascii	"APB2RSTR\000"
 4369      52535452 
 4369      00
 4370              	.LASF234:
 4371 05d0 2F686F6D 		.ascii	"/home/wicker/tools/ChibiOS_2.6.3/os/hal/platforms/S"
 4371      652F7769 
 4371      636B6572 
 4371      2F746F6F 
 4371      6C732F43 
 4372 0603 544D3332 		.ascii	"TM32/USARTv1/serial_lld.c\000"
 4372      2F555341 
ARM GAS  /tmp/ccJH0Mxb.s 			page 83


 4372      52547631 
 4372      2F736572 
 4372      69616C5F 
 4373              	.LASF167:
 4374 061d 4650555F 		.ascii	"FPU_IRQn\000"
 4374      4952516E 
 4374      00
 4375              	.LASF138:
 4376 0626 55415254 		.ascii	"UART4_IRQn\000"
 4376      345F4952 
 4376      516E00
 4377              	.LASF189:
 4378 0631 41504232 		.ascii	"APB2LPENR\000"
 4378      4C50454E 
 4378      5200
 4379              	.LASF75:
 4380 063b 716E6F74 		.ascii	"qnotify_t\000"
 4380      6966795F 
 4380      7400
 4381              	.LASF37:
 4382 0645 705F7761 		.ascii	"p_waiting\000"
 4382      6974696E 
 4382      6700
 4383              	.LASF142:
 4384 064f 444D4132 		.ascii	"DMA2_Stream0_IRQn\000"
 4384      5F537472 
 4384      65616D30 
 4384      5F495251 
 4384      6E00
 4385              	.LASF205:
 4386 0661 6576656E 		.ascii	"event\000"
 4386      7400
 4387              	.LASF128:
 4388 0667 4F54475F 		.ascii	"OTG_FS_WKUP_IRQn\000"
 4388      46535F57 
 4388      4B55505F 
 4388      4952516E 
 4388      00
 4389              	.LASF33:
 4390 0678 705F666C 		.ascii	"p_flags\000"
 4390      61677300 
 4391              	.LASF214:
 4392 0680 72656164 		.ascii	"read\000"
 4392      00
 4393              	.LASF0:
 4394 0685 756E7369 		.ascii	"unsigned int\000"
 4394      676E6564 
 4394      20696E74 
 4394      00
 4395              	.LASF140:
 4396 0692 54494D36 		.ascii	"TIM6_DAC_IRQn\000"
 4396      5F444143 
 4396      5F495251 
 4396      6E00
 4397              	.LASF43:
 4398 06a0 705F6D70 		.ascii	"p_mpool\000"
 4398      6F6F6C00 
ARM GAS  /tmp/ccJH0Mxb.s 			page 84


 4399              	.LASF119:
 4400 06a8 49324332 		.ascii	"I2C2_EV_IRQn\000"
 4400      5F45565F 
 4400      4952516E 
 4400      00
 4401              	.LASF34:
 4402 06b5 705F7265 		.ascii	"p_refs\000"
 4402      667300
 4403              	.LASF238:
 4404 06bc 63684F51 		.ascii	"chOQGetI\000"
 4404      47657449 
 4404      00
 4405              	.LASF239:
 4406 06c5 5F706F72 		.ascii	"_port_irq_epilogue\000"
 4406      745F6972 
 4406      715F6570 
 4406      696C6F67 
 4406      756500
 4407              	.LASF45:
 4408 06d8 54687265 		.ascii	"ThreadsList\000"
 4408      6164734C 
 4408      69737400 
 4409              	.LASF188:
 4410 06e4 41504231 		.ascii	"APB1LPENR\000"
 4410      4C50454E 
 4410      5200
 4411              	.LASF98:
 4412 06ee 444D4131 		.ascii	"DMA1_Stream1_IRQn\000"
 4412      5F537472 
 4412      65616D31 
 4412      5F495251 
 4412      6E00
 4413              	.LASF22:
 4414 0700 666C6167 		.ascii	"flagsmask_t\000"
 4414      736D6173 
 4414      6B5F7400 
 4415              	.LASF145:
 4416 070c 444D4132 		.ascii	"DMA2_Stream3_IRQn\000"
 4416      5F537472 
 4416      65616D33 
 4416      5F495251 
 4416      6E00
 4417              	.LASF149:
 4418 071e 43414E32 		.ascii	"CAN2_TX_IRQn\000"
 4418      5F54585F 
 4418      4952516E 
 4418      00
 4419              	.LASF36:
 4420 072b 705F7469 		.ascii	"p_time\000"
 4420      6D6500
 4421              	.LASF235:
 4422 0732 4952516E 		.ascii	"IRQn\000"
 4422      00
 4423              	.LASF103:
 4424 0737 444D4131 		.ascii	"DMA1_Stream6_IRQn\000"
 4424      5F537472 
 4424      65616D36 
ARM GAS  /tmp/ccJH0Mxb.s 			page 85


 4424      5F495251 
 4424      6E00
 4425              	.LASF229:
 4426 0749 63684576 		.ascii	"chEvtBroadcastFlagsI\000"
 4426      7442726F 
 4426      61646361 
 4426      7374466C 
 4426      61677349 
 4427              	.LASF172:
 4428 075e 41484233 		.ascii	"AHB3RSTR\000"
 4428      52535452 
 4428      00
 4429              	.LASF240:
 4430 0767 6E766963 		.ascii	"nvicDisableVector\000"
 4430      44697361 
 4430      626C6556 
 4430      6563746F 
 4430      7200
 4431              	.LASF42:
 4432 0779 705F7265 		.ascii	"p_realprio\000"
 4432      616C7072 
 4432      696F00
 4433              	.LASF156:
 4434 0784 444D4132 		.ascii	"DMA2_Stream7_IRQn\000"
 4434      5F537472 
 4434      65616D37 
 4434      5F495251 
 4434      6E00
 4435              	.LASF97:
 4436 0796 444D4131 		.ascii	"DMA1_Stream0_IRQn\000"
 4436      5F537472 
 4436      65616D30 
 4436      5F495251 
 4436      6E00
 4437              	.LASF174:
 4438 07a8 41504231 		.ascii	"APB1RSTR\000"
 4438      52535452 
 4438      00
 4439              	.LASF224:
 4440 07b1 75736172 		.ascii	"usart_init\000"
 4440      745F696E 
 4440      697400
 4441              	.LASF127:
 4442 07bc 5254435F 		.ascii	"RTC_Alarm_IRQn\000"
 4442      416C6172 
 4442      6D5F4952 
 4442      516E00
 4443              	.LASF181:
 4444 07cb 41504231 		.ascii	"APB1ENR\000"
 4444      454E5200 
 4445              	.LASF159:
 4446 07d3 49324333 		.ascii	"I2C3_ER_IRQn\000"
 4446      5F45525F 
 4446      4952516E 
 4446      00
 4447              	.LASF165:
 4448 07e0 43525950 		.ascii	"CRYP_IRQn\000"
ARM GAS  /tmp/ccJH0Mxb.s 			page 86


 4448      5F495251 
 4448      6E00
 4449              	.LASF126:
 4450 07ea 45585449 		.ascii	"EXTI15_10_IRQn\000"
 4450      31355F31 
 4450      305F4952 
 4450      516E00
 4451              	.LASF13:
 4452 07f9 6C6F6E67 		.ascii	"long long unsigned int\000"
 4452      206C6F6E 
 4452      6720756E 
 4452      7369676E 
 4452      65642069 
 4453              	.LASF30:
 4454 0810 705F6F6C 		.ascii	"p_older\000"
 4454      64657200 
 4455              	.LASF6:
 4456 0818 75696E74 		.ascii	"uint16_t\000"
 4456      31365F74 
 4456      00
 4457              	.LASF20:
 4458 0821 6D73675F 		.ascii	"msg_t\000"
 4458      7400
 4459              	.LASF115:
 4460 0827 54494D33 		.ascii	"TIM3_IRQn\000"
 4460      5F495251 
 4460      6E00
 4461              	.LASF123:
 4462 0831 55534152 		.ascii	"USART1_IRQn\000"
 4462      54315F49 
 4462      52516E00 
 4463              	.LASF18:
 4464 083d 74736C69 		.ascii	"tslices_t\000"
 4464      6365735F 
 4464      7400
 4465              	.LASF94:
 4466 0847 45585449 		.ascii	"EXTI2_IRQn\000"
 4466      325F4952 
 4466      516E00
 4467              	.LASF151:
 4468 0852 43414E32 		.ascii	"CAN2_RX1_IRQn\000"
 4468      5F525831 
 4468      5F495251 
 4468      6E00
 4469              	.LASF104:
 4470 0860 4144435F 		.ascii	"ADC_IRQn\000"
 4470      4952516E 
 4470      00
 4471              	.LASF186:
 4472 0869 41484233 		.ascii	"AHB3LPENR\000"
 4472      4C50454E 
 4472      5200
 4473              	.LASF87:
 4474 0873 5056445F 		.ascii	"PVD_IRQn\000"
 4474      4952516E 
 4474      00
 4475              	.LASF204:
ARM GAS  /tmp/ccJH0Mxb.s 			page 87


 4476 087c 53657269 		.ascii	"SerialDriver\000"
 4476      616C4472 
 4476      69766572 
 4476      00
 4477              	.LASF67:
 4478 0889 715F7761 		.ascii	"q_waiting\000"
 4478      6974696E 
 4478      6700
 4479              	.LASF92:
 4480 0893 45585449 		.ascii	"EXTI0_IRQn\000"
 4480      305F4952 
 4480      516E00
 4481              	.LASF15:
 4482 089e 746D6F64 		.ascii	"tmode_t\000"
 4482      655F7400 
 4483              	.LASF101:
 4484 08a6 444D4131 		.ascii	"DMA1_Stream4_IRQn\000"
 4484      5F537472 
 4484      65616D34 
 4484      5F495251 
 4484      6E00
 4485              	.LASF203:
 4486 08b8 73647374 		.ascii	"sdstate_t\000"
 4486      6174655F 
 4486      7400
 4487              	.LASF155:
 4488 08c2 444D4132 		.ascii	"DMA2_Stream6_IRQn\000"
 4488      5F537472 
 4488      65616D36 
 4488      5F495251 
 4488      6E00
 4489              	.LASF177:
 4490 08d4 41484231 		.ascii	"AHB1ENR\000"
 4490      454E5200 
 4491              	.LASF83:
 4492 08dc 44656275 		.ascii	"DebugMonitor_IRQn\000"
 4492      674D6F6E 
 4492      69746F72 
 4492      5F495251 
 4492      6E00
 4493              	.LASF202:
 4494 08ee 53445F52 		.ascii	"SD_READY\000"
 4494      45414459 
 4494      00
 4495              	.LASF158:
 4496 08f7 49324333 		.ascii	"I2C3_EV_IRQn\000"
 4496      5F45565F 
 4496      4952516E 
 4496      00
 4497              	.LASF171:
 4498 0904 41484232 		.ascii	"AHB2RSTR\000"
 4498      52535452 
 4498      00
 4499              	.LASF147:
 4500 090d 4554485F 		.ascii	"ETH_IRQn\000"
 4500      4952516E 
 4500      00
ARM GAS  /tmp/ccJH0Mxb.s 			page 88


 4501              	.LASF236:
 4502 0916 6E6F7469 		.ascii	"notify2\000"
 4502      66793200 
 4503              	.LASF197:
 4504 091e 5243435F 		.ascii	"RCC_TypeDef\000"
 4504      54797065 
 4504      44656600 
 4505              	.LASF5:
 4506 092a 73686F72 		.ascii	"short int\000"
 4506      7420696E 
 4506      7400
 4507              	.LASF91:
 4508 0934 5243435F 		.ascii	"RCC_IRQn\000"
 4508      4952516E 
 4508      00
 4509              	.LASF207:
 4510 093d 69717565 		.ascii	"iqueue\000"
 4510      756500
 4511              	.LASF100:
 4512 0944 444D4131 		.ascii	"DMA1_Stream3_IRQn\000"
 4512      5F537472 
 4512      65616D33 
 4512      5F495251 
 4512      6E00
 4513              	.LASF24:
 4514 0956 54687265 		.ascii	"Thread\000"
 4514      616400
 4515              	.LASF111:
 4516 095d 54494D31 		.ascii	"TIM1_UP_TIM10_IRQn\000"
 4516      5F55505F 
 4516      54494D31 
 4516      305F4952 
 4516      516E00
 4517              	.LASF228:
 4518 0970 49544D5F 		.ascii	"ITM_RxBuffer\000"
 4518      52784275 
 4518      66666572 
 4518      00
 4519              	.LASF17:
 4520 097d 74726566 		.ascii	"trefs_t\000"
 4520      735F7400 
 4521              	.LASF160:
 4522 0985 4F54475F 		.ascii	"OTG_HS_EP1_OUT_IRQn\000"
 4522      48535F45 
 4522      50315F4F 
 4522      55545F49 
 4522      52516E00 
 4523              	.LASF89:
 4524 0999 5254435F 		.ascii	"RTC_WKUP_IRQn\000"
 4524      574B5550 
 4524      5F495251 
 4524      6E00
 4525              	.LASF54:
 4526 09a7 4576656E 		.ascii	"EventListener\000"
 4526      744C6973 
 4526      74656E65 
 4526      7200
ARM GAS  /tmp/ccJH0Mxb.s 			page 89


 4527              	.LASF232:
 4528 09b5 6E766963 		.ascii	"nvicEnableVector\000"
 4528      456E6162 
 4528      6C655665 
 4528      63746F72 
 4528      00
 4529              	.LASF10:
 4530 09c6 75696E74 		.ascii	"uint32_t\000"
 4530      33325F74 
 4530      00
 4531              	.LASF107:
 4532 09cf 43414E31 		.ascii	"CAN1_RX1_IRQn\000"
 4532      5F525831 
 4532      5F495251 
 4532      6E00
 4533              	.LASF44:
 4534 09dd 54687265 		.ascii	"ThreadsQueue\000"
 4534      61647351 
 4534      75657565 
 4534      00
 4535              	.LASF109:
 4536 09ea 45585449 		.ascii	"EXTI9_5_IRQn\000"
 4536      395F355F 
 4536      4952516E 
 4536      00
 4537              	.LASF195:
 4538 09f7 504C4C53 		.ascii	"PLLSAICFGR\000"
 4538      41494346 
 4538      475200
 4539              	.LASF61:
 4540 0a02 7264796D 		.ascii	"rdymsg\000"
 4540      736700
 4541              	.LASF96:
 4542 0a09 45585449 		.ascii	"EXTI4_IRQn\000"
 4542      345F4952 
 4542      516E00
 4543              	.LASF7:
 4544 0a14 73686F72 		.ascii	"short unsigned int\000"
 4544      7420756E 
 4544      7369676E 
 4544      65642069 
 4544      6E7400
 4545              	.LASF227:
 4546 0a27 73645F6C 		.ascii	"sd_lld_stop\000"
 4546      6C645F73 
 4546      746F7000 
 4547              	.LASF132:
 4548 0a33 54494D38 		.ascii	"TIM8_CC_IRQn\000"
 4548      5F43435F 
 4548      4952516E 
 4548      00
 4549              	.LASF135:
 4550 0a40 5344494F 		.ascii	"SDIO_IRQn\000"
 4550      5F495251 
 4550      6E00
 4551              	.LASF76:
 4552 0a4a 496E7075 		.ascii	"InputQueue\000"
ARM GAS  /tmp/ccJH0Mxb.s 			page 90


 4552      74517565 
 4552      756500
 4553              	.LASF95:
 4554 0a55 45585449 		.ascii	"EXTI3_IRQn\000"
 4554      335F4952 
 4554      516E00
 4555              	.LASF84:
 4556 0a60 50656E64 		.ascii	"PendSV_IRQn\000"
 4556      53565F49 
 4556      52516E00 
 4557              	.LASF161:
 4558 0a6c 4F54475F 		.ascii	"OTG_HS_EP1_IN_IRQn\000"
 4558      48535F45 
 4558      50315F49 
 4558      4E5F4952 
 4558      516E00
 4559              	.LASF133:
 4560 0a7f 444D4131 		.ascii	"DMA1_Stream7_IRQn\000"
 4560      5F537472 
 4560      65616D37 
 4560      5F495251 
 4560      6E00
 4561              	.LASF170:
 4562 0a91 41484231 		.ascii	"AHB1RSTR\000"
 4562      52535452 
 4562      00
 4563              	.LASF201:
 4564 0a9a 53445F53 		.ascii	"SD_STOP\000"
 4564      544F5000 
 4565              	.LASF57:
 4566 0aa2 656C5F6D 		.ascii	"el_mask\000"
 4566      61736B00 
 4567              	.LASF31:
 4568 0aaa 705F6E61 		.ascii	"p_name\000"
 4568      6D6500
 4569              	.LASF53:
 4570 0ab1 6D5F6E65 		.ascii	"m_next\000"
 4570      787400
 4571              	.LASF179:
 4572 0ab8 41484233 		.ascii	"AHB3ENR\000"
 4572      454E5200 
 4573              	.LASF144:
 4574 0ac0 444D4132 		.ascii	"DMA2_Stream2_IRQn\000"
 4574      5F537472 
 4574      65616D32 
 4574      5F495251 
 4574      6E00
 4575              	.LASF39:
 4576 0ad2 705F6D73 		.ascii	"p_msg\000"
 4576      6700
 4577              	.LASF56:
 4578 0ad8 656C5F6C 		.ascii	"el_listener\000"
 4578      69737465 
 4578      6E657200 
 4579              	.LASF32:
 4580 0ae4 705F7374 		.ascii	"p_state\000"
 4580      61746500 
ARM GAS  /tmp/ccJH0Mxb.s 			page 91


 4581              		.ident	"GCC: (crosstool-NG 1.17.0 - PSAS ST32F4 GFE) 4.7.2"
ARM GAS  /tmp/ccJH0Mxb.s 			page 92


DEFINED SYMBOLS
                            *ABS*:0000000000000000 serial_lld.c
     /tmp/ccJH0Mxb.s:21     .text.notify2:0000000000000000 $t
     /tmp/ccJH0Mxb.s:26     .text.notify2:0000000000000000 notify2
     /tmp/ccJH0Mxb.s:47     .text.VectorD8:0000000000000000 $t
     /tmp/ccJH0Mxb.s:53     .text.VectorD8:0000000000000000 VectorD8
     /tmp/ccJH0Mxb.s:333    .text.VectorD8:0000000000000114 $d
     /tmp/ccJH0Mxb.s:343    .text.sd_lld_init:0000000000000000 $t
     /tmp/ccJH0Mxb.s:349    .text.sd_lld_init:0000000000000000 sd_lld_init
     /tmp/ccJH0Mxb.s:582    .bss.SD2:0000000000000000 .LANCHOR0
     /tmp/ccJH0Mxb.s:378    .text.sd_lld_start:0000000000000000 $t
     /tmp/ccJH0Mxb.s:384    .text.sd_lld_start:0000000000000000 sd_lld_start
     /tmp/ccJH0Mxb.s:501    .text.sd_lld_start:0000000000000094 $d
     /tmp/ccJH0Mxb.s:507    .text.sd_lld_stop:0000000000000000 $t
     /tmp/ccJH0Mxb.s:513    .text.sd_lld_stop:0000000000000000 sd_lld_stop
     /tmp/ccJH0Mxb.s:564    .text.sd_lld_stop:0000000000000030 $d
     /tmp/ccJH0Mxb.s:585    .bss.SD2:0000000000000000 SD2
     /tmp/ccJH0Mxb.s:570    .rodata.default_config:0000000000000000 $d
     /tmp/ccJH0Mxb.s:574    .rodata.default_config:0000000000000000 default_config
     /tmp/ccJH0Mxb.s:581    .bss.SD2:0000000000000000 $d
                     .debug_frame:0000000000000010 $d
     /tmp/ccJH0Mxb.s:506    .text.sd_lld_start:000000000000009c $t
     /tmp/ccJH0Mxb.s:569    .text.sd_lld_stop:0000000000000034 $t

UNDEFINED SYMBOLS
sdIncomingDataI
chEvtBroadcastFlagsI
_port_irq_epilogue
chOQGetI
sdObjectInit
nvicEnableVector
nvicDisableVector
