ARM GAS  /tmp/ccF3FAvY.s 			page 1


   1              		.syntax unified
   2              		.cpu cortex-m4
   3              		.eabi_attribute 27, 3
   4              		.eabi_attribute 28, 1
   5              		.fpu fpv4-sp-d16
   6              		.eabi_attribute 20, 1
   7              		.eabi_attribute 21, 1
   8              		.eabi_attribute 23, 3
   9              		.eabi_attribute 24, 1
  10              		.eabi_attribute 25, 1
  11              		.eabi_attribute 26, 1
  12              		.eabi_attribute 30, 2
  13              		.eabi_attribute 34, 1
  14              		.eabi_attribute 18, 4
  15              		.thumb
  16              		.file	"spi.c"
  17              		.text
  18              	.Ltext0:
  19              		.cfi_sections	.debug_frame
  20              		.section	.text.spiInit,"ax",%progbits
  21              		.align	2
  22              		.p2align 4,,15
  23              		.global	spiInit
  24              		.thumb
  25              		.thumb_func
  26              		.type	spiInit, %function
  27              	spiInit:
  28              	.LFB118:
  29              		.file 1 "/home/wicker/tools/ChibiOS_2.6.3/os/hal/src/spi.c"
  30              		.loc 1 68 0
  31              		.cfi_startproc
  32              		@ args = 0, pretend = 0, frame = 0
  33              		@ frame_needed = 0, uses_anonymous_args = 0
  34              		@ link register save eliminated.
  35              		.loc 1 71 0
  36              		.loc 1 70 0
  37 0000 FFF7FEBF 		b	spi_lld_init
  38              	.LVL0:
  39              		.cfi_endproc
  40              	.LFE118:
  41              		.size	spiInit, .-spiInit
  42 0004 AFF30080 		.section	.text.spiObjectInit,"ax",%progbits
  42      AFF30080 
  42      AFF30080 
  43              		.align	2
  44              		.p2align 4,,15
  45              		.global	spiObjectInit
  46              		.thumb
  47              		.thumb_func
  48              		.type	spiObjectInit, %function
  49              	spiObjectInit:
  50              	.LFB119:
  51              		.loc 1 80 0
  52              		.cfi_startproc
  53              		@ args = 0, pretend = 0, frame = 0
  54              		@ frame_needed = 0, uses_anonymous_args = 0
  55              		@ link register save eliminated.
ARM GAS  /tmp/ccF3FAvY.s 			page 2


  56              	.LVL1:
  57              		.loc 1 83 0
  58 0000 0023     		movs	r3, #0
  59              		.loc 1 82 0
  60 0002 0122     		movs	r2, #1
  61 0004 0270     		strb	r2, [r0, #0]
  62              		.loc 1 83 0
  63 0006 4360     		str	r3, [r0, #4]
  64              		.loc 1 85 0
  65 0008 8360     		str	r3, [r0, #8]
  66              		.loc 1 89 0
  67 000a 0C30     		adds	r0, r0, #12
  68              	.LVL2:
  69              		.loc 1 97 0
  70              		.loc 1 89 0
  71 000c FFF7FEBF 		b	chMtxInit
  72              	.LVL3:
  73              		.cfi_endproc
  74              	.LFE119:
  75              		.size	spiObjectInit, .-spiObjectInit
  76              		.section	.text.spiStart,"ax",%progbits
  77              		.align	2
  78              		.p2align 4,,15
  79              		.global	spiStart
  80              		.thumb
  81              		.thumb_func
  82              		.type	spiStart, %function
  83              	spiStart:
  84              	.LFB120:
  85              		.loc 1 107 0
  86              		.cfi_startproc
  87              		@ args = 0, pretend = 0, frame = 0
  88              		@ frame_needed = 0, uses_anonymous_args = 0
  89              	.LVL4:
  90 0000 10B5     		push	{r4, lr}
  91              	.LCFI0:
  92              		.cfi_def_cfa_offset 8
  93              		.cfi_offset 4, -8
  94              		.cfi_offset 14, -4
  95              	.LBB2:
  96              		.loc 1 111 0
  97 0002 2023     		movs	r3, #32
  98              	.LVL5:
  99              	.LBE2:
 100              		.loc 1 107 0
 101 0004 0446     		mov	r4, r0
 102              	.LBB3:
 103              		.loc 1 111 0
 104              	@ 111 "/home/wicker/tools/ChibiOS_2.6.3/os/hal/src/spi.c" 1
 105 0006 83F31188 		msr     BASEPRI, r3
 106              	@ 0 "" 2
 107              	.LVL6:
 108              		.thumb
 109              	.LBE3:
 110              		.loc 1 114 0
 111 000a 4160     		str	r1, [r0, #4]
 112              		.loc 1 115 0
ARM GAS  /tmp/ccF3FAvY.s 			page 3


 113 000c FFF7FEFF 		bl	spi_lld_start
 114              	.LVL7:
 115              		.loc 1 116 0
 116 0010 0223     		movs	r3, #2
 117 0012 2370     		strb	r3, [r4, #0]
 118              	.LBB4:
 119              		.loc 1 117 0
 120 0014 0023     		movs	r3, #0
 121              	.LVL8:
 122              	@ 117 "/home/wicker/tools/ChibiOS_2.6.3/os/hal/src/spi.c" 1
 123 0016 83F31188 		msr     BASEPRI, r3
 124              	@ 0 "" 2
 125              	.LVL9:
 126              		.thumb
 127 001a 10BD     		pop	{r4, pc}
 128              	.LBE4:
 129              		.cfi_endproc
 130              	.LFE120:
 131              		.size	spiStart, .-spiStart
 132 001c AFF30080 		.section	.text.spiStop,"ax",%progbits
 133              		.align	2
 134              		.p2align 4,,15
 135              		.global	spiStop
 136              		.thumb
 137              		.thumb_func
 138              		.type	spiStop, %function
 139              	spiStop:
 140              	.LFB121:
 141              		.loc 1 129 0
 142              		.cfi_startproc
 143              		@ args = 0, pretend = 0, frame = 0
 144              		@ frame_needed = 0, uses_anonymous_args = 0
 145              	.LVL10:
 146 0000 10B5     		push	{r4, lr}
 147              	.LCFI1:
 148              		.cfi_def_cfa_offset 8
 149              		.cfi_offset 4, -8
 150              		.cfi_offset 14, -4
 151              	.LBB5:
 152              		.loc 1 133 0
 153 0002 2023     		movs	r3, #32
 154              	.LVL11:
 155              	.LBE5:
 156              		.loc 1 129 0
 157 0004 0446     		mov	r4, r0
 158              	.LBB6:
 159              		.loc 1 133 0
 160              	@ 133 "/home/wicker/tools/ChibiOS_2.6.3/os/hal/src/spi.c" 1
 161 0006 83F31188 		msr     BASEPRI, r3
 162              	@ 0 "" 2
 163              	.LVL12:
 164              		.thumb
 165              	.LBE6:
 166              		.loc 1 136 0
 167 000a FFF7FEFF 		bl	spi_lld_unselect
 168              	.LVL13:
 169              		.loc 1 137 0
ARM GAS  /tmp/ccF3FAvY.s 			page 4


 170 000e 2046     		mov	r0, r4
 171 0010 FFF7FEFF 		bl	spi_lld_stop
 172              	.LVL14:
 173              		.loc 1 138 0
 174 0014 0123     		movs	r3, #1
 175 0016 2370     		strb	r3, [r4, #0]
 176              	.LBB7:
 177              		.loc 1 139 0
 178 0018 0023     		movs	r3, #0
 179              	.LVL15:
 180              	@ 139 "/home/wicker/tools/ChibiOS_2.6.3/os/hal/src/spi.c" 1
 181 001a 83F31188 		msr     BASEPRI, r3
 182              	@ 0 "" 2
 183              	.LVL16:
 184              		.thumb
 185 001e 10BD     		pop	{r4, pc}
 186              	.LBE7:
 187              		.cfi_endproc
 188              	.LFE121:
 189              		.size	spiStop, .-spiStop
 190              		.section	.text.spiSelect,"ax",%progbits
 191              		.align	2
 192              		.p2align 4,,15
 193              		.global	spiSelect
 194              		.thumb
 195              		.thumb_func
 196              		.type	spiSelect, %function
 197              	spiSelect:
 198              	.LFB122:
 199              		.loc 1 149 0
 200              		.cfi_startproc
 201              		@ args = 0, pretend = 0, frame = 0
 202              		@ frame_needed = 0, uses_anonymous_args = 0
 203              	.LVL17:
 204 0000 08B5     		push	{r3, lr}
 205              	.LCFI2:
 206              		.cfi_def_cfa_offset 8
 207              		.cfi_offset 3, -8
 208              		.cfi_offset 14, -4
 209              	.LBB8:
 210              		.loc 1 153 0
 211 0002 2023     		movs	r3, #32
 212              	.LVL18:
 213              	@ 153 "/home/wicker/tools/ChibiOS_2.6.3/os/hal/src/spi.c" 1
 214 0004 83F31188 		msr     BASEPRI, r3
 215              	@ 0 "" 2
 216              	.LVL19:
 217              		.thumb
 218              	.LBE8:
 219              		.loc 1 155 0
 220 0008 FFF7FEFF 		bl	spi_lld_select
 221              	.LVL20:
 222              	.LBB9:
 223              		.loc 1 156 0
 224 000c 0023     		movs	r3, #0
 225              	.LVL21:
 226              	@ 156 "/home/wicker/tools/ChibiOS_2.6.3/os/hal/src/spi.c" 1
ARM GAS  /tmp/ccF3FAvY.s 			page 5


 227 000e 83F31188 		msr     BASEPRI, r3
 228              	@ 0 "" 2
 229              	.LVL22:
 230              		.thumb
 231 0012 08BD     		pop	{r3, pc}
 232              	.LBE9:
 233              		.cfi_endproc
 234              	.LFE122:
 235              		.size	spiSelect, .-spiSelect
 236 0014 AFF30080 		.section	.text.spiUnselect,"ax",%progbits
 236      AFF30080 
 236      AFF30080 
 237              		.align	2
 238              		.p2align 4,,15
 239              		.global	spiUnselect
 240              		.thumb
 241              		.thumb_func
 242              		.type	spiUnselect, %function
 243              	spiUnselect:
 244              	.LFB123:
 245              		.loc 1 167 0
 246              		.cfi_startproc
 247              		@ args = 0, pretend = 0, frame = 0
 248              		@ frame_needed = 0, uses_anonymous_args = 0
 249              	.LVL23:
 250 0000 08B5     		push	{r3, lr}
 251              	.LCFI3:
 252              		.cfi_def_cfa_offset 8
 253              		.cfi_offset 3, -8
 254              		.cfi_offset 14, -4
 255              	.LBB10:
 256              		.loc 1 171 0
 257 0002 2023     		movs	r3, #32
 258              	.LVL24:
 259              	@ 171 "/home/wicker/tools/ChibiOS_2.6.3/os/hal/src/spi.c" 1
 260 0004 83F31188 		msr     BASEPRI, r3
 261              	@ 0 "" 2
 262              	.LVL25:
 263              		.thumb
 264              	.LBE10:
 265              		.loc 1 173 0
 266 0008 FFF7FEFF 		bl	spi_lld_unselect
 267              	.LVL26:
 268              	.LBB11:
 269              		.loc 1 174 0
 270 000c 0023     		movs	r3, #0
 271              	.LVL27:
 272              	@ 174 "/home/wicker/tools/ChibiOS_2.6.3/os/hal/src/spi.c" 1
 273 000e 83F31188 		msr     BASEPRI, r3
 274              	@ 0 "" 2
 275              	.LVL28:
 276              		.thumb
 277 0012 08BD     		pop	{r3, pc}
 278              	.LBE11:
 279              		.cfi_endproc
 280              	.LFE123:
 281              		.size	spiUnselect, .-spiUnselect
ARM GAS  /tmp/ccF3FAvY.s 			page 6


 282 0014 AFF30080 		.section	.text.spiStartIgnore,"ax",%progbits
 282      AFF30080 
 282      AFF30080 
 283              		.align	2
 284              		.p2align 4,,15
 285              		.global	spiStartIgnore
 286              		.thumb
 287              		.thumb_func
 288              		.type	spiStartIgnore, %function
 289              	spiStartIgnore:
 290              	.LFB124:
 291              		.loc 1 190 0
 292              		.cfi_startproc
 293              		@ args = 0, pretend = 0, frame = 0
 294              		@ frame_needed = 0, uses_anonymous_args = 0
 295              	.LVL29:
 296 0000 08B5     		push	{r3, lr}
 297              	.LCFI4:
 298              		.cfi_def_cfa_offset 8
 299              		.cfi_offset 3, -8
 300              		.cfi_offset 14, -4
 301              	.LBB12:
 302              		.loc 1 194 0
 303 0002 2023     		movs	r3, #32
 304              	.LVL30:
 305              	@ 194 "/home/wicker/tools/ChibiOS_2.6.3/os/hal/src/spi.c" 1
 306 0004 83F31188 		msr     BASEPRI, r3
 307              	@ 0 "" 2
 308              	.LVL31:
 309              		.thumb
 310              	.LBE12:
 311              		.loc 1 196 0
 312 0008 0323     		movs	r3, #3
 313              	.LVL32:
 314 000a 0370     		strb	r3, [r0, #0]
 315 000c FFF7FEFF 		bl	spi_lld_ignore
 316              	.LVL33:
 317              	.LBB13:
 318              		.loc 1 197 0
 319 0010 0023     		movs	r3, #0
 320              	.LVL34:
 321              	@ 197 "/home/wicker/tools/ChibiOS_2.6.3/os/hal/src/spi.c" 1
 322 0012 83F31188 		msr     BASEPRI, r3
 323              	@ 0 "" 2
 324              	.LVL35:
 325              		.thumb
 326 0016 08BD     		pop	{r3, pc}
 327              	.LBE13:
 328              		.cfi_endproc
 329              	.LFE124:
 330              		.size	spiStartIgnore, .-spiStartIgnore
 331 0018 AFF30080 		.section	.text.spiStartExchange,"ax",%progbits
 331      AFF30080 
 332              		.align	2
 333              		.p2align 4,,15
 334              		.global	spiStartExchange
 335              		.thumb
ARM GAS  /tmp/ccF3FAvY.s 			page 7


 336              		.thumb_func
 337              		.type	spiStartExchange, %function
 338              	spiStartExchange:
 339              	.LFB125:
 340              		.loc 1 218 0
 341              		.cfi_startproc
 342              		@ args = 0, pretend = 0, frame = 0
 343              		@ frame_needed = 0, uses_anonymous_args = 0
 344              	.LVL36:
 345 0000 38B5     		push	{r3, r4, r5, lr}
 346              	.LCFI5:
 347              		.cfi_def_cfa_offset 16
 348              		.cfi_offset 3, -16
 349              		.cfi_offset 4, -12
 350              		.cfi_offset 5, -8
 351              		.cfi_offset 14, -4
 352              		.loc 1 218 0
 353 0002 1D46     		mov	r5, r3
 354 0004 0446     		mov	r4, r0
 355              	.LBB14:
 356              		.loc 1 223 0
 357 0006 2023     		movs	r3, #32
 358              	.LVL37:
 359              	@ 223 "/home/wicker/tools/ChibiOS_2.6.3/os/hal/src/spi.c" 1
 360 0008 83F31188 		msr     BASEPRI, r3
 361              	@ 0 "" 2
 362              	.LVL38:
 363              		.thumb
 364              	.LBE14:
 365              		.loc 1 225 0
 366 000c 2B46     		mov	r3, r5
 367              	.LVL39:
 368 000e 0325     		movs	r5, #3
 369              	.LVL40:
 370 0010 0570     		strb	r5, [r0, #0]
 371 0012 FFF7FEFF 		bl	spi_lld_exchange
 372              	.LVL41:
 373              	.LBB15:
 374              		.loc 1 226 0
 375 0016 0023     		movs	r3, #0
 376              	.LVL42:
 377              	@ 226 "/home/wicker/tools/ChibiOS_2.6.3/os/hal/src/spi.c" 1
 378 0018 83F31188 		msr     BASEPRI, r3
 379              	@ 0 "" 2
 380              	.LVL43:
 381              		.thumb
 382 001c 38BD     		pop	{r3, r4, r5, pc}
 383              	.LBE15:
 384              		.cfi_endproc
 385              	.LFE125:
 386              		.size	spiStartExchange, .-spiStartExchange
 387 001e 00BF     		.section	.text.spiStartSend,"ax",%progbits
 388              		.align	2
 389              		.p2align 4,,15
 390              		.global	spiStartSend
 391              		.thumb
 392              		.thumb_func
ARM GAS  /tmp/ccF3FAvY.s 			page 8


 393              		.type	spiStartSend, %function
 394              	spiStartSend:
 395              	.LFB126:
 396              		.loc 1 244 0
 397              		.cfi_startproc
 398              		@ args = 0, pretend = 0, frame = 0
 399              		@ frame_needed = 0, uses_anonymous_args = 0
 400              	.LVL44:
 401 0000 10B5     		push	{r4, lr}
 402              	.LCFI6:
 403              		.cfi_def_cfa_offset 8
 404              		.cfi_offset 4, -8
 405              		.cfi_offset 14, -4
 406              	.LBB16:
 407              		.loc 1 249 0
 408 0002 2023     		movs	r3, #32
 409              	.LVL45:
 410              	.LBE16:
 411              		.loc 1 244 0
 412 0004 0446     		mov	r4, r0
 413              	.LBB17:
 414              		.loc 1 249 0
 415              	@ 249 "/home/wicker/tools/ChibiOS_2.6.3/os/hal/src/spi.c" 1
 416 0006 83F31188 		msr     BASEPRI, r3
 417              	@ 0 "" 2
 418              	.LVL46:
 419              		.thumb
 420              	.LBE17:
 421              		.loc 1 251 0
 422 000a 0323     		movs	r3, #3
 423              	.LVL47:
 424 000c 0370     		strb	r3, [r0, #0]
 425 000e FFF7FEFF 		bl	spi_lld_send
 426              	.LVL48:
 427              	.LBB18:
 428              		.loc 1 252 0
 429 0012 0023     		movs	r3, #0
 430              	.LVL49:
 431              	@ 252 "/home/wicker/tools/ChibiOS_2.6.3/os/hal/src/spi.c" 1
 432 0014 83F31188 		msr     BASEPRI, r3
 433              	@ 0 "" 2
 434              	.LVL50:
 435              		.thumb
 436 0018 10BD     		pop	{r4, pc}
 437              	.LBE18:
 438              		.cfi_endproc
 439              	.LFE126:
 440              		.size	spiStartSend, .-spiStartSend
 441 001a 00BFAFF3 		.section	.text.spiStartReceive,"ax",%progbits
 441      0080
 442              		.align	2
 443              		.p2align 4,,15
 444              		.global	spiStartReceive
 445              		.thumb
 446              		.thumb_func
 447              		.type	spiStartReceive, %function
 448              	spiStartReceive:
ARM GAS  /tmp/ccF3FAvY.s 			page 9


 449              	.LFB127:
 450              		.loc 1 270 0
 451              		.cfi_startproc
 452              		@ args = 0, pretend = 0, frame = 0
 453              		@ frame_needed = 0, uses_anonymous_args = 0
 454              	.LVL51:
 455 0000 10B5     		push	{r4, lr}
 456              	.LCFI7:
 457              		.cfi_def_cfa_offset 8
 458              		.cfi_offset 4, -8
 459              		.cfi_offset 14, -4
 460              	.LBB19:
 461              		.loc 1 275 0
 462 0002 2023     		movs	r3, #32
 463              	.LVL52:
 464              	.LBE19:
 465              		.loc 1 270 0
 466 0004 0446     		mov	r4, r0
 467              	.LBB20:
 468              		.loc 1 275 0
 469              	@ 275 "/home/wicker/tools/ChibiOS_2.6.3/os/hal/src/spi.c" 1
 470 0006 83F31188 		msr     BASEPRI, r3
 471              	@ 0 "" 2
 472              	.LVL53:
 473              		.thumb
 474              	.LBE20:
 475              		.loc 1 277 0
 476 000a 0323     		movs	r3, #3
 477              	.LVL54:
 478 000c 0370     		strb	r3, [r0, #0]
 479 000e FFF7FEFF 		bl	spi_lld_receive
 480              	.LVL55:
 481              	.LBB21:
 482              		.loc 1 278 0
 483 0012 0023     		movs	r3, #0
 484              	.LVL56:
 485              	@ 278 "/home/wicker/tools/ChibiOS_2.6.3/os/hal/src/spi.c" 1
 486 0014 83F31188 		msr     BASEPRI, r3
 487              	@ 0 "" 2
 488              	.LVL57:
 489              		.thumb
 490 0018 10BD     		pop	{r4, pc}
 491              	.LBE21:
 492              		.cfi_endproc
 493              	.LFE127:
 494              		.size	spiStartReceive, .-spiStartReceive
 495 001a 00BFAFF3 		.section	.text.spiIgnore,"ax",%progbits
 495      0080
 496              		.align	2
 497              		.p2align 4,,15
 498              		.global	spiIgnore
 499              		.thumb
 500              		.thumb_func
 501              		.type	spiIgnore, %function
 502              	spiIgnore:
 503              	.LFB128:
 504              		.loc 1 296 0
ARM GAS  /tmp/ccF3FAvY.s 			page 10


 505              		.cfi_startproc
 506              		@ args = 0, pretend = 0, frame = 0
 507              		@ frame_needed = 0, uses_anonymous_args = 0
 508              	.LVL58:
 509 0000 10B5     		push	{r4, lr}
 510              	.LCFI8:
 511              		.cfi_def_cfa_offset 8
 512              		.cfi_offset 4, -8
 513              		.cfi_offset 14, -4
 514              	.LBB22:
 515              		.loc 1 300 0
 516 0002 2023     		movs	r3, #32
 517              	.LVL59:
 518              	.LBE22:
 519              		.loc 1 296 0
 520 0004 0446     		mov	r4, r0
 521              	.LBB23:
 522              		.loc 1 300 0
 523              	@ 300 "/home/wicker/tools/ChibiOS_2.6.3/os/hal/src/spi.c" 1
 524 0006 83F31188 		msr     BASEPRI, r3
 525              	@ 0 "" 2
 526              	.LVL60:
 527              		.thumb
 528              	.LBE23:
 529              		.loc 1 303 0
 530 000a 0323     		movs	r3, #3
 531              	.LVL61:
 532 000c 0370     		strb	r3, [r0, #0]
 533 000e FFF7FEFF 		bl	spi_lld_ignore
 534              	.LVL62:
 535              		.loc 1 304 0
 536 0012 40F20003 		movw	r3, #:lower16:rlist
 537 0016 C0F20003 		movt	r3, #:upper16:rlist
 538 001a 0220     		movs	r0, #2
 539 001c 9B69     		ldr	r3, [r3, #24]
 540 001e A360     		str	r3, [r4, #8]
 541 0020 FFF7FEFF 		bl	chSchGoSleepS
 542              	.LVL63:
 543              	.LBB24:
 544              		.loc 1 305 0
 545 0024 0023     		movs	r3, #0
 546              	.LVL64:
 547              	@ 305 "/home/wicker/tools/ChibiOS_2.6.3/os/hal/src/spi.c" 1
 548 0026 83F31188 		msr     BASEPRI, r3
 549              	@ 0 "" 2
 550              	.LVL65:
 551              		.thumb
 552 002a 10BD     		pop	{r4, pc}
 553              	.LBE24:
 554              		.cfi_endproc
 555              	.LFE128:
 556              		.size	spiIgnore, .-spiIgnore
 557 002c AFF30080 		.section	.text.spiExchange,"ax",%progbits
 558              		.align	2
 559              		.p2align 4,,15
 560              		.global	spiExchange
 561              		.thumb
ARM GAS  /tmp/ccF3FAvY.s 			page 11


 562              		.thumb_func
 563              		.type	spiExchange, %function
 564              	spiExchange:
 565              	.LFB129:
 566              		.loc 1 327 0
 567              		.cfi_startproc
 568              		@ args = 0, pretend = 0, frame = 0
 569              		@ frame_needed = 0, uses_anonymous_args = 0
 570              	.LVL66:
 571 0000 38B5     		push	{r3, r4, r5, lr}
 572              	.LCFI9:
 573              		.cfi_def_cfa_offset 16
 574              		.cfi_offset 3, -16
 575              		.cfi_offset 4, -12
 576              		.cfi_offset 5, -8
 577              		.cfi_offset 14, -4
 578              		.loc 1 327 0
 579 0002 1D46     		mov	r5, r3
 580 0004 0446     		mov	r4, r0
 581              	.LBB25:
 582              		.loc 1 332 0
 583 0006 2023     		movs	r3, #32
 584              	.LVL67:
 585              	@ 332 "/home/wicker/tools/ChibiOS_2.6.3/os/hal/src/spi.c" 1
 586 0008 83F31188 		msr     BASEPRI, r3
 587              	@ 0 "" 2
 588              	.LVL68:
 589              		.thumb
 590              	.LBE25:
 591              		.loc 1 336 0
 592 000c 2B46     		mov	r3, r5
 593              	.LVL69:
 594 000e 0325     		movs	r5, #3
 595              	.LVL70:
 596 0010 0570     		strb	r5, [r0, #0]
 597 0012 FFF7FEFF 		bl	spi_lld_exchange
 598              	.LVL71:
 599              		.loc 1 337 0
 600 0016 40F20003 		movw	r3, #:lower16:rlist
 601 001a C0F20003 		movt	r3, #:upper16:rlist
 602 001e 0220     		movs	r0, #2
 603 0020 9B69     		ldr	r3, [r3, #24]
 604 0022 A360     		str	r3, [r4, #8]
 605 0024 FFF7FEFF 		bl	chSchGoSleepS
 606              	.LVL72:
 607              	.LBB26:
 608              		.loc 1 338 0
 609 0028 0023     		movs	r3, #0
 610              	.LVL73:
 611              	@ 338 "/home/wicker/tools/ChibiOS_2.6.3/os/hal/src/spi.c" 1
 612 002a 83F31188 		msr     BASEPRI, r3
 613              	@ 0 "" 2
 614              	.LVL74:
 615              		.thumb
 616 002e 38BD     		pop	{r3, r4, r5, pc}
 617              	.LBE26:
 618              		.cfi_endproc
ARM GAS  /tmp/ccF3FAvY.s 			page 12


 619              	.LFE129:
 620              		.size	spiExchange, .-spiExchange
 621              		.section	.text.spiSend,"ax",%progbits
 622              		.align	2
 623              		.p2align 4,,15
 624              		.global	spiSend
 625              		.thumb
 626              		.thumb_func
 627              		.type	spiSend, %function
 628              	spiSend:
 629              	.LFB130:
 630              		.loc 1 357 0
 631              		.cfi_startproc
 632              		@ args = 0, pretend = 0, frame = 0
 633              		@ frame_needed = 0, uses_anonymous_args = 0
 634              	.LVL75:
 635 0000 10B5     		push	{r4, lr}
 636              	.LCFI10:
 637              		.cfi_def_cfa_offset 8
 638              		.cfi_offset 4, -8
 639              		.cfi_offset 14, -4
 640              	.LBB27:
 641              		.loc 1 361 0
 642 0002 2023     		movs	r3, #32
 643              	.LVL76:
 644              	.LBE27:
 645              		.loc 1 357 0
 646 0004 0446     		mov	r4, r0
 647              	.LBB28:
 648              		.loc 1 361 0
 649              	@ 361 "/home/wicker/tools/ChibiOS_2.6.3/os/hal/src/spi.c" 1
 650 0006 83F31188 		msr     BASEPRI, r3
 651              	@ 0 "" 2
 652              	.LVL77:
 653              		.thumb
 654              	.LBE28:
 655              		.loc 1 364 0
 656 000a 0323     		movs	r3, #3
 657              	.LVL78:
 658 000c 0370     		strb	r3, [r0, #0]
 659 000e FFF7FEFF 		bl	spi_lld_send
 660              	.LVL79:
 661              		.loc 1 365 0
 662 0012 40F20003 		movw	r3, #:lower16:rlist
 663 0016 C0F20003 		movt	r3, #:upper16:rlist
 664 001a 0220     		movs	r0, #2
 665 001c 9B69     		ldr	r3, [r3, #24]
 666 001e A360     		str	r3, [r4, #8]
 667 0020 FFF7FEFF 		bl	chSchGoSleepS
 668              	.LVL80:
 669              	.LBB29:
 670              		.loc 1 366 0
 671 0024 0023     		movs	r3, #0
 672              	.LVL81:
 673              	@ 366 "/home/wicker/tools/ChibiOS_2.6.3/os/hal/src/spi.c" 1
 674 0026 83F31188 		msr     BASEPRI, r3
 675              	@ 0 "" 2
ARM GAS  /tmp/ccF3FAvY.s 			page 13


 676              	.LVL82:
 677              		.thumb
 678 002a 10BD     		pop	{r4, pc}
 679              	.LBE29:
 680              		.cfi_endproc
 681              	.LFE130:
 682              		.size	spiSend, .-spiSend
 683 002c AFF30080 		.section	.text.spiReceive,"ax",%progbits
 684              		.align	2
 685              		.p2align 4,,15
 686              		.global	spiReceive
 687              		.thumb
 688              		.thumb_func
 689              		.type	spiReceive, %function
 690              	spiReceive:
 691              	.LFB131:
 692              		.loc 1 385 0
 693              		.cfi_startproc
 694              		@ args = 0, pretend = 0, frame = 0
 695              		@ frame_needed = 0, uses_anonymous_args = 0
 696              	.LVL83:
 697 0000 10B5     		push	{r4, lr}
 698              	.LCFI11:
 699              		.cfi_def_cfa_offset 8
 700              		.cfi_offset 4, -8
 701              		.cfi_offset 14, -4
 702              	.LBB30:
 703              		.loc 1 390 0
 704 0002 2023     		movs	r3, #32
 705              	.LVL84:
 706              	.LBE30:
 707              		.loc 1 385 0
 708 0004 0446     		mov	r4, r0
 709              	.LBB31:
 710              		.loc 1 390 0
 711              	@ 390 "/home/wicker/tools/ChibiOS_2.6.3/os/hal/src/spi.c" 1
 712 0006 83F31188 		msr     BASEPRI, r3
 713              	@ 0 "" 2
 714              	.LVL85:
 715              		.thumb
 716              	.LBE31:
 717              		.loc 1 394 0
 718 000a 0323     		movs	r3, #3
 719              	.LVL86:
 720 000c 0370     		strb	r3, [r0, #0]
 721 000e FFF7FEFF 		bl	spi_lld_receive
 722              	.LVL87:
 723              		.loc 1 395 0
 724 0012 40F20003 		movw	r3, #:lower16:rlist
 725 0016 C0F20003 		movt	r3, #:upper16:rlist
 726 001a 0220     		movs	r0, #2
 727 001c 9B69     		ldr	r3, [r3, #24]
 728 001e A360     		str	r3, [r4, #8]
 729 0020 FFF7FEFF 		bl	chSchGoSleepS
 730              	.LVL88:
 731              	.LBB32:
 732              		.loc 1 396 0
ARM GAS  /tmp/ccF3FAvY.s 			page 14


 733 0024 0023     		movs	r3, #0
 734              	.LVL89:
 735              	@ 396 "/home/wicker/tools/ChibiOS_2.6.3/os/hal/src/spi.c" 1
 736 0026 83F31188 		msr     BASEPRI, r3
 737              	@ 0 "" 2
 738              	.LVL90:
 739              		.thumb
 740 002a 10BD     		pop	{r4, pc}
 741              	.LBE32:
 742              		.cfi_endproc
 743              	.LFE131:
 744              		.size	spiReceive, .-spiReceive
 745 002c AFF30080 		.section	.text.spiAcquireBus,"ax",%progbits
 746              		.align	2
 747              		.p2align 4,,15
 748              		.global	spiAcquireBus
 749              		.thumb
 750              		.thumb_func
 751              		.type	spiAcquireBus, %function
 752              	spiAcquireBus:
 753              	.LFB132:
 754              		.loc 1 412 0
 755              		.cfi_startproc
 756              		@ args = 0, pretend = 0, frame = 0
 757              		@ frame_needed = 0, uses_anonymous_args = 0
 758              		@ link register save eliminated.
 759              	.LVL91:
 760              		.loc 1 417 0
 761 0000 0C30     		adds	r0, r0, #12
 762              	.LVL92:
 763              		.loc 1 421 0
 764              		.loc 1 417 0
 765 0002 FFF7FEBF 		b	chMtxLock
 766              	.LVL93:
 767              		.cfi_endproc
 768              	.LFE132:
 769              		.size	spiAcquireBus, .-spiAcquireBus
 770 0006 00BFAFF3 		.section	.text.spiReleaseBus,"ax",%progbits
 770      0080AFF3 
 770      0080
 771              		.align	2
 772              		.p2align 4,,15
 773              		.global	spiReleaseBus
 774              		.thumb
 775              		.thumb_func
 776              		.type	spiReleaseBus, %function
 777              	spiReleaseBus:
 778              	.LFB133:
 779              		.loc 1 432 0
 780              		.cfi_startproc
 781              		@ args = 0, pretend = 0, frame = 0
 782              		@ frame_needed = 0, uses_anonymous_args = 0
 783              		@ link register save eliminated.
 784              	.LVL94:
 785              		.loc 1 442 0
 786              		.loc 1 438 0
 787 0000 FFF7FEBF 		b	chMtxUnlock
ARM GAS  /tmp/ccF3FAvY.s 			page 15


 788              	.LVL95:
 789              		.cfi_endproc
 790              	.LFE133:
 791              		.size	spiReleaseBus, .-spiReleaseBus
 792 0004 AFF30080 		.text
 792      AFF30080 
 792      AFF30080 
 793              	.Letext0:
 794              		.file 2 "/opt/psas/x-tools/stm32f407/arm-psas-eabi/bin/../lib/gcc/arm-psas-eabi/4.7.2/include/stdd
 795              		.file 3 "/opt/psas/x-tools/stm32f407/arm-psas-eabi/bin/../lib/gcc/arm-psas-eabi/4.7.2/../../../../
 796              		.file 4 "/home/wicker/tools/ChibiOS_2.6.3/os/ports/GCC/ARMCMx/chtypes.h"
 797              		.file 5 "/home/wicker/tools/ChibiOS_2.6.3/os/kernel/include/chlists.h"
 798              		.file 6 "/home/wicker/tools/ChibiOS_2.6.3/os/kernel/include/chthreads.h"
 799              		.file 7 "/home/wicker/tools/ChibiOS_2.6.3/os/ports/GCC/ARMCMx/chcore_v7m.h"
 800              		.file 8 "/home/wicker/tools/ChibiOS_2.6.3/os/kernel/include/chschd.h"
 801              		.file 9 "/home/wicker/tools/ChibiOS_2.6.3/os/kernel/include/chmtx.h"
 802              		.file 10 "/home/wicker/tools/ChibiOS_2.6.3/os/hal/platforms/STM32F4xx/stm32f4xx.h"
 803              		.file 11 "/home/wicker/tools/ChibiOS_2.6.3/os/hal/platforms/STM32F4xx/stm32_dma.h"
 804              		.file 12 "/home/wicker/tools/ChibiOS_2.6.3/os/hal/platforms/STM32/GPIOv2/pal_lld.h"
 805              		.file 13 "/home/wicker/tools/ChibiOS_2.6.3/os/hal/include/spi.h"
 806              		.file 14 "/home/wicker/tools/ChibiOS_2.6.3/os/hal/platforms/STM32/SPIv1/spi_lld.h"
 807              		.file 15 "/home/wicker/tools/ChibiOS_2.6.3/os/ports/common/ARMCMx/CMSIS/include/core_cm4.h"