ARM GAS  /tmp/cc7cM8gv.s 			page 1


   1              		.syntax unified
   2              		.cpu cortex-m4
   3              		.eabi_attribute 27, 3
   4              		.eabi_attribute 28, 1
   5              		.fpu fpv4-sp-d16
   6              		.eabi_attribute 20, 1
   7              		.eabi_attribute 21, 1
   8              		.eabi_attribute 23, 3
   9              		.eabi_attribute 24, 1
  10              		.eabi_attribute 25, 1
  11              		.eabi_attribute 26, 1
  12              		.eabi_attribute 30, 2
  13              		.eabi_attribute 34, 1
  14              		.eabi_attribute 18, 4
  15              		.thumb
  16              		.file	"spi_lld.c"
  17              		.text
  18              	.Ltext0:
  19              		.cfi_sections	.debug_frame
  20              		.section	.text.spi_lld_serve_tx_interrupt,"ax",%progbits
  21              		.align	2
  22              		.p2align 4,,15
  23              		.thumb
  24              		.thumb_func
  25              		.type	spi_lld_serve_tx_interrupt, %function
  26              	spi_lld_serve_tx_interrupt:
  27              	.LFB119:
  28              		.file 1 "/home/wicker/tools/ChibiOS_2.6.3/os/hal/platforms/STM32/SPIv1/spi_lld.c"
  29              		.loc 1 159 0
  30              		.cfi_startproc
  31              		@ args = 0, pretend = 0, frame = 0
  32              		@ frame_needed = 0, uses_anonymous_args = 0
  33              		@ link register save eliminated.
  34              	.LVL0:
  35              		.loc 1 164 0
  36 0000 11F00C0F 		tst	r1, #12
  37 0004 00D1     		bne	.L4
  38 0006 7047     		bx	lr
  39              	.L4:
  40              		.loc 1 171 0
  41              		.loc 1 165 0
  42 0008 FFF7FEBF 		b	port_halt
  43              	.LVL1:
  44              		.cfi_endproc
  45              	.LFE119:
  46              		.size	spi_lld_serve_tx_interrupt, .-spi_lld_serve_tx_interrupt
  47 000c AFF30080 		.section	.text.spi_lld_serve_rx_interrupt,"ax",%progbits
  48              		.align	2
  49              		.p2align 4,,15
  50              		.thumb
  51              		.thumb_func
  52              		.type	spi_lld_serve_rx_interrupt, %function
  53              	spi_lld_serve_rx_interrupt:
  54              	.LFB118:
  55              		.loc 1 133 0
  56              		.cfi_startproc
  57              		@ args = 0, pretend = 0, frame = 0
ARM GAS  /tmp/cc7cM8gv.s 			page 2


  58              		@ frame_needed = 0, uses_anonymous_args = 0
  59              	.LVL2:
  60              		.loc 1 137 0
  61 0000 11F00C0F 		tst	r1, #12
  62              		.loc 1 133 0
  63 0004 38B5     		push	{r3, r4, r5, lr}
  64              	.LCFI0:
  65              		.cfi_def_cfa_offset 16
  66              		.cfi_offset 3, -16
  67              		.cfi_offset 4, -12
  68              		.cfi_offset 5, -8
  69              		.cfi_offset 14, -4
  70              		.loc 1 133 0
  71 0006 0446     		mov	r4, r0
  72              		.loc 1 137 0
  73 0008 39D1     		bne	.L20
  74              	.LVL3:
  75              	.L6:
  76              		.loc 1 145 0
  77 000a 606A     		ldr	r0, [r4, #36]
  78 000c 0268     		ldr	r2, [r0, #0]
  79 000e 1368     		ldr	r3, [r2, #0]
  80 0010 23F01F03 		bic	r3, r3, #31
  81 0014 1360     		str	r3, [r2, #0]
  82              	.L7:
  83              		.loc 1 145 0 is_stmt 0 discriminator 1
  84 0016 1368     		ldr	r3, [r2, #0]
  85 0018 D907     		lsls	r1, r3, #31
  86 001a FCD4     		bmi	.L7
  87              		.loc 1 145 0 discriminator 2
  88 001c 057A     		ldrb	r5, [r0, #8]	@ zero_extendqisi2
  89              		.loc 1 146 0 is_stmt 1 discriminator 2
  90 001e 216A     		ldr	r1, [r4, #32]
  91              		.loc 1 145 0 discriminator 2
  92 0020 4368     		ldr	r3, [r0, #4]
  93              		.loc 1 146 0 discriminator 2
  94 0022 0A68     		ldr	r2, [r1, #0]
  95              		.loc 1 145 0 discriminator 2
  96 0024 3D20     		movs	r0, #61
  97 0026 00FA05F0 		lsl	r0, r0, r5
  98 002a 1860     		str	r0, [r3, #0]
  99              		.loc 1 146 0 discriminator 2
 100 002c 1368     		ldr	r3, [r2, #0]
 101 002e 23F01F03 		bic	r3, r3, #31
 102 0032 1360     		str	r3, [r2, #0]
 103              	.L8:
 104              		.loc 1 146 0 is_stmt 0 discriminator 1
 105 0034 1368     		ldr	r3, [r2, #0]
 106 0036 DB07     		lsls	r3, r3, #31
 107 0038 FCD4     		bmi	.L8
 108              		.loc 1 150 0 is_stmt 1 discriminator 2
 109 003a 6368     		ldr	r3, [r4, #4]
 110              		.loc 1 146 0 discriminator 2
 111 003c 087A     		ldrb	r0, [r1, #8]	@ zero_extendqisi2
 112 003e 4A68     		ldr	r2, [r1, #4]
 113              		.loc 1 150 0 discriminator 2
 114 0040 1B68     		ldr	r3, [r3, #0]
ARM GAS  /tmp/cc7cM8gv.s 			page 3


 115              		.loc 1 146 0 discriminator 2
 116 0042 3D21     		movs	r1, #61
 117 0044 01FA00F1 		lsl	r1, r1, r0
 118 0048 1160     		str	r1, [r2, #0]
 119              		.loc 1 150 0 discriminator 2
 120 004a ABB1     		cbz	r3, .L9
 121              		.loc 1 150 0 is_stmt 0 discriminator 1
 122 004c 0422     		movs	r2, #4
 123 004e 2270     		strb	r2, [r4, #0]
 124 0050 2046     		mov	r0, r4
 125 0052 9847     		blx	r3
 126              	.LVL4:
 127 0054 2378     		ldrb	r3, [r4, #0]	@ zero_extendqisi2
 128 0056 042B     		cmp	r3, #4
 129 0058 0ED0     		beq	.L9
 130              	.L10:
 131              	.LBB2:
 132              		.loc 1 150 0 discriminator 4
 133 005a 2023     		movs	r3, #32
 134              	.LVL5:
 135              	@ 150 "/home/wicker/tools/ChibiOS_2.6.3/os/hal/platforms/STM32/SPIv1/spi_lld.c" 1
 136 005c 83F31188 		msr     BASEPRI, r3
 137              	@ 0 "" 2
 138              	.LVL6:
 139              		.thumb
 140              	.LBE2:
 141 0060 A368     		ldr	r3, [r4, #8]
 142              	.LVL7:
 143 0062 2BB1     		cbz	r3, .L11
 144              	.LVL8:
 145              	.LBB3:
 146              		.loc 1 150 0 discriminator 5
 147 0064 0022     		movs	r2, #0
 148 0066 A260     		str	r2, [r4, #8]
 149 0068 1846     		mov	r0, r3
 150 006a 5A62     		str	r2, [r3, #36]
 151 006c FFF7FEFF 		bl	chSchReadyI
 152              	.LVL9:
 153              	.L11:
 154              	.LBE3:
 155              	.LBB4:
 156              		.loc 1 150 0 discriminator 6
 157 0070 0023     		movs	r3, #0
 158              	.LVL10:
 159              	@ 150 "/home/wicker/tools/ChibiOS_2.6.3/os/hal/platforms/STM32/SPIv1/spi_lld.c" 1
 160 0072 83F31188 		msr     BASEPRI, r3
 161              	@ 0 "" 2
 162              	.LVL11:
 163              		.thumb
 164 0076 38BD     		pop	{r3, r4, r5, pc}
 165              	.LVL12:
 166              	.L9:
 167              	.LBE4:
 168              		.loc 1 150 0 discriminator 2
 169 0078 0223     		movs	r3, #2
 170 007a 2370     		strb	r3, [r4, #0]
 171 007c EDE7     		b	.L10
ARM GAS  /tmp/cc7cM8gv.s 			page 4


 172              	.LVL13:
 173              	.L20:
 174              		.loc 1 138 0 is_stmt 1
 175 007e FFF7FEFF 		bl	port_halt
 176              	.LVL14:
 177 0082 C2E7     		b	.L6
 178              		.cfi_endproc
 179              	.LFE118:
 180              		.size	spi_lld_serve_rx_interrupt, .-spi_lld_serve_rx_interrupt
 181 0084 AFF30080 		.section	.text.spi_lld_init,"ax",%progbits
 181      AFF30080 
 181      AFF30080 
 182              		.align	2
 183              		.p2align 4,,15
 184              		.global	spi_lld_init
 185              		.thumb
 186              		.thumb_func
 187              		.type	spi_lld_init, %function
 188              	spi_lld_init:
 189              	.LFB120:
 190              		.loc 1 186 0
 191              		.cfi_startproc
 192              		@ args = 0, pretend = 0, frame = 0
 193              		@ frame_needed = 0, uses_anonymous_args = 0
 194 0000 38B5     		push	{r3, r4, r5, lr}
 195              	.LCFI1:
 196              		.cfi_def_cfa_offset 16
 197              		.cfi_offset 3, -16
 198              		.cfi_offset 4, -12
 199              		.cfi_offset 5, -8
 200              		.cfi_offset 14, -4
 201              		.loc 1 188 0
 202 0002 40F20003 		movw	r3, #:lower16:.LANCHOR0
 203              		.loc 1 209 0
 204 0006 40F20004 		movw	r4, #:lower16:.LANCHOR1
 205 000a C0F20004 		movt	r4, #:upper16:.LANCHOR1
 206              		.loc 1 188 0
 207 000e C0F20003 		movt	r3, #:upper16:.LANCHOR0
 208 0012 4FF6FF72 		movw	r2, #65535
 209              		.loc 1 209 0
 210 0016 2046     		mov	r0, r4
 211              		.loc 1 188 0
 212 0018 1A80     		strh	r2, [r3, #0]	@ movhi
 213              		.loc 1 209 0
 214 001a FFF7FEFF 		bl	spiObjectInit
 215              	.LVL15:
 216              		.loc 1 211 0
 217 001e 0949     		ldr	r1, .L22
 218              		.loc 1 210 0
 219 0020 4FF46050 		mov	r0, #14336
 220              		.loc 1 213 0
 221 0024 1622     		movs	r2, #22
 222              		.loc 1 219 0
 223 0026 4623     		movs	r3, #70
 224              		.loc 1 210 0
 225 0028 C4F20000 		movt	r0, 16384
 226              		.loc 1 212 0
ARM GAS  /tmp/cc7cM8gv.s 			page 5


 227 002c 01F10C05 		add	r5, r1, #12
 228              		.loc 1 213 0
 229 0030 C0F20102 		movt	r2, 1
 230              		.loc 1 219 0
 231 0034 C0F20103 		movt	r3, 1
 232              		.loc 1 210 0
 233 0038 E061     		str	r0, [r4, #28]
 234              		.loc 1 211 0
 235 003a 2162     		str	r1, [r4, #32]
 236              		.loc 1 212 0
 237 003c 6562     		str	r5, [r4, #36]
 238              		.loc 1 213 0
 239 003e A262     		str	r2, [r4, #40]
 240              		.loc 1 219 0
 241 0040 E362     		str	r3, [r4, #44]
 242 0042 38BD     		pop	{r3, r4, r5, pc}
 243              	.L23:
 244              		.align	2
 245              	.L22:
 246 0044 24000000 		.word	_stm32_dma_streams+36
 247              		.cfi_endproc
 248              	.LFE120:
 249              		.size	spi_lld_init, .-spi_lld_init
 250 0048 AFF30080 		.section	.text.spi_lld_start,"ax",%progbits
 250      AFF30080 
 251              		.align	2
 252              		.p2align 4,,15
 253              		.global	spi_lld_start
 254              		.thumb
 255              		.thumb_func
 256              		.type	spi_lld_start, %function
 257              	spi_lld_start:
 258              	.LFB121:
 259              		.loc 1 306 0
 260              		.cfi_startproc
 261              		@ args = 0, pretend = 0, frame = 0
 262              		@ frame_needed = 0, uses_anonymous_args = 0
 263              	.LVL16:
 264              		.loc 1 309 0
 265 0000 0378     		ldrb	r3, [r0, #0]	@ zero_extendqisi2
 266 0002 012B     		cmp	r3, #1
 267              		.loc 1 306 0
 268 0004 10B5     		push	{r4, lr}
 269              	.LCFI2:
 270              		.cfi_def_cfa_offset 8
 271              		.cfi_offset 4, -8
 272              		.cfi_offset 14, -4
 273              		.loc 1 306 0
 274 0006 0446     		mov	r4, r0
 275              		.loc 1 309 0
 276 0008 27D0     		beq	.L30
 277 000a C369     		ldr	r3, [r0, #28]
 278              	.LVL17:
 279              	.L25:
 280              		.loc 1 413 0
 281 000c 6268     		ldr	r2, [r4, #4]
 282              		.loc 1 416 0
ARM GAS  /tmp/cc7cM8gv.s 			page 6


 283 000e A06A     		ldr	r0, [r4, #40]
 284              		.loc 1 413 0
 285 0010 5289     		ldrh	r2, [r2, #10]
 286 0012 02F40061 		and	r1, r2, #2048
 287 0016 89B2     		uxth	r1, r1
 288 0018 B9B1     		cbz	r1, .L31
 289              		.loc 1 424 0
 290 001a E16A     		ldr	r1, [r4, #44]
 291              		.loc 1 422 0
 292 001c 20F4F040 		bic	r0, r0, #30720
 293              		.loc 1 424 0
 294 0020 21F4F041 		bic	r1, r1, #30720
 295              		.loc 1 423 0
 296 0024 40F42050 		orr	r0, r0, #10240
 297              		.loc 1 425 0
 298 0028 41F42051 		orr	r1, r1, #10240
 299              		.loc 1 422 0
 300 002c A062     		str	r0, [r4, #40]
 301              		.loc 1 424 0
 302 002e E162     		str	r1, [r4, #44]
 303              	.L28:
 304              		.loc 1 429 0
 305 0030 42F44172 		orr	r2, r2, #772
 306              		.loc 1 428 0
 307 0034 0021     		movs	r1, #0
 308 0036 1980     		strh	r1, [r3, #0]	@ movhi
 309              		.loc 1 429 0
 310 0038 1A80     		strh	r2, [r3, #0]	@ movhi
 311              		.loc 1 431 0
 312 003a 0722     		movs	r2, #7
 313 003c 9A80     		strh	r2, [r3, #4]	@ movhi
 314              		.loc 1 432 0
 315 003e 1A88     		ldrh	r2, [r3, #0]
 316 0040 92B2     		uxth	r2, r2
 317 0042 42F04002 		orr	r2, r2, #64
 318 0046 1A80     		strh	r2, [r3, #0]	@ movhi
 319 0048 10BD     		pop	{r4, pc}
 320              	.L31:
 321              		.loc 1 418 0
 322 004a E16A     		ldr	r1, [r4, #44]
 323              		.loc 1 416 0
 324 004c 20F4F040 		bic	r0, r0, #30720
 325              		.loc 1 418 0
 326 0050 21F4F041 		bic	r1, r1, #30720
 327              		.loc 1 415 0
 328 0054 A062     		str	r0, [r4, #40]
 329              		.loc 1 417 0
 330 0056 E162     		str	r1, [r4, #44]
 331 0058 EAE7     		b	.L28
 332              	.LVL18:
 333              	.L30:
 334              		.loc 1 327 0
 335 005a 114B     		ldr	r3, .L33
 336 005c 9842     		cmp	r0, r3
 337 005e 09D0     		beq	.L32
 338              	.LVL19:
 339              	.L26:
ARM GAS  /tmp/cc7cM8gv.s 			page 7


 340              		.loc 1 408 0
 341 0060 216A     		ldr	r1, [r4, #32]
 342              		.loc 1 409 0
 343 0062 626A     		ldr	r2, [r4, #36]
 344              		.loc 1 408 0
 345 0064 E369     		ldr	r3, [r4, #28]
 346 0066 0868     		ldr	r0, [r1, #0]
 347              		.loc 1 409 0
 348 0068 1168     		ldr	r1, [r2, #0]
 349              		.loc 1 408 0
 350 006a 03F10C02 		add	r2, r3, #12
 351 006e 8260     		str	r2, [r0, #8]
 352              		.loc 1 409 0
 353 0070 8A60     		str	r2, [r1, #8]
 354 0072 CBE7     		b	.L25
 355              	.LVL20:
 356              	.L32:
 357              	.LBB5:
 358              		.loc 1 329 0
 359 0074 0A21     		movs	r1, #10
 360 0076 0B4A     		ldr	r2, .L33+4
 361 0078 006A     		ldr	r0, [r0, #32]
 362              	.LVL21:
 363 007a 2346     		mov	r3, r4
 364 007c FFF7FEFF 		bl	dmaStreamAllocate
 365              	.LVL22:
 366              		.loc 1 334 0
 367 0080 094A     		ldr	r2, .L33+8
 368 0082 606A     		ldr	r0, [r4, #36]
 369 0084 2346     		mov	r3, r4
 370 0086 0A21     		movs	r1, #10
 371 0088 FFF7FEFF 		bl	dmaStreamAllocate
 372              	.LVL23:
 373              		.loc 1 339 0
 374 008c 4FF46053 		mov	r3, #14336
 375 0090 C4F20203 		movt	r3, 16386
 376 0094 1A6C     		ldr	r2, [r3, #64]
 377 0096 42F48042 		orr	r2, r2, #16384
 378 009a 1A64     		str	r2, [r3, #64]
 379 009c E0E7     		b	.L26
 380              	.L34:
 381 009e 00BF     		.align	2
 382              	.L33:
 383 00a0 00000000 		.word	.LANCHOR1
 384 00a4 00000000 		.word	spi_lld_serve_rx_interrupt
 385 00a8 00000000 		.word	spi_lld_serve_tx_interrupt
 386              	.LBE5:
 387              		.cfi_endproc
 388              	.LFE121:
 389              		.size	spi_lld_start, .-spi_lld_start
 390 00ac AFF30080 		.section	.text.spi_lld_stop,"ax",%progbits
 391              		.align	2
 392              		.p2align 4,,15
 393              		.global	spi_lld_stop
 394              		.thumb
 395              		.thumb_func
 396              		.type	spi_lld_stop, %function
ARM GAS  /tmp/cc7cM8gv.s 			page 8


 397              	spi_lld_stop:
 398              	.LFB122:
 399              		.loc 1 442 0
 400              		.cfi_startproc
 401              		@ args = 0, pretend = 0, frame = 0
 402              		@ frame_needed = 0, uses_anonymous_args = 0
 403              	.LVL24:
 404              		.loc 1 445 0
 405 0000 0378     		ldrb	r3, [r0, #0]	@ zero_extendqisi2
 406 0002 022B     		cmp	r3, #2
 407              		.loc 1 442 0
 408 0004 10B5     		push	{r4, lr}
 409              	.LCFI3:
 410              		.cfi_def_cfa_offset 8
 411              		.cfi_offset 4, -8
 412              		.cfi_offset 14, -4
 413              		.loc 1 442 0
 414 0006 0446     		mov	r4, r0
 415              		.loc 1 445 0
 416 0008 00D0     		beq	.L39
 417 000a 10BD     		pop	{r4, pc}
 418              	.L39:
 419              		.loc 1 448 0
 420 000c C369     		ldr	r3, [r0, #28]
 421              		.loc 1 450 0
 422 000e 006A     		ldr	r0, [r0, #32]
 423              	.LVL25:
 424              		.loc 1 448 0
 425 0010 0022     		movs	r2, #0
 426 0012 1A80     		strh	r2, [r3, #0]	@ movhi
 427              		.loc 1 449 0
 428 0014 9A80     		strh	r2, [r3, #4]	@ movhi
 429              		.loc 1 450 0
 430 0016 FFF7FEFF 		bl	dmaStreamRelease
 431              	.LVL26:
 432              		.loc 1 451 0
 433 001a 606A     		ldr	r0, [r4, #36]
 434 001c FFF7FEFF 		bl	dmaStreamRelease
 435              	.LVL27:
 436              		.loc 1 458 0
 437 0020 064B     		ldr	r3, .L40
 438 0022 9C42     		cmp	r4, r3
 439              		.loc 1 459 0
 440 0024 01BF     		itttt	eq
 441 0026 4FF46053 		moveq	r3, #14336
 442 002a C4F20203 		movteq	r3, 16386
 443 002e 1A6C     		ldreq	r2, [r3, #64]
 444 0030 22F48042 		biceq	r2, r2, #16384
 445 0034 08BF     		it	eq
 446 0036 1A64     		streq	r2, [r3, #64]
 447 0038 10BD     		pop	{r4, pc}
 448              	.L41:
 449 003a 00BF     		.align	2
 450              	.L40:
 451 003c 00000000 		.word	.LANCHOR1
 452              		.cfi_endproc
 453              	.LFE122:
ARM GAS  /tmp/cc7cM8gv.s 			page 9


 454              		.size	spi_lld_stop, .-spi_lld_stop
 455              		.section	.text.spi_lld_select,"ax",%progbits
 456              		.align	2
 457              		.p2align 4,,15
 458              		.global	spi_lld_select
 459              		.thumb
 460              		.thumb_func
 461              		.type	spi_lld_select, %function
 462              	spi_lld_select:
 463              	.LFB123:
 464              		.loc 1 487 0
 465              		.cfi_startproc
 466              		@ args = 0, pretend = 0, frame = 0
 467              		@ frame_needed = 0, uses_anonymous_args = 0
 468              		@ link register save eliminated.
 469              	.LVL28:
 470              		.loc 1 489 0
 471 0000 4368     		ldr	r3, [r0, #4]
 472 0002 1A89     		ldrh	r2, [r3, #8]
 473 0004 5B68     		ldr	r3, [r3, #4]
 474 0006 0121     		movs	r1, #1
 475 0008 01FA02F2 		lsl	r2, r1, r2
 476 000c 92B2     		uxth	r2, r2
 477 000e 5A83     		strh	r2, [r3, #26]	@ movhi
 478 0010 7047     		bx	lr
 479              		.cfi_endproc
 480              	.LFE123:
 481              		.size	spi_lld_select, .-spi_lld_select
 482 0012 00BFAFF3 		.section	.text.spi_lld_unselect,"ax",%progbits
 482      0080AFF3 
 482      0080AFF3 
 482      0080
 483              		.align	2
 484              		.p2align 4,,15
 485              		.global	spi_lld_unselect
 486              		.thumb
 487              		.thumb_func
 488              		.type	spi_lld_unselect, %function
 489              	spi_lld_unselect:
 490              	.LFB124:
 491              		.loc 1 500 0
 492              		.cfi_startproc
 493              		@ args = 0, pretend = 0, frame = 0
 494              		@ frame_needed = 0, uses_anonymous_args = 0
 495              		@ link register save eliminated.
 496              	.LVL29:
 497              		.loc 1 502 0
 498 0000 4368     		ldr	r3, [r0, #4]
 499 0002 1A89     		ldrh	r2, [r3, #8]
 500 0004 5B68     		ldr	r3, [r3, #4]
 501 0006 0121     		movs	r1, #1
 502 0008 01FA02F2 		lsl	r2, r1, r2
 503 000c 92B2     		uxth	r2, r2
 504 000e 1A83     		strh	r2, [r3, #24]	@ movhi
 505 0010 7047     		bx	lr
 506              		.cfi_endproc
 507              	.LFE124:
ARM GAS  /tmp/cc7cM8gv.s 			page 10


 508              		.size	spi_lld_unselect, .-spi_lld_unselect
 509 0012 00BFAFF3 		.section	.text.spi_lld_ignore,"ax",%progbits
 509      0080AFF3 
 509      0080AFF3 
 509      0080
 510              		.align	2
 511              		.p2align 4,,15
 512              		.global	spi_lld_ignore
 513              		.thumb
 514              		.thumb_func
 515              		.type	spi_lld_ignore, %function
 516              	spi_lld_ignore:
 517              	.LFB125:
 518              		.loc 1 516 0
 519              		.cfi_startproc
 520              		@ args = 0, pretend = 0, frame = 0
 521              		@ frame_needed = 0, uses_anonymous_args = 0
 522              		@ link register save eliminated.
 523              	.LVL30:
 524              		.loc 1 518 0
 525 0000 026A     		ldr	r2, [r0, #32]
 526              		.loc 1 522 0
 527 0002 436A     		ldr	r3, [r0, #36]
 528              		.loc 1 518 0
 529 0004 1268     		ldr	r2, [r2, #0]
 530              		.loc 1 522 0
 531 0006 1B68     		ldr	r3, [r3, #0]
 532              		.loc 1 516 0
 533 0008 70B4     		push	{r4, r5, r6}
 534              	.LCFI4:
 535              		.cfi_def_cfa_offset 12
 536              		.cfi_offset 4, -12
 537              		.cfi_offset 5, -8
 538              		.cfi_offset 6, -4
 539              		.loc 1 520 0
 540 000a 866A     		ldr	r6, [r0, #40]
 541              		.loc 1 524 0
 542 000c C56A     		ldr	r5, [r0, #44]
 543              		.loc 1 518 0
 544 000e 40F20004 		movw	r4, #:lower16:.LANCHOR2
 545              		.loc 1 522 0
 546 0012 40F20000 		movw	r0, #:lower16:.LANCHOR0
 547              	.LVL31:
 548              		.loc 1 518 0
 549 0016 C0F20004 		movt	r4, #:upper16:.LANCHOR2
 550              		.loc 1 522 0
 551 001a C0F20000 		movt	r0, #:upper16:.LANCHOR0
 552              		.loc 1 518 0
 553 001e D460     		str	r4, [r2, #12]
 554              		.loc 1 519 0
 555 0020 5160     		str	r1, [r2, #4]
 556              		.loc 1 520 0
 557 0022 1660     		str	r6, [r2, #0]
 558              		.loc 1 522 0
 559 0024 D860     		str	r0, [r3, #12]
 560              		.loc 1 523 0
 561 0026 5960     		str	r1, [r3, #4]
ARM GAS  /tmp/cc7cM8gv.s 			page 11


 562              		.loc 1 524 0
 563 0028 1D60     		str	r5, [r3, #0]
 564              		.loc 1 526 0
 565 002a 1168     		ldr	r1, [r2, #0]
 566              	.LVL32:
 567 002c 41F00101 		orr	r1, r1, #1
 568 0030 1160     		str	r1, [r2, #0]
 569              		.loc 1 527 0
 570 0032 1A68     		ldr	r2, [r3, #0]
 571              	.LVL33:
 572 0034 42F00102 		orr	r2, r2, #1
 573 0038 1A60     		str	r2, [r3, #0]
 574              		.loc 1 528 0
 575 003a 70BC     		pop	{r4, r5, r6}
 576 003c 7047     		bx	lr
 577              		.cfi_endproc
 578              	.LFE125:
 579              		.size	spi_lld_ignore, .-spi_lld_ignore
 580 003e 00BF     		.section	.text.spi_lld_exchange,"ax",%progbits
 581              		.align	2
 582              		.p2align 4,,15
 583              		.global	spi_lld_exchange
 584              		.thumb
 585              		.thumb_func
 586              		.type	spi_lld_exchange, %function
 587              	spi_lld_exchange:
 588              	.LFB126:
 589              		.loc 1 546 0
 590              		.cfi_startproc
 591              		@ args = 0, pretend = 0, frame = 0
 592              		@ frame_needed = 0, uses_anonymous_args = 0
 593              		@ link register save eliminated.
 594              	.LVL34:
 595 0000 F0B4     		push	{r4, r5, r6, r7}
 596              	.LCFI5:
 597              		.cfi_def_cfa_offset 16
 598              		.cfi_offset 4, -16
 599              		.cfi_offset 5, -12
 600              		.cfi_offset 6, -8
 601              		.cfi_offset 7, -4
 602              		.loc 1 548 0
 603 0002 046A     		ldr	r4, [r0, #32]
 604              		.loc 1 552 0
 605 0004 476A     		ldr	r7, [r0, #36]
 606              		.loc 1 550 0
 607 0006 866A     		ldr	r6, [r0, #40]
 608              		.loc 1 554 0
 609 0008 C56A     		ldr	r5, [r0, #44]
 610              		.loc 1 548 0
 611 000a 2468     		ldr	r4, [r4, #0]
 612              		.loc 1 552 0
 613 000c 3868     		ldr	r0, [r7, #0]
 614              	.LVL35:
 615              		.loc 1 548 0
 616 000e E360     		str	r3, [r4, #12]
 617              		.loc 1 550 0
 618 0010 46F48066 		orr	r6, r6, #1024
ARM GAS  /tmp/cc7cM8gv.s 			page 12


 619              		.loc 1 554 0
 620 0014 45F48065 		orr	r5, r5, #1024
 621              		.loc 1 549 0
 622 0018 6160     		str	r1, [r4, #4]
 623              		.loc 1 550 0
 624 001a 2660     		str	r6, [r4, #0]
 625              		.loc 1 552 0
 626 001c C260     		str	r2, [r0, #12]
 627              		.loc 1 553 0
 628 001e 4160     		str	r1, [r0, #4]
 629              		.loc 1 554 0
 630 0020 0560     		str	r5, [r0, #0]
 631              		.loc 1 556 0
 632 0022 2368     		ldr	r3, [r4, #0]
 633              	.LVL36:
 634 0024 43F00103 		orr	r3, r3, #1
 635 0028 2360     		str	r3, [r4, #0]
 636              		.loc 1 557 0
 637 002a 0368     		ldr	r3, [r0, #0]
 638 002c 43F00103 		orr	r3, r3, #1
 639 0030 0360     		str	r3, [r0, #0]
 640              		.loc 1 558 0
 641 0032 F0BC     		pop	{r4, r5, r6, r7}
 642 0034 7047     		bx	lr
 643              		.cfi_endproc
 644              	.LFE126:
 645              		.size	spi_lld_exchange, .-spi_lld_exchange
 646 0036 00BFAFF3 		.section	.text.spi_lld_send,"ax",%progbits
 646      0080AFF3 
 646      0080
 647              		.align	2
 648              		.p2align 4,,15
 649              		.global	spi_lld_send
 650              		.thumb
 651              		.thumb_func
 652              		.type	spi_lld_send, %function
 653              	spi_lld_send:
 654              	.LFB127:
 655              		.loc 1 573 0
 656              		.cfi_startproc
 657              		@ args = 0, pretend = 0, frame = 0
 658              		@ frame_needed = 0, uses_anonymous_args = 0
 659              		@ link register save eliminated.
 660              	.LVL37:
 661 0000 F0B4     		push	{r4, r5, r6, r7}
 662              	.LCFI6:
 663              		.cfi_def_cfa_offset 16
 664              		.cfi_offset 4, -16
 665              		.cfi_offset 5, -12
 666              		.cfi_offset 6, -8
 667              		.cfi_offset 7, -4
 668              		.loc 1 575 0
 669 0002 036A     		ldr	r3, [r0, #32]
 670              		.loc 1 579 0
 671 0004 476A     		ldr	r7, [r0, #36]
 672              		.loc 1 581 0
 673 0006 C66A     		ldr	r6, [r0, #44]
ARM GAS  /tmp/cc7cM8gv.s 			page 13


 674              		.loc 1 575 0
 675 0008 1C68     		ldr	r4, [r3, #0]
 676              		.loc 1 577 0
 677 000a 806A     		ldr	r0, [r0, #40]
 678              	.LVL38:
 679              		.loc 1 579 0
 680 000c 3B68     		ldr	r3, [r7, #0]
 681              		.loc 1 575 0
 682 000e 40F20005 		movw	r5, #:lower16:.LANCHOR2
 683 0012 C0F20005 		movt	r5, #:upper16:.LANCHOR2
 684              		.loc 1 581 0
 685 0016 46F48066 		orr	r6, r6, #1024
 686              		.loc 1 575 0
 687 001a E560     		str	r5, [r4, #12]
 688              		.loc 1 576 0
 689 001c 6160     		str	r1, [r4, #4]
 690              		.loc 1 577 0
 691 001e 2060     		str	r0, [r4, #0]
 692              		.loc 1 579 0
 693 0020 DA60     		str	r2, [r3, #12]
 694              		.loc 1 580 0
 695 0022 5960     		str	r1, [r3, #4]
 696              		.loc 1 581 0
 697 0024 1E60     		str	r6, [r3, #0]
 698              		.loc 1 583 0
 699 0026 2268     		ldr	r2, [r4, #0]
 700              	.LVL39:
 701 0028 42F00102 		orr	r2, r2, #1
 702 002c 2260     		str	r2, [r4, #0]
 703              		.loc 1 584 0
 704 002e 1A68     		ldr	r2, [r3, #0]
 705 0030 42F00102 		orr	r2, r2, #1
 706 0034 1A60     		str	r2, [r3, #0]
 707              		.loc 1 585 0
 708 0036 F0BC     		pop	{r4, r5, r6, r7}
 709 0038 7047     		bx	lr
 710              		.cfi_endproc
 711              	.LFE127:
 712              		.size	spi_lld_send, .-spi_lld_send
 713 003a 00BFAFF3 		.section	.text.spi_lld_receive,"ax",%progbits
 713      0080
 714              		.align	2
 715              		.p2align 4,,15
 716              		.global	spi_lld_receive
 717              		.thumb
 718              		.thumb_func
 719              		.type	spi_lld_receive, %function
 720              	spi_lld_receive:
 721              	.LFB128:
 722              		.loc 1 600 0
 723              		.cfi_startproc
 724              		@ args = 0, pretend = 0, frame = 0
 725              		@ frame_needed = 0, uses_anonymous_args = 0
 726              		@ link register save eliminated.
 727              	.LVL40:
 728 0000 70B4     		push	{r4, r5, r6}
 729              	.LCFI7:
ARM GAS  /tmp/cc7cM8gv.s 			page 14


 730              		.cfi_def_cfa_offset 12
 731              		.cfi_offset 4, -12
 732              		.cfi_offset 5, -8
 733              		.cfi_offset 6, -4
 734              		.loc 1 606 0
 735 0002 436A     		ldr	r3, [r0, #36]
 736              		.loc 1 602 0
 737 0004 046A     		ldr	r4, [r0, #32]
 738              		.loc 1 604 0
 739 0006 866A     		ldr	r6, [r0, #40]
 740              		.loc 1 602 0
 741 0008 2468     		ldr	r4, [r4, #0]
 742              		.loc 1 606 0
 743 000a 1B68     		ldr	r3, [r3, #0]
 744              		.loc 1 608 0
 745 000c C06A     		ldr	r0, [r0, #44]
 746              	.LVL41:
 747              		.loc 1 602 0
 748 000e E260     		str	r2, [r4, #12]
 749              		.loc 1 606 0
 750 0010 40F20005 		movw	r5, #:lower16:.LANCHOR0
 751              		.loc 1 604 0
 752 0014 46F48066 		orr	r6, r6, #1024
 753              		.loc 1 606 0
 754 0018 C0F20005 		movt	r5, #:upper16:.LANCHOR0
 755              		.loc 1 603 0
 756 001c 6160     		str	r1, [r4, #4]
 757              		.loc 1 604 0
 758 001e 2660     		str	r6, [r4, #0]
 759              		.loc 1 606 0
 760 0020 DD60     		str	r5, [r3, #12]
 761              		.loc 1 607 0
 762 0022 5960     		str	r1, [r3, #4]
 763              		.loc 1 608 0
 764 0024 1860     		str	r0, [r3, #0]
 765              		.loc 1 610 0
 766 0026 2268     		ldr	r2, [r4, #0]
 767              	.LVL42:
 768 0028 42F00102 		orr	r2, r2, #1
 769 002c 2260     		str	r2, [r4, #0]
 770              		.loc 1 611 0
 771 002e 1A68     		ldr	r2, [r3, #0]
 772 0030 42F00102 		orr	r2, r2, #1
 773 0034 1A60     		str	r2, [r3, #0]
 774              		.loc 1 612 0
 775 0036 70BC     		pop	{r4, r5, r6}
 776 0038 7047     		bx	lr
 777              		.cfi_endproc
 778              	.LFE128:
 779              		.size	spi_lld_receive, .-spi_lld_receive
 780 003a 00BFAFF3 		.section	.text.spi_lld_polled_exchange,"ax",%progbits
 780      0080
 781              		.align	2
 782              		.p2align 4,,15
 783              		.global	spi_lld_polled_exchange
 784              		.thumb
 785              		.thumb_func
ARM GAS  /tmp/cc7cM8gv.s 			page 15


 786              		.type	spi_lld_polled_exchange, %function
 787              	spi_lld_polled_exchange:
 788              	.LFB129:
 789              		.loc 1 626 0
 790              		.cfi_startproc
 791              		@ args = 0, pretend = 0, frame = 0
 792              		@ frame_needed = 0, uses_anonymous_args = 0
 793              		@ link register save eliminated.
 794              	.LVL43:
 795              		.loc 1 628 0
 796 0000 C269     		ldr	r2, [r0, #28]
 797 0002 9181     		strh	r1, [r2, #12]	@ movhi
 798              	.LVL44:
 799              	.L49:
 800              		.loc 1 629 0 discriminator 1
 801 0004 1389     		ldrh	r3, [r2, #8]
 802 0006 D807     		lsls	r0, r3, #31
 803 0008 FCD5     		bpl	.L49
 804              		.loc 1 631 0
 805 000a 9089     		ldrh	r0, [r2, #12]
 806              		.loc 1 632 0
 807 000c 80B2     		uxth	r0, r0
 808 000e 7047     		bx	lr
 809              		.cfi_endproc
 810              	.LFE129:
 811              		.size	spi_lld_polled_exchange, .-spi_lld_polled_exchange
 812              		.global	SPID2
 813              		.section	.bss.dummytx,"aw",%nobits
 814              		.align	1
 815              		.set	.LANCHOR0,. + 0
 816              		.type	dummytx, %object
 817              		.size	dummytx, 2
 818              	dummytx:
 819 0000 0000     		.space	2
 820              		.section	.bss.SPID2,"aw",%nobits
 821              		.align	2
 822              		.set	.LANCHOR1,. + 0
 823              		.type	SPID2, %object
 824              		.size	SPID2, 48
 825              	SPID2:
 826 0000 00000000 		.space	48
 826      00000000 
 826      00000000 
 826      00000000 
 826      00000000 
 827              		.section	.bss.dummyrx,"aw",%nobits
 828              		.align	1
 829              		.set	.LANCHOR2,. + 0
 830              		.type	dummyrx, %object
 831              		.size	dummyrx, 2
 832              	dummyrx:
 833 0000 0000     		.space	2
 834              		.text
 835              	.Letext0:
 836              		.file 2 "/opt/psas/x-tools/stm32f407/arm-psas-eabi/bin/../lib/gcc/arm-psas-eabi/4.7.2/include/stdd
 837              		.file 3 "/opt/psas/x-tools/stm32f407/arm-psas-eabi/bin/../lib/gcc/arm-psas-eabi/4.7.2/../../../../
 838              		.file 4 "/home/wicker/tools/ChibiOS_2.6.3/os/ports/GCC/ARMCMx/chtypes.h"
ARM GAS  /tmp/cc7cM8gv.s 			page 16


 839              		.file 5 "/home/wicker/tools/ChibiOS_2.6.3/os/kernel/include/chlists.h"
 840              		.file 6 "/home/wicker/tools/ChibiOS_2.6.3/os/kernel/include/chthreads.h"
 841              		.file 7 "/home/wicker/tools/ChibiOS_2.6.3/os/ports/GCC/ARMCMx/chcore_v7m.h"
 842              		.file 8 "/home/wicker/tools/ChibiOS_2.6.3/os/kernel/include/chmtx.h"
 843              		.file 9 "/home/wicker/tools/ChibiOS_2.6.3/os/hal/platforms/STM32F4xx/stm32f4xx.h"
 844              		.file 10 "/home/wicker/tools/ChibiOS_2.6.3/os/hal/platforms/STM32F4xx/stm32_dma.h"
 845              		.file 11 "/home/wicker/tools/ChibiOS_2.6.3/os/hal/platforms/STM32/GPIOv2/pal_lld.h"
 846              		.file 12 "/home/wicker/tools/ChibiOS_2.6.3/os/hal/include/spi.h"
 847              		.file 13 "/home/wicker/tools/ChibiOS_2.6.3/os/hal/platforms/STM32/SPIv1/spi_lld.h"
 848              		.file 14 "/home/wicker/tools/ChibiOS_2.6.3/os/ports/common/ARMCMx/CMSIS/include/core_cm4.h"
 849              		.file 15 "/home/wicker/tools/ChibiOS_2.6.3/os/kernel/include/chschd.h"