ARM GAS  /tmp/ccgMNJpB.s 			page 1


   1              		.syntax unified
   2              		.cpu cortex-m4
   3              		.eabi_attribute 27, 3
   4              		.eabi_attribute 28, 1
   5              		.fpu fpv4-sp-d16
   6              		.eabi_attribute 20, 1
   7              		.eabi_attribute 21, 1
   8              		.eabi_attribute 23, 3
   9              		.eabi_attribute 24, 1
  10              		.eabi_attribute 25, 1
  11              		.eabi_attribute 26, 1
  12              		.eabi_attribute 30, 2
  13              		.eabi_attribute 34, 1
  14              		.eabi_attribute 18, 4
  15              		.thumb
  16              		.file	"test.c"
  17              		.text
  18              	.Ltext0:
  19              		.cfi_sections	.debug_frame
  20              		.section	.text.tmr,"ax",%progbits
  21              		.align	2
  22              		.p2align 4,,15
  23              		.thumb
  24              		.thumb_func
  25              		.type	tmr, %function
  26              	tmr:
  27              	.LFB132:
  28              		.file 1 "/home/wicker/tools/ChibiOS_2.6.3/test/test.c"
  29              		.loc 1 261 0
  30              		.cfi_startproc
  31              		@ args = 0, pretend = 0, frame = 0
  32              		@ frame_needed = 0, uses_anonymous_args = 0
  33              		@ link register save eliminated.
  34              	.LVL0:
  35              		.loc 1 264 0
  36 0000 40F20003 		movw	r3, #:lower16:.LANCHOR0
  37 0004 C0F20003 		movt	r3, #:upper16:.LANCHOR0
  38 0008 0122     		movs	r2, #1
  39 000a 1A70     		strb	r2, [r3, #0]
  40 000c 7047     		bx	lr
  41              		.cfi_endproc
  42              	.LFE132:
  43              		.size	tmr, .-tmr
  44 000e 00BF     		.section	.text.print_line,"ax",%progbits
  45              		.align	2
  46              		.p2align 4,,15
  47              		.thumb
  48              		.thumb_func
  49              		.type	print_line, %function
  50              	print_line:
  51              	.LFB135:
  52              		.loc 1 300 0
  53              		.cfi_startproc
  54              		@ args = 0, pretend = 0, frame = 0
  55              		@ frame_needed = 0, uses_anonymous_args = 0
  56              	.LVL1:
  57 0000 38B5     		push	{r3, r4, r5, lr}
ARM GAS  /tmp/ccgMNJpB.s 			page 2


  58              	.LCFI0:
  59              		.cfi_def_cfa_offset 16
  60              		.cfi_offset 3, -16
  61              		.cfi_offset 4, -12
  62              		.cfi_offset 5, -8
  63              		.cfi_offset 14, -4
  64 0002 084D     		ldr	r5, .L6
  65              		.loc 1 300 0
  66 0004 4C24     		movs	r4, #76
  67              	.LVL2:
  68              	.L3:
  69              		.loc 1 304 0 discriminator 2
  70 0006 2868     		ldr	r0, [r5, #0]
  71 0008 0368     		ldr	r3, [r0, #0]
  72 000a 2D21     		movs	r1, #45
  73 000c 9B68     		ldr	r3, [r3, #8]
  74 000e 9847     		blx	r3
  75              	.LVL3:
  76              		.loc 1 303 0 discriminator 2
  77 0010 013C     		subs	r4, r4, #1
  78 0012 F8D1     		bne	.L3
  79              		.loc 1 305 0
  80 0014 034B     		ldr	r3, .L6
  81 0016 0449     		ldr	r1, .L6+4
  82 0018 1868     		ldr	r0, [r3, #0]
  83 001a 0368     		ldr	r3, [r0, #0]
  84 001c 0222     		movs	r2, #2
  85 001e 1B68     		ldr	r3, [r3, #0]
  86 0020 9847     		blx	r3
  87              	.LVL4:
  88 0022 38BD     		pop	{r3, r4, r5, pc}
  89              	.L7:
  90              		.align	2
  91              	.L6:
  92 0024 00000000 		.word	.LANCHOR1
  93 0028 00000000 		.word	.LC0
  94              		.cfi_endproc
  95              	.LFE135:
  96              		.size	print_line, .-print_line
  97 002c AFF30080 		.section	.text.test_printn,"ax",%progbits
  98              		.align	2
  99              		.p2align 4,,15
 100              		.global	test_printn
 101              		.thumb
 102              		.thumb_func
 103              		.type	test_printn, %function
 104              	test_printn:
 105              	.LFB118:
 106              		.loc 1 91 0
 107              		.cfi_startproc
 108              		@ args = 0, pretend = 0, frame = 16
 109              		@ frame_needed = 0, uses_anonymous_args = 0
 110              	.LVL5:
 111 0000 70B5     		push	{r4, r5, r6, lr}
 112              	.LCFI1:
 113              		.cfi_def_cfa_offset 16
 114              		.cfi_offset 4, -16
ARM GAS  /tmp/ccgMNJpB.s 			page 3


 115              		.cfi_offset 5, -12
 116              		.cfi_offset 6, -8
 117              		.cfi_offset 14, -4
 118 0002 84B0     		sub	sp, sp, #16
 119              	.LCFI2:
 120              		.cfi_def_cfa_offset 32
 121              		.loc 1 94 0
 122 0004 0028     		cmp	r0, #0
 123 0006 26D0     		beq	.L16
 124              	.LBB50:
 125              	.LBB51:
 126              		.loc 1 91 0
 127 0008 0DF10105 		add	r5, sp, #1
 128              	.LBE51:
 129              	.LBE50:
 130              		.loc 1 99 0
 131 000c 4CF6CD46 		movw	r6, #52429
 132              	.LBB54:
 133              	.LBB52:
 134              		.loc 1 91 0
 135 0010 2B46     		mov	r3, r5
 136              	.LBE52:
 137              	.LBE54:
 138              		.loc 1 99 0
 139 0012 CCF6CC46 		movt	r6, 52428
 140              	.LVL6:
 141              	.L11:
 142 0016 A6FB0012 		umull	r1, r2, r6, r0
 143 001a D208     		lsrs	r2, r2, #3
 144 001c 02EB8201 		add	r1, r2, r2, lsl #2
 145 0020 A0EB4101 		sub	r1, r0, r1, lsl #1
 146 0024 3031     		adds	r1, r1, #48
 147 0026 C9B2     		uxtb	r1, r1
 148              		.loc 1 91 0
 149 0028 1C46     		mov	r4, r3
 150              		.loc 1 99 0
 151 002a 03F8011C 		strb	r1, [r3, #-1]
 152              	.LVL7:
 153              		.loc 1 98 0
 154 002e 1046     		mov	r0, r2
 155 0030 0133     		adds	r3, r3, #1
 156              	.LVL8:
 157 0032 002A     		cmp	r2, #0
 158 0034 EFD1     		bne	.L11
 159              		.loc 1 100 0 discriminator 1
 160 0036 6B46     		mov	r3, sp
 161 0038 9C42     		cmp	r4, r3
 162 003a 0AD9     		bls	.L8
 163 003c 094E     		ldr	r6, .L18
 164 003e 02E0     		b	.L14
 165              	.LVL9:
 166              	.L17:
 167 0040 14F8021C 		ldrb	r1, [r4, #-2]	@ zero_extendqisi2
 168 0044 013C     		subs	r4, r4, #1
 169              	.L14:
 170              		.loc 1 101 0
 171 0046 3068     		ldr	r0, [r6, #0]
ARM GAS  /tmp/ccgMNJpB.s 			page 4


 172 0048 0368     		ldr	r3, [r0, #0]
 173 004a 9B68     		ldr	r3, [r3, #8]
 174 004c 9847     		blx	r3
 175              	.LVL10:
 176              		.loc 1 100 0
 177 004e AC42     		cmp	r4, r5
 178 0050 F6D1     		bne	.L17
 179              	.L8:
 180              		.loc 1 103 0
 181 0052 04B0     		add	sp, sp, #16
 182 0054 70BD     		pop	{r4, r5, r6, pc}
 183              	.LVL11:
 184              	.L16:
 185              	.LBB55:
 186              	.LBB53:
 187              		.loc 1 95 0
 188 0056 034B     		ldr	r3, .L18
 189 0058 1868     		ldr	r0, [r3, #0]
 190              	.LVL12:
 191 005a 0368     		ldr	r3, [r0, #0]
 192 005c 3021     		movs	r1, #48
 193 005e 9B68     		ldr	r3, [r3, #8]
 194 0060 9847     		blx	r3
 195              	.LVL13:
 196 0062 F6E7     		b	.L8
 197              	.L19:
 198              		.align	2
 199              	.L18:
 200 0064 00000000 		.word	.LANCHOR1
 201              	.LBE53:
 202              	.LBE55:
 203              		.cfi_endproc
 204              	.LFE118:
 205              		.size	test_printn, .-test_printn
 206 0068 AFF30080 		.section	.text.test_print,"ax",%progbits
 206      AFF30080 
 207              		.align	2
 208              		.p2align 4,,15
 209              		.global	test_print
 210              		.thumb
 211              		.thumb_func
 212              		.type	test_print, %function
 213              	test_print:
 214              	.LFB119:
 215              		.loc 1 110 0
 216              		.cfi_startproc
 217              		@ args = 0, pretend = 0, frame = 0
 218              		@ frame_needed = 0, uses_anonymous_args = 0
 219              	.LVL14:
 220 0000 38B5     		push	{r3, r4, r5, lr}
 221              	.LCFI3:
 222              		.cfi_def_cfa_offset 16
 223              		.cfi_offset 3, -16
 224              		.cfi_offset 4, -12
 225              		.cfi_offset 5, -8
 226              		.cfi_offset 14, -4
 227              		.loc 1 112 0
ARM GAS  /tmp/ccgMNJpB.s 			page 5


 228 0002 0178     		ldrb	r1, [r0, #0]	@ zero_extendqisi2
 229 0004 49B1     		cbz	r1, .L20
 230 0006 054D     		ldr	r5, .L25
 231 0008 0446     		mov	r4, r0
 232              	.LVL15:
 233              	.L22:
 234              		.loc 1 113 0
 235 000a 2868     		ldr	r0, [r5, #0]
 236 000c 0368     		ldr	r3, [r0, #0]
 237 000e 9B68     		ldr	r3, [r3, #8]
 238 0010 9847     		blx	r3
 239              	.LVL16:
 240              		.loc 1 112 0
 241 0012 14F8011F 		ldrb	r1, [r4, #1]!	@ zero_extendqisi2
 242 0016 0029     		cmp	r1, #0
 243 0018 F7D1     		bne	.L22
 244              	.L20:
 245 001a 38BD     		pop	{r3, r4, r5, pc}
 246              	.L26:
 247              		.align	2
 248              	.L25:
 249 001c 00000000 		.word	.LANCHOR1
 250              		.cfi_endproc
 251              	.LFE119:
 252              		.size	test_print, .-test_print
 253              		.section	.text.test_println,"ax",%progbits
 254              		.align	2
 255              		.p2align 4,,15
 256              		.global	test_println
 257              		.thumb
 258              		.thumb_func
 259              		.type	test_println, %function
 260              	test_println:
 261              	.LFB120:
 262              		.loc 1 121 0
 263              		.cfi_startproc
 264              		@ args = 0, pretend = 0, frame = 0
 265              		@ frame_needed = 0, uses_anonymous_args = 0
 266              	.LVL17:
 267 0000 38B5     		push	{r3, r4, r5, lr}
 268              	.LCFI4:
 269              		.cfi_def_cfa_offset 16
 270              		.cfi_offset 3, -16
 271              		.cfi_offset 4, -12
 272              		.cfi_offset 5, -8
 273              		.cfi_offset 14, -4
 274              	.LBB56:
 275              	.LBB57:
 276              		.loc 1 112 0
 277 0002 0178     		ldrb	r1, [r0, #0]	@ zero_extendqisi2
 278 0004 084D     		ldr	r5, .L33
 279 0006 41B1     		cbz	r1, .L30
 280 0008 0446     		mov	r4, r0
 281              	.LVL18:
 282              	.L29:
 283              		.loc 1 113 0
 284 000a 2868     		ldr	r0, [r5, #0]
ARM GAS  /tmp/ccgMNJpB.s 			page 6


 285 000c 0368     		ldr	r3, [r0, #0]
 286 000e 9B68     		ldr	r3, [r3, #8]
 287 0010 9847     		blx	r3
 288              	.LVL19:
 289              		.loc 1 112 0
 290 0012 14F8011F 		ldrb	r1, [r4, #1]!	@ zero_extendqisi2
 291 0016 0029     		cmp	r1, #0
 292 0018 F7D1     		bne	.L29
 293              	.L30:
 294              	.LBE57:
 295              	.LBE56:
 296              		.loc 1 124 0
 297 001a 2868     		ldr	r0, [r5, #0]
 298 001c 0349     		ldr	r1, .L33+4
 299 001e 0368     		ldr	r3, [r0, #0]
 300 0020 0222     		movs	r2, #2
 301 0022 1B68     		ldr	r3, [r3, #0]
 302 0024 9847     		blx	r3
 303              	.LVL20:
 304 0026 38BD     		pop	{r3, r4, r5, pc}
 305              	.L34:
 306              		.align	2
 307              	.L33:
 308 0028 00000000 		.word	.LANCHOR1
 309 002c 00000000 		.word	.LC0
 310              		.cfi_endproc
 311              	.LFE120:
 312              		.size	test_println, .-test_println
 313              		.section	.text.test_emit_token,"ax",%progbits
 314              		.align	2
 315              		.p2align 4,,15
 316              		.global	test_emit_token
 317              		.thumb
 318              		.thumb_func
 319              		.type	test_emit_token, %function
 320              	test_emit_token:
 321              	.LFB123:
 322              		.loc 1 147 0
 323              		.cfi_startproc
 324              		@ args = 0, pretend = 0, frame = 0
 325              		@ frame_needed = 0, uses_anonymous_args = 0
 326              		@ link register save eliminated.
 327              	.LVL21:
 328              	.LBB58:
 329              		.loc 1 149 0
 330 0000 2023     		movs	r3, #32
 331              	.LVL22:
 332              	@ 149 "/home/wicker/tools/ChibiOS_2.6.3/test/test.c" 1
 333 0002 83F31188 		msr     BASEPRI, r3
 334              	@ 0 "" 2
 335              	.LVL23:
 336              		.thumb
 337              	.LBE58:
 338              		.loc 1 150 0
 339 0006 40F20002 		movw	r2, #:lower16:.LANCHOR2
 340 000a C0F20002 		movt	r2, #:upper16:.LANCHOR2
 341              	.LBB59:
ARM GAS  /tmp/ccgMNJpB.s 			page 7


 342              		.loc 1 151 0
 343 000e 0023     		movs	r3, #0
 344              	.LVL24:
 345              	.LBE59:
 346              		.loc 1 150 0
 347 0010 1168     		ldr	r1, [r2, #0]
 348 0012 01F8010B 		strb	r0, [r1], #1
 349 0016 1160     		str	r1, [r2, #0]
 350              	.LBB60:
 351              		.loc 1 151 0
 352              	@ 151 "/home/wicker/tools/ChibiOS_2.6.3/test/test.c" 1
 353 0018 83F31188 		msr     BASEPRI, r3
 354              	@ 0 "" 2
 355              	.LVL25:
 356              		.thumb
 357 001c 7047     		bx	lr
 358              	.LBE60:
 359              		.cfi_endproc
 360              	.LFE123:
 361              		.size	test_emit_token, .-test_emit_token
 362 001e 00BF     		.section	.text._test_fail,"ax",%progbits
 363              		.align	2
 364              		.p2align 4,,15
 365              		.global	_test_fail
 366              		.thumb
 367              		.thumb_func
 368              		.type	_test_fail, %function
 369              	_test_fail:
 370              	.LFB124:
 371              		.loc 1 157 0
 372              		.cfi_startproc
 373              		@ args = 0, pretend = 0, frame = 0
 374              		@ frame_needed = 0, uses_anonymous_args = 0
 375              		@ link register save eliminated.
 376              	.LVL26:
 377 0000 10B4     		push	{r4}
 378              	.LCFI5:
 379              		.cfi_def_cfa_offset 4
 380              		.cfi_offset 4, -4
 381              		.loc 1 159 0
 382 0002 40F20001 		movw	r1, #:lower16:.LANCHOR3
 383              		.loc 1 160 0
 384 0006 40F20002 		movw	r2, #:lower16:.LANCHOR4
 385              		.loc 1 161 0
 386 000a 40F20004 		movw	r4, #:lower16:.LANCHOR5
 387              		.loc 1 159 0
 388 000e C0F20001 		movt	r1, #:upper16:.LANCHOR3
 389              		.loc 1 160 0
 390 0012 C0F20002 		movt	r2, #:upper16:.LANCHOR4
 391              		.loc 1 161 0
 392 0016 C0F20004 		movt	r4, #:upper16:.LANCHOR5
 393              		.loc 1 159 0
 394 001a 0123     		movs	r3, #1
 395              		.loc 1 161 0
 396 001c 2060     		str	r0, [r4, #0]
 397              		.loc 1 159 0
 398 001e 0B70     		strb	r3, [r1, #0]
ARM GAS  /tmp/ccgMNJpB.s 			page 8


 399              		.loc 1 160 0
 400 0020 1370     		strb	r3, [r2, #0]
 401              		.loc 1 163 0
 402 0022 1846     		mov	r0, r3
 403              	.LVL27:
 404 0024 10BC     		pop	{r4}
 405 0026 7047     		bx	lr
 406              		.cfi_endproc
 407              	.LFE124:
 408              		.size	_test_fail, .-_test_fail
 409 0028 AFF30080 		.section	.text._test_assert,"ax",%progbits
 409      AFF30080 
 410              		.align	2
 411              		.p2align 4,,15
 412              		.global	_test_assert
 413              		.thumb
 414              		.thumb_func
 415              		.type	_test_assert, %function
 416              	_test_assert:
 417              	.LFB125:
 418              		.loc 1 165 0
 419              		.cfi_startproc
 420              		@ args = 0, pretend = 0, frame = 0
 421              		@ frame_needed = 0, uses_anonymous_args = 0
 422              		@ link register save eliminated.
 423              	.LVL28:
 424              		.loc 1 167 0
 425 0000 41B9     		cbnz	r1, .L39
 426              	.LVL29:
 427              	.LBB61:
 428              	.LBB62:
 429              		.loc 1 159 0
 430 0002 054A     		ldr	r2, .L40
 431 0004 0123     		movs	r3, #1
 432 0006 1370     		strb	r3, [r2, #0]
 433              		.loc 1 160 0
 434 0008 044A     		ldr	r2, .L40+4
 435 000a 1370     		strb	r3, [r2, #0]
 436              		.loc 1 161 0
 437 000c 044A     		ldr	r2, .L40+8
 438 000e 1060     		str	r0, [r2, #0]
 439              	.LBE62:
 440              	.LBE61:
 441              		.loc 1 168 0
 442 0010 1846     		mov	r0, r3
 443              	.LVL30:
 444 0012 7047     		bx	lr
 445              	.LVL31:
 446              	.L39:
 447              		.loc 1 169 0
 448 0014 0020     		movs	r0, #0
 449              	.LVL32:
 450              		.loc 1 170 0
 451 0016 7047     		bx	lr
 452              	.L41:
 453              		.align	2
 454              	.L40:
ARM GAS  /tmp/ccgMNJpB.s 			page 9


 455 0018 00000000 		.word	.LANCHOR3
 456 001c 00000000 		.word	.LANCHOR4
 457 0020 00000000 		.word	.LANCHOR5
 458              		.cfi_endproc
 459              	.LFE125:
 460              		.size	_test_assert, .-_test_assert
 461 0024 AFF30080 		.section	.text._test_assert_sequence,"ax",%progbits
 461      AFF30080 
 461      AFF30080 
 462              		.align	2
 463              		.p2align 4,,15
 464              		.global	_test_assert_sequence
 465              		.thumb
 466              		.thumb_func
 467              		.type	_test_assert_sequence, %function
 468              	_test_assert_sequence:
 469              	.LFB126:
 470              		.loc 1 172 0
 471              		.cfi_startproc
 472              		@ args = 0, pretend = 0, frame = 0
 473              		@ frame_needed = 0, uses_anonymous_args = 0
 474              		@ link register save eliminated.
 475              	.LVL33:
 476 0000 F0B4     		push	{r4, r5, r6, r7}
 477              	.LCFI6:
 478              		.cfi_def_cfa_offset 16
 479              		.cfi_offset 4, -16
 480              		.cfi_offset 5, -12
 481              		.cfi_offset 6, -8
 482              		.cfi_offset 7, -4
 483 0002 0F4E     		ldr	r6, .L49
 484              		.loc 1 173 0
 485 0004 0F4F     		ldr	r7, .L49+4
 486 0006 3568     		ldr	r5, [r6, #0]
 487 0008 3B46     		mov	r3, r7
 488              		.loc 1 174 0
 489 000a 04E0     		b	.L43
 490              	.LVL34:
 491              	.L45:
 492              		.loc 1 175 0
 493 000c 11F8014B 		ldrb	r4, [r1], #1	@ zero_extendqisi2
 494              	.LVL35:
 495 0010 1278     		ldrb	r2, [r2, #0]	@ zero_extendqisi2
 496 0012 A242     		cmp	r2, r4
 497 0014 09D1     		bne	.L48
 498              	.L43:
 499              		.loc 1 174 0 discriminator 1
 500 0016 9D42     		cmp	r5, r3
 501 0018 1A46     		mov	r2, r3
 502 001a 03F10103 		add	r3, r3, #1
 503 001e F5D8     		bhi	.L45
 504              		.loc 1 178 0
 505 0020 0B78     		ldrb	r3, [r1, #0]	@ zero_extendqisi2
 506 0022 13B9     		cbnz	r3, .L48
 507              	.LBB63:
 508              	.LBB64:
 509              		.loc 1 132 0
ARM GAS  /tmp/ccgMNJpB.s 			page 10


 510 0024 3760     		str	r7, [r6, #0]
 511              	.LBE64:
 512              	.LBE63:
 513              		.loc 1 181 0
 514 0026 1846     		mov	r0, r3
 515              	.LVL36:
 516 0028 07E0     		b	.L44
 517              	.LVL37:
 518              	.L48:
 519              	.LBB65:
 520              	.LBB66:
 521              		.loc 1 159 0
 522 002a 074A     		ldr	r2, .L49+8
 523 002c 0123     		movs	r3, #1
 524 002e 1370     		strb	r3, [r2, #0]
 525              		.loc 1 160 0
 526 0030 064A     		ldr	r2, .L49+12
 527 0032 1370     		strb	r3, [r2, #0]
 528              		.loc 1 161 0
 529 0034 064A     		ldr	r2, .L49+16
 530 0036 1060     		str	r0, [r2, #0]
 531              	.LBE66:
 532              	.LBE65:
 533              		.loc 1 179 0
 534 0038 1846     		mov	r0, r3
 535              	.LVL38:
 536              	.L44:
 537              		.loc 1 182 0
 538 003a F0BC     		pop	{r4, r5, r6, r7}
 539 003c 7047     		bx	lr
 540              	.L50:
 541 003e 00BF     		.align	2
 542              	.L49:
 543 0040 00000000 		.word	.LANCHOR2
 544 0044 00000000 		.word	.LANCHOR6
 545 0048 00000000 		.word	.LANCHOR3
 546 004c 00000000 		.word	.LANCHOR4
 547 0050 00000000 		.word	.LANCHOR5
 548              		.cfi_endproc
 549              	.LFE126:
 550              		.size	_test_assert_sequence, .-_test_assert_sequence
 551 0054 AFF30080 		.section	.text._test_assert_time_window,"ax",%progbits
 551      AFF30080 
 551      AFF30080 
 552              		.align	2
 553              		.p2align 4,,15
 554              		.global	_test_assert_time_window
 555              		.thumb
 556              		.thumb_func
 557              		.type	_test_assert_time_window, %function
 558              	_test_assert_time_window:
 559              	.LFB127:
 560              		.loc 1 184 0
 561              		.cfi_startproc
 562              		@ args = 0, pretend = 0, frame = 0
 563              		@ frame_needed = 0, uses_anonymous_args = 0
 564              		@ link register save eliminated.
ARM GAS  /tmp/ccgMNJpB.s 			page 11


 565              	.LVL39:
 566              		.loc 1 186 0
 567 0000 084B     		ldr	r3, .L54
 568 0002 DB68     		ldr	r3, [r3, #12]
 569 0004 521A     		subs	r2, r2, r1
 570              	.LVL40:
 571 0006 5B1A     		subs	r3, r3, r1
 572              	.LVL41:
 573              	.LBB67:
 574              	.LBB68:
 575              		.loc 1 167 0
 576 0008 9342     		cmp	r3, r2
 577 000a 08D3     		bcc	.L53
 578              	.LVL42:
 579              	.LBB69:
 580              	.LBB70:
 581              		.loc 1 159 0
 582 000c 064A     		ldr	r2, .L54+4
 583 000e 0123     		movs	r3, #1
 584 0010 1370     		strb	r3, [r2, #0]
 585              		.loc 1 160 0
 586 0012 064A     		ldr	r2, .L54+8
 587 0014 1370     		strb	r3, [r2, #0]
 588              		.loc 1 161 0
 589 0016 064A     		ldr	r2, .L54+12
 590 0018 1060     		str	r0, [r2, #0]
 591              		.loc 1 168 0
 592 001a 1846     		mov	r0, r3
 593              	.LVL43:
 594 001c 7047     		bx	lr
 595              	.LVL44:
 596              	.L53:
 597              	.LBE70:
 598              	.LBE69:
 599              		.loc 1 169 0
 600 001e 0020     		movs	r0, #0
 601              	.LVL45:
 602              	.LBE68:
 603              	.LBE67:
 604              		.loc 1 187 0
 605 0020 7047     		bx	lr
 606              	.L55:
 607 0022 00BF     		.align	2
 608              	.L54:
 609 0024 00000000 		.word	vtlist
 610 0028 00000000 		.word	.LANCHOR3
 611 002c 00000000 		.word	.LANCHOR4
 612 0030 00000000 		.word	.LANCHOR5
 613              		.cfi_endproc
 614              	.LFE127:
 615              		.size	_test_assert_time_window, .-_test_assert_time_window
 616 0034 AFF30080 		.section	.text.test_terminate_threads,"ax",%progbits
 616      AFF30080 
 616      AFF30080 
 617              		.align	2
 618              		.p2align 4,,15
 619              		.global	test_terminate_threads
ARM GAS  /tmp/ccgMNJpB.s 			page 12


 620              		.thumb
 621              		.thumb_func
 622              		.type	test_terminate_threads, %function
 623              	test_terminate_threads:
 624              	.LFB128:
 625              		.loc 1 196 0
 626              		.cfi_startproc
 627              		@ args = 0, pretend = 0, frame = 0
 628              		@ frame_needed = 0, uses_anonymous_args = 0
 629              	.LVL46:
 630 0000 38B5     		push	{r3, r4, r5, lr}
 631              	.LCFI7:
 632              		.cfi_def_cfa_offset 16
 633              		.cfi_offset 3, -16
 634              		.cfi_offset 4, -12
 635              		.cfi_offset 5, -8
 636              		.cfi_offset 14, -4
 637              		.loc 1 196 0
 638 0002 064C     		ldr	r4, .L63
 639 0004 04F11405 		add	r5, r4, #20
 640              	.LVL47:
 641              	.L58:
 642              		.loc 1 200 0
 643 0008 54F8043F 		ldr	r3, [r4, #4]!
 644              		.loc 1 201 0
 645 000c 1846     		mov	r0, r3
 646              		.loc 1 200 0
 647 000e 0BB1     		cbz	r3, .L57
 648              		.loc 1 201 0
 649 0010 FFF7FEFF 		bl	chThdTerminate
 650              	.LVL48:
 651              	.L57:
 652              		.loc 1 199 0
 653 0014 AC42     		cmp	r4, r5
 654 0016 F7D1     		bne	.L58
 655              		.loc 1 202 0
 656 0018 38BD     		pop	{r3, r4, r5, pc}
 657              	.L64:
 658 001a 00BF     		.align	2
 659              	.L63:
 660 001c FCFFFFFF 		.word	.LANCHOR7-4
 661              		.cfi_endproc
 662              	.LFE128:
 663              		.size	test_terminate_threads, .-test_terminate_threads
 664              		.section	.text.test_wait_threads,"ax",%progbits
 665              		.align	2
 666              		.p2align 4,,15
 667              		.global	test_wait_threads
 668              		.thumb
 669              		.thumb_func
 670              		.type	test_wait_threads, %function
 671              	test_wait_threads:
 672              	.LFB129:
 673              		.loc 1 207 0
 674              		.cfi_startproc
 675              		@ args = 0, pretend = 0, frame = 0
 676              		@ frame_needed = 0, uses_anonymous_args = 0
ARM GAS  /tmp/ccgMNJpB.s 			page 13


 677              	.LVL49:
 678 0000 70B5     		push	{r4, r5, r6, lr}
 679              	.LCFI8:
 680              		.cfi_def_cfa_offset 16
 681              		.cfi_offset 4, -16
 682              		.cfi_offset 5, -12
 683              		.cfi_offset 6, -8
 684              		.cfi_offset 14, -4
 685 0002 074C     		ldr	r4, .L72
 686              		.loc 1 213 0
 687 0004 0026     		movs	r6, #0
 688              		.loc 1 207 0
 689 0006 04F11405 		add	r5, r4, #20
 690              	.LVL50:
 691              	.L67:
 692              		.loc 1 211 0
 693 000a 54F8043B 		ldr	r3, [r4], #4
 694              		.loc 1 212 0
 695 000e 1846     		mov	r0, r3
 696              		.loc 1 211 0
 697 0010 1BB1     		cbz	r3, .L66
 698              		.loc 1 212 0
 699 0012 FFF7FEFF 		bl	chThdWait
 700              	.LVL51:
 701              		.loc 1 213 0
 702 0016 44F8046C 		str	r6, [r4, #-4]
 703              	.L66:
 704              		.loc 1 210 0
 705 001a AC42     		cmp	r4, r5
 706 001c F5D1     		bne	.L67
 707              		.loc 1 215 0
 708 001e 70BD     		pop	{r4, r5, r6, pc}
 709              	.L73:
 710              		.align	2
 711              	.L72:
 712 0020 00000000 		.word	.LANCHOR7
 713              		.cfi_endproc
 714              	.LFE129:
 715              		.size	test_wait_threads, .-test_wait_threads
 716 0024 AFF30080 		.section	.text.test_cpu_pulse,"ax",%progbits
 716      AFF30080 
 716      AFF30080 
 717              		.align	2
 718              		.p2align 4,,15
 719              		.global	test_cpu_pulse
 720              		.thumb
 721              		.thumb_func
 722              		.type	test_cpu_pulse, %function
 723              	test_cpu_pulse:
 724              	.LFB130:
 725              		.loc 1 224 0
 726              		.cfi_startproc
 727              		@ args = 0, pretend = 0, frame = 0
 728              		@ frame_needed = 0, uses_anonymous_args = 0
 729              		@ link register save eliminated.
 730              	.LVL52:
 731              		.loc 1 227 0
ARM GAS  /tmp/ccgMNJpB.s 			page 14


 732 0000 154B     		ldr	r3, .L80
 733              		.loc 1 224 0
 734 0002 30B4     		push	{r4, r5}
 735              	.LCFI9:
 736              		.cfi_def_cfa_offset 8
 737              		.cfi_offset 4, -8
 738              		.cfi_offset 5, -4
 739              		.loc 1 227 0
 740 0004 9C69     		ldr	r4, [r3, #24]
 741              		.loc 1 228 0
 742 0006 4FF47A73 		mov	r3, #1000
 743 000a 03FB00F0 		mul	r0, r3, r0
 744              	.LVL53:
 745              		.loc 1 227 0
 746 000e 226A     		ldr	r2, [r4, #32]
 747              	.LVL54:
 748              		.loc 1 228 0
 749 0010 44F6D353 		movw	r3, #19923
 750 0014 411E     		subs	r1, r0, #1
 751 0016 C1F26203 		movt	r3, 4194
 752 001a 501C     		adds	r0, r2, #1
 753 001c A3FB0153 		umull	r5, r3, r3, r1
 754 0020 00EB9311 		add	r1, r0, r3, lsr #6
 755              	.LVL55:
 756              	.L77:
 757              		.loc 1 235 0
 758 0024 8A42     		cmp	r2, r1
 759              		.loc 1 230 0
 760 0026 236A     		ldr	r3, [r4, #32]
 761              	.LVL56:
 762              		.loc 1 235 0
 763 0028 0AD2     		bcs	.L75
 764              		.loc 1 235 0 is_stmt 0 discriminator 1
 765 002a 8B42     		cmp	r3, r1
 766 002c 2CBF     		ite	cs
 767 002e 0020     		movcs	r0, #0
 768 0030 0120     		movcc	r0, #1
 769 0032 9342     		cmp	r3, r2
 770 0034 38BF     		it	cc
 771 0036 0020     		movcc	r0, #0
 772              		.loc 1 236 0 is_stmt 1 discriminator 1
 773 0038 0028     		cmp	r0, #0
 774 003a F3D1     		bne	.L77
 775              	.L79:
 776              		.loc 1 237 0
 777 003c 30BC     		pop	{r4, r5}
 778 003e 7047     		bx	lr
 779              	.L75:
 780              		.loc 1 236 0 discriminator 2
 781 0040 9342     		cmp	r3, r2
 782 0042 34BF     		ite	cc
 783 0044 0020     		movcc	r0, #0
 784 0046 0120     		movcs	r0, #1
 785 0048 8B42     		cmp	r3, r1
 786 004a 38BF     		it	cc
 787 004c 40F00100 		orrcc	r0, r0, #1
 788 0050 0028     		cmp	r0, #0
ARM GAS  /tmp/ccgMNJpB.s 			page 15


 789 0052 E7D1     		bne	.L77
 790 0054 F2E7     		b	.L79
 791              	.L81:
 792 0056 00BF     		.align	2
 793              	.L80:
 794 0058 00000000 		.word	rlist
 795              		.cfi_endproc
 796              	.LFE130:
 797              		.size	test_cpu_pulse, .-test_cpu_pulse
 798 005c AFF30080 		.section	.text.test_wait_tick,"ax",%progbits
 799              		.align	2
 800              		.p2align 4,,15
 801              		.global	test_wait_tick
 802              		.thumb
 803              		.thumb_func
 804              		.type	test_wait_tick, %function
 805              	test_wait_tick:
 806              	.LFB131:
 807              		.loc 1 245 0
 808              		.cfi_startproc
 809              		@ args = 0, pretend = 0, frame = 0
 810              		@ frame_needed = 0, uses_anonymous_args = 0
 811 0000 08B5     		push	{r3, lr}
 812              	.LCFI10:
 813              		.cfi_def_cfa_offset 8
 814              		.cfi_offset 3, -8
 815              		.cfi_offset 14, -4
 816              		.loc 1 247 0
 817 0002 0120     		movs	r0, #1
 818 0004 FFF7FEFF 		bl	chThdSleep
 819              	.LVL57:
 820              		.loc 1 248 0
 821 0008 40F20003 		movw	r3, #:lower16:vtlist
 822 000c C0F20003 		movt	r3, #:upper16:vtlist
 823 0010 D868     		ldr	r0, [r3, #12]
 824              		.loc 1 249 0
 825 0012 08BD     		pop	{r3, pc}
 826              		.cfi_endproc
 827              	.LFE131:
 828              		.size	test_wait_tick, .-test_wait_tick
 829 0014 AFF30080 		.section	.text.test_start_timer,"ax",%progbits
 829      AFF30080 
 829      AFF30080 
 830              		.align	2
 831              		.p2align 4,,15
 832              		.global	test_start_timer
 833              		.thumb
 834              		.thumb_func
 835              		.type	test_start_timer, %function
 836              	test_start_timer:
 837              	.LFB133:
 838              		.loc 1 272 0
 839              		.cfi_startproc
 840              		@ args = 0, pretend = 0, frame = 0
 841              		@ frame_needed = 0, uses_anonymous_args = 0
 842              	.LVL58:
 843              		.loc 1 275 0
ARM GAS  /tmp/ccgMNJpB.s 			page 16


 844 0000 40F20003 		movw	r3, #:lower16:.LANCHOR0
 845 0004 C0F20003 		movt	r3, #:upper16:.LANCHOR0
 846              		.loc 1 272 0
 847 0008 10B5     		push	{r4, lr}
 848              	.LCFI11:
 849              		.cfi_def_cfa_offset 8
 850              		.cfi_offset 4, -8
 851              		.cfi_offset 14, -4
 852              		.loc 1 275 0
 853 000a 0024     		movs	r4, #0
 854 000c 1C70     		strb	r4, [r3, #0]
 855              	.LVL59:
 856              	.LBB71:
 857              		.loc 1 276 0
 858 000e 2023     		movs	r3, #32
 859              	.LVL60:
 860              	@ 276 "/home/wicker/tools/ChibiOS_2.6.3/test/test.c" 1
 861 0010 83F31188 		msr     BASEPRI, r3
 862              	@ 0 "" 2
 863              	.LVL61:
 864              		.thumb
 865              	.LBE71:
 866              		.loc 1 274 0
 867 0014 4FF47A73 		mov	r3, #1000
 868              	.LVL62:
 869 0018 03FB00F0 		mul	r0, r3, r0
 870              	.LVL63:
 871 001c 44F6D353 		movw	r3, #19923
 872 0020 0138     		subs	r0, r0, #1
 873 0022 C1F26203 		movt	r3, 4194
 874 0026 A3FB0023 		umull	r2, r3, r3, r0
 875 002a 9909     		lsrs	r1, r3, #6
 876              		.loc 1 276 0
 877 002c 40F20000 		movw	r0, #:lower16:.LANCHOR8
 878 0030 40F20002 		movw	r2, #:lower16:tmr
 879 0034 2346     		mov	r3, r4
 880 0036 C0F20000 		movt	r0, #:upper16:.LANCHOR8
 881 003a 0131     		adds	r1, r1, #1
 882 003c C0F20002 		movt	r2, #:upper16:tmr
 883 0040 FFF7FEFF 		bl	chVTSetI
 884              	.LVL64:
 885              	.LBB72:
 886 0044 2346     		mov	r3, r4
 887              	.LVL65:
 888              	@ 276 "/home/wicker/tools/ChibiOS_2.6.3/test/test.c" 1
 889 0046 83F31188 		msr     BASEPRI, r3
 890              	@ 0 "" 2
 891              	.LVL66:
 892              		.thumb
 893 004a 10BD     		pop	{r4, pc}
 894              	.LBE72:
 895              		.cfi_endproc
 896              	.LFE133:
 897              		.size	test_start_timer, .-test_start_timer
 898 004c AFF30080 		.section	.text.TestThread,"ax",%progbits
 899              		.align	2
 900              		.p2align 4,,15
ARM GAS  /tmp/ccgMNJpB.s 			page 17


 901              		.global	TestThread
 902              		.thumb
 903              		.thumb_func
 904              		.type	TestThread, %function
 905              	TestThread:
 906              	.LFB136:
 907              		.loc 1 314 0
 908              		.cfi_startproc
 909              		@ args = 0, pretend = 0, frame = 8
 910              		@ frame_needed = 0, uses_anonymous_args = 0
 911              	.LVL67:
 912 0000 2DE9F04F 		push	{r4, r5, r6, r7, r8, r9, sl, fp, lr}
 913              	.LCFI12:
 914              		.cfi_def_cfa_offset 36
 915              		.cfi_offset 4, -36
 916              		.cfi_offset 5, -32
 917              		.cfi_offset 6, -28
 918              		.cfi_offset 7, -24
 919              		.cfi_offset 8, -20
 920              		.cfi_offset 9, -16
 921              		.cfi_offset 10, -12
 922              		.cfi_offset 11, -8
 923              		.cfi_offset 14, -4
 924              		.loc 1 317 0
 925 0004 9D4C     		ldr	r4, .L157
 926 0006 9E4D     		ldr	r5, .L157+4
 927 0008 2060     		str	r0, [r4, #0]
 928              		.loc 1 314 0
 929 000a 83B0     		sub	sp, sp, #12
 930              	.LCFI13:
 931              		.cfi_def_cfa_offset 48
 932              		.loc 1 318 0
 933 000c 9D48     		ldr	r0, .L157+8
 934              	.LVL68:
 935 000e FFF7FEFF 		bl	test_println
 936              	.LVL69:
 937              		.loc 1 319 0
 938 0012 9D48     		ldr	r0, .L157+12
 939 0014 FFF7FEFF 		bl	test_println
 940              	.LVL70:
 941              		.loc 1 320 0
 942 0018 9C48     		ldr	r0, .L157+16
 943 001a FFF7FEFF 		bl	test_println
 944              	.LVL71:
 945              		.loc 1 112 0
 946 001e 2A21     		movs	r1, #42
 947              	.LVL72:
 948              	.L85:
 949              	.LBB109:
 950              	.LBB110:
 951              		.loc 1 113 0
 952 0020 2068     		ldr	r0, [r4, #0]
 953 0022 0368     		ldr	r3, [r0, #0]
 954 0024 9B68     		ldr	r3, [r3, #8]
 955 0026 9847     		blx	r3
 956              	.LVL73:
 957              		.loc 1 112 0
ARM GAS  /tmp/ccgMNJpB.s 			page 18


 958 0028 15F8011F 		ldrb	r1, [r5, #1]!	@ zero_extendqisi2
 959 002c 0029     		cmp	r1, #0
 960 002e F7D1     		bne	.L85
 961              	.LBE110:
 962              	.LBE109:
 963              		.loc 1 322 0
 964 0030 9748     		ldr	r0, .L157+20
 965 0032 984D     		ldr	r5, .L157+24
 966 0034 FFF7FEFF 		bl	test_println
 967              	.LVL74:
 968              		.loc 1 112 0
 969 0038 2A21     		movs	r1, #42
 970              	.LVL75:
 971              	.L87:
 972              	.LBB111:
 973              	.LBB112:
 974              		.loc 1 113 0
 975 003a 2068     		ldr	r0, [r4, #0]
 976 003c 0368     		ldr	r3, [r0, #0]
 977 003e 9B68     		ldr	r3, [r3, #8]
 978 0040 9847     		blx	r3
 979              	.LVL76:
 980              		.loc 1 112 0
 981 0042 15F8011F 		ldrb	r1, [r5, #1]!	@ zero_extendqisi2
 982 0046 0029     		cmp	r1, #0
 983 0048 F7D1     		bne	.L87
 984              	.LBE112:
 985              	.LBE111:
 986              		.loc 1 324 0
 987 004a 9348     		ldr	r0, .L157+28
 988 004c 934D     		ldr	r5, .L157+32
 989 004e FFF7FEFF 		bl	test_println
 990              	.LVL77:
 991              		.loc 1 112 0
 992 0052 2A21     		movs	r1, #42
 993              	.LVL78:
 994              	.L89:
 995              	.LBB113:
 996              	.LBB114:
 997              		.loc 1 113 0
 998 0054 2068     		ldr	r0, [r4, #0]
 999 0056 0368     		ldr	r3, [r0, #0]
 1000 0058 9B68     		ldr	r3, [r3, #8]
 1001 005a 9847     		blx	r3
 1002              	.LVL79:
 1003              		.loc 1 112 0
 1004 005c 15F8011F 		ldrb	r1, [r5, #1]!	@ zero_extendqisi2
 1005 0060 0029     		cmp	r1, #0
 1006 0062 F7D1     		bne	.L89
 1007              	.LBE114:
 1008              	.LBE113:
 1009              		.loc 1 327 0
 1010 0064 8E48     		ldr	r0, .L157+36
 1011 0066 8F4D     		ldr	r5, .L157+40
 1012 0068 FFF7FEFF 		bl	test_println
 1013              	.LVL80:
 1014              		.loc 1 112 0
ARM GAS  /tmp/ccgMNJpB.s 			page 19


 1015 006c 2A21     		movs	r1, #42
 1016              	.LVL81:
 1017              	.L91:
 1018              	.LBB115:
 1019              	.LBB116:
 1020              		.loc 1 113 0
 1021 006e 2068     		ldr	r0, [r4, #0]
 1022 0070 0368     		ldr	r3, [r0, #0]
 1023 0072 9B68     		ldr	r3, [r3, #8]
 1024 0074 9847     		blx	r3
 1025              	.LVL82:
 1026              		.loc 1 112 0
 1027 0076 15F8011F 		ldrb	r1, [r5, #1]!	@ zero_extendqisi2
 1028 007a 0029     		cmp	r1, #0
 1029 007c F7D1     		bne	.L91
 1030              	.LBE116:
 1031              	.LBE115:
 1032              		.loc 1 330 0
 1033 007e 8A48     		ldr	r0, .L157+44
 1034 0080 8A4D     		ldr	r5, .L157+48
 1035 0082 FFF7FEFF 		bl	test_println
 1036              	.LVL83:
 1037              		.loc 1 112 0
 1038 0086 2A21     		movs	r1, #42
 1039              	.LVL84:
 1040              	.L93:
 1041              	.LBB117:
 1042              	.LBB118:
 1043              		.loc 1 113 0
 1044 0088 2068     		ldr	r0, [r4, #0]
 1045 008a 0368     		ldr	r3, [r0, #0]
 1046 008c 9B68     		ldr	r3, [r3, #8]
 1047 008e 9847     		blx	r3
 1048              	.LVL85:
 1049              		.loc 1 112 0
 1050 0090 15F8011F 		ldrb	r1, [r5, #1]!	@ zero_extendqisi2
 1051 0094 0029     		cmp	r1, #0
 1052 0096 F7D1     		bne	.L93
 1053              	.LBE118:
 1054              	.LBE117:
 1055              		.loc 1 333 0
 1056 0098 8548     		ldr	r0, .L157+52
 1057 009a 864D     		ldr	r5, .L157+56
 1058 009c FFF7FEFF 		bl	test_println
 1059              	.LVL86:
 1060              		.loc 1 112 0
 1061 00a0 2A21     		movs	r1, #42
 1062              	.LVL87:
 1063              	.L95:
 1064              	.LBB119:
 1065              	.LBB120:
 1066              		.loc 1 113 0
 1067 00a2 2068     		ldr	r0, [r4, #0]
 1068 00a4 0368     		ldr	r3, [r0, #0]
 1069 00a6 9B68     		ldr	r3, [r3, #8]
 1070 00a8 9847     		blx	r3
 1071              	.LVL88:
ARM GAS  /tmp/ccgMNJpB.s 			page 20


 1072              		.loc 1 112 0
 1073 00aa 15F8011F 		ldrb	r1, [r5, #1]!	@ zero_extendqisi2
 1074 00ae 0029     		cmp	r1, #0
 1075 00b0 F7D1     		bne	.L95
 1076              	.LBE120:
 1077              	.LBE119:
 1078              		.loc 1 337 0
 1079 00b2 8148     		ldr	r0, .L157+60
 1080 00b4 814D     		ldr	r5, .L157+64
 1081 00b6 FFF7FEFF 		bl	test_println
 1082              	.LVL89:
 1083              		.loc 1 112 0
 1084 00ba 2A21     		movs	r1, #42
 1085              	.LVL90:
 1086              	.L97:
 1087              	.LBB121:
 1088              	.LBB122:
 1089              		.loc 1 113 0
 1090 00bc 2068     		ldr	r0, [r4, #0]
 1091 00be 0368     		ldr	r3, [r0, #0]
 1092 00c0 9B68     		ldr	r3, [r3, #8]
 1093 00c2 9847     		blx	r3
 1094              	.LVL91:
 1095              		.loc 1 112 0
 1096 00c4 15F8011F 		ldrb	r1, [r5, #1]!	@ zero_extendqisi2
 1097 00c8 0029     		cmp	r1, #0
 1098 00ca F7D1     		bne	.L97
 1099              	.LBE122:
 1100              	.LBE121:
 1101              		.loc 1 341 0
 1102 00cc 7C48     		ldr	r0, .L157+68
 1103 00ce 7D4D     		ldr	r5, .L157+72
 1104 00d0 FFF7FEFF 		bl	test_println
 1105              	.LVL92:
 1106              		.loc 1 112 0
 1107 00d4 2A21     		movs	r1, #42
 1108              	.LVL93:
 1109              	.L99:
 1110              	.LBB123:
 1111              	.LBB124:
 1112              		.loc 1 113 0
 1113 00d6 2068     		ldr	r0, [r4, #0]
 1114 00d8 0368     		ldr	r3, [r0, #0]
 1115 00da 9B68     		ldr	r3, [r3, #8]
 1116 00dc 9847     		blx	r3
 1117              	.LVL94:
 1118              		.loc 1 112 0
 1119 00de 15F8011F 		ldrb	r1, [r5, #1]!	@ zero_extendqisi2
 1120 00e2 0029     		cmp	r1, #0
 1121 00e4 F7D1     		bne	.L99
 1122 00e6 784A     		ldr	r2, .L157+76
 1123              	.LBE124:
 1124              	.LBE123:
 1125              		.loc 1 345 0
 1126 00e8 7848     		ldr	r0, .L157+80
 1127 00ea 0091     		str	r1, [sp, #0]
 1128 00ec 0192     		str	r2, [sp, #4]
ARM GAS  /tmp/ccgMNJpB.s 			page 21


 1129 00ee FFF7FEFF 		bl	test_println
 1130              	.LVL95:
 1131              		.loc 1 347 0
 1132 00f2 6448     		ldr	r0, .L157+8
 1133              	.LBB125:
 1134              	.LBB126:
 1135              	.LBB127:
 1136              	.LBB128:
 1137              		.loc 1 132 0
 1138 00f4 764E     		ldr	r6, .L157+84
 1139 00f6 DFF81092 		ldr	r9, .L157+140
 1140              	.LBE128:
 1141              	.LBE127:
 1142              	.LBE126:
 1143              	.LBE125:
 1144              		.loc 1 349 0
 1145 00fa 764F     		ldr	r7, .L157+88
 1146              		.loc 1 347 0
 1147 00fc FFF7FEFF 		bl	test_println
 1148              	.LVL96:
 1149              		.loc 1 349 0
 1150 0100 40F20003 		movw	r3, #:lower16:.LANCHOR4
 1151              		.loc 1 350 0
 1152 0104 0099     		ldr	r1, [sp, #0]
 1153              		.loc 1 349 0
 1154 0106 C0F20003 		movt	r3, #:upper16:.LANCHOR4
 1155              		.loc 1 350 0
 1156 010a 8A46     		mov	sl, r1
 1157              		.loc 1 349 0
 1158 010c 1970     		strb	r1, [r3, #0]
 1159              	.LVL97:
 1160              	.L124:
 1161 010e 0AF1010A 		add	sl, sl, #1
 1162              		.loc 1 112 0 discriminator 1
 1163 0112 4FF00008 		mov	r8, #0
 1164              	.L153:
 1165              	.LVL98:
 1166              		.loc 1 353 0 discriminator 1
 1167 0116 57F8043B 		ldr	r3, [r7], #4
 1168 011a 002B     		cmp	r3, #0
 1169 011c 00F08580 		beq	.L155
 1170              	.L118:
 1171 0120 6D4D     		ldr	r5, .L157+92
 1172              		.loc 1 354 0
 1173 0122 FFF7FEFF 		bl	print_line
 1174              	.LVL99:
 1175              		.loc 1 112 0
 1176 0126 2D21     		movs	r1, #45
 1177              	.LVL100:
 1178              	.L101:
 1179              	.LBB134:
 1180              	.LBB135:
 1181              		.loc 1 113 0
 1182 0128 2068     		ldr	r0, [r4, #0]
 1183 012a 0368     		ldr	r3, [r0, #0]
 1184 012c 9B68     		ldr	r3, [r3, #8]
 1185 012e 9847     		blx	r3
ARM GAS  /tmp/ccgMNJpB.s 			page 22


 1186              	.LVL101:
 1187              		.loc 1 112 0
 1188 0130 15F8011F 		ldrb	r1, [r5, #1]!	@ zero_extendqisi2
 1189 0134 0029     		cmp	r1, #0
 1190 0136 F7D1     		bne	.L101
 1191              	.LBE135:
 1192              	.LBE134:
 1193              		.loc 1 356 0
 1194 0138 5046     		mov	r0, sl
 1195 013a FFF7FEFF 		bl	test_printn
 1196              	.LVL102:
 1197              	.LBB136:
 1198              	.LBB137:
 1199              		.loc 1 113 0
 1200 013e 4F4B     		ldr	r3, .L157
 1201 0140 664D     		ldr	r5, .L157+96
 1202 0142 1868     		ldr	r0, [r3, #0]
 1203              	.LVL103:
 1204 0144 0368     		ldr	r3, [r0, #0]
 1205 0146 2E21     		movs	r1, #46
 1206 0148 9B68     		ldr	r3, [r3, #8]
 1207              	.LBE137:
 1208              	.LBE136:
 1209              		.loc 1 358 0
 1210 014a 08F10108 		add	r8, r8, #1
 1211              	.LVL104:
 1212              	.LBB139:
 1213              	.LBB138:
 1214              		.loc 1 113 0
 1215 014e 9847     		blx	r3
 1216              	.LVL105:
 1217              	.LBE138:
 1218              	.LBE139:
 1219              		.loc 1 358 0
 1220 0150 4046     		mov	r0, r8
 1221 0152 FFF7FEFF 		bl	test_printn
 1222              	.LVL106:
 1223              		.loc 1 112 0
 1224 0156 2021     		movs	r1, #32
 1225              	.LVL107:
 1226              	.L103:
 1227              	.LBB140:
 1228              	.LBB141:
 1229              		.loc 1 113 0
 1230 0158 2068     		ldr	r0, [r4, #0]
 1231 015a 0368     		ldr	r3, [r0, #0]
 1232 015c 9B68     		ldr	r3, [r3, #8]
 1233 015e 9847     		blx	r3
 1234              	.LVL108:
 1235              		.loc 1 112 0
 1236 0160 15F8011F 		ldrb	r1, [r5, #1]!	@ zero_extendqisi2
 1237 0164 0029     		cmp	r1, #0
 1238 0166 F7D1     		bne	.L103
 1239              	.LBE141:
 1240              	.LBE140:
 1241              		.loc 1 360 0
 1242 0168 57F8043C 		ldr	r3, [r7, #-4]
ARM GAS  /tmp/ccgMNJpB.s 			page 23


 1243 016c 1D68     		ldr	r5, [r3, #0]
 1244              	.LVL109:
 1245              	.LBB142:
 1246              	.LBB143:
 1247              		.loc 1 112 0
 1248 016e 2978     		ldrb	r1, [r5, #0]	@ zero_extendqisi2
 1249 0170 39B1     		cbz	r1, .L108
 1250              	.LVL110:
 1251              	.L107:
 1252              		.loc 1 113 0
 1253 0172 2068     		ldr	r0, [r4, #0]
 1254 0174 0368     		ldr	r3, [r0, #0]
 1255 0176 9B68     		ldr	r3, [r3, #8]
 1256 0178 9847     		blx	r3
 1257              	.LVL111:
 1258              		.loc 1 112 0
 1259 017a 15F8011F 		ldrb	r1, [r5, #1]!	@ zero_extendqisi2
 1260 017e 0029     		cmp	r1, #0
 1261 0180 F7D1     		bne	.L107
 1262              	.L108:
 1263              	.LBE143:
 1264              	.LBE142:
 1265              		.loc 1 361 0
 1266 0182 5748     		ldr	r0, .L157+100
 1267              	.LBB144:
 1268              	.LBB131:
 1269              		.loc 1 287 0
 1270 0184 574D     		ldr	r5, .L157+104
 1271              	.LBE131:
 1272              	.LBE144:
 1273              		.loc 1 361 0
 1274 0186 FFF7FEFF 		bl	test_println
 1275              	.LVL112:
 1276              		.loc 1 363 0
 1277 018a C820     		movs	r0, #200
 1278 018c FFF7FEFF 		bl	chThdSleep
 1279              	.LVL113:
 1280              	.LBB145:
 1281              	.LBB132:
 1282              		.loc 1 289 0
 1283 0190 554A     		ldr	r2, .L157+108
 1284              	.LBE132:
 1285              	.LBE145:
 1286              		.loc 1 365 0
 1287 0192 57F804BC 		ldr	fp, [r7, #-4]
 1288              	.LVL114:
 1289              	.LBB146:
 1290              	.LBB133:
 1291              	.LBB130:
 1292              	.LBB129:
 1293              		.loc 1 132 0
 1294 0196 C6F80090 		str	r9, [r6, #0]
 1295              	.LBE129:
 1296              	.LBE130:
 1297              		.loc 1 287 0
 1298 019a 0023     		movs	r3, #0
 1299              		.loc 1 289 0
ARM GAS  /tmp/ccgMNJpB.s 			page 24


 1300 019c 1360     		str	r3, [r2, #0]
 1301 019e 5360     		str	r3, [r2, #4]
 1302 01a0 9360     		str	r3, [r2, #8]
 1303 01a2 D360     		str	r3, [r2, #12]
 1304 01a4 1361     		str	r3, [r2, #16]
 1305              		.loc 1 291 0
 1306 01a6 DBF80420 		ldr	r2, [fp, #4]
 1307              		.loc 1 287 0
 1308 01aa 2B70     		strb	r3, [r5, #0]
 1309              	.LVL115:
 1310              		.loc 1 291 0
 1311 01ac 02B1     		cbz	r2, .L106
 1312              		.loc 1 292 0
 1313 01ae 9047     		blx	r2
 1314              	.LVL116:
 1315              	.L106:
 1316              		.loc 1 293 0
 1317 01b0 DBF80C30 		ldr	r3, [fp, #12]
 1318 01b4 9847     		blx	r3
 1319              	.LVL117:
 1320              		.loc 1 294 0
 1321 01b6 DBF80830 		ldr	r3, [fp, #8]
 1322 01ba 03B1     		cbz	r3, .L109
 1323              		.loc 1 295 0
 1324 01bc 9847     		blx	r3
 1325              	.LVL118:
 1326              	.L109:
 1327              		.loc 1 297 0
 1328 01be FFF7FEFF 		bl	test_wait_threads
 1329              	.LVL119:
 1330              	.LBE133:
 1331              	.LBE146:
 1332              		.loc 1 366 0
 1333 01c2 2B78     		ldrb	r3, [r5, #0]	@ zero_extendqisi2
 1334 01c4 002B     		cmp	r3, #0
 1335 01c6 00F0A180 		beq	.L110
 1336 01ca 484D     		ldr	r5, .L157+112
 1337              		.loc 1 112 0
 1338 01cc 2D21     		movs	r1, #45
 1339              	.L111:
 1340              	.LBB147:
 1341              	.LBB148:
 1342              		.loc 1 113 0
 1343 01ce 2068     		ldr	r0, [r4, #0]
 1344              	.LVL120:
 1345 01d0 0368     		ldr	r3, [r0, #0]
 1346 01d2 9B68     		ldr	r3, [r3, #8]
 1347 01d4 9847     		blx	r3
 1348              	.LVL121:
 1349              		.loc 1 112 0
 1350 01d6 15F8011F 		ldrb	r1, [r5, #1]!	@ zero_extendqisi2
 1351 01da 0029     		cmp	r1, #0
 1352 01dc F7D1     		bne	.L111
 1353              	.LBE148:
 1354              	.LBE147:
 1355              		.loc 1 368 0
 1356 01de 444B     		ldr	r3, .L157+116
ARM GAS  /tmp/ccgMNJpB.s 			page 25


 1357 01e0 444D     		ldr	r5, .L157+120
 1358 01e2 1868     		ldr	r0, [r3, #0]
 1359 01e4 FFF7FEFF 		bl	test_printn
 1360              	.LVL122:
 1361              		.loc 1 112 0
 1362 01e8 2021     		movs	r1, #32
 1363              	.LVL123:
 1364              	.L113:
 1365              	.LBB149:
 1366              	.LBB150:
 1367              		.loc 1 113 0
 1368 01ea 2068     		ldr	r0, [r4, #0]
 1369 01ec 0368     		ldr	r3, [r0, #0]
 1370 01ee 9B68     		ldr	r3, [r3, #8]
 1371 01f0 9847     		blx	r3
 1372              	.LVL124:
 1373              		.loc 1 112 0
 1374 01f2 15F8011F 		ldrb	r1, [r5, #1]!	@ zero_extendqisi2
 1375 01f6 0029     		cmp	r1, #0
 1376 01f8 F7D1     		bne	.L113
 1377              	.LVL125:
 1378              	.LBE150:
 1379              	.LBE149:
 1380              	.LBB151:
 1381              	.LBB152:
 1382              		.loc 1 138 0
 1383 01fa 3368     		ldr	r3, [r6, #0]
 1384 01fc 4B45     		cmp	r3, r9
 1385              	.LBE152:
 1386              	.LBE151:
 1387              		.loc 1 314 0
 1388 01fe 88BF     		it	hi
 1389 0200 3D4D     		ldrhi	r5, .L157+124
 1390              	.LBB154:
 1391              	.LBB153:
 1392              		.loc 1 138 0
 1393 0202 0AD9     		bls	.L117
 1394              	.LVL126:
 1395              	.L116:
 1396              		.loc 1 139 0
 1397 0204 2068     		ldr	r0, [r4, #0]
 1398 0206 15F8011C 		ldrb	r1, [r5, #-1]	@ zero_extendqisi2
 1399 020a 0368     		ldr	r3, [r0, #0]
 1400 020c 9B68     		ldr	r3, [r3, #8]
 1401 020e 9847     		blx	r3
 1402              	.LVL127:
 1403              		.loc 1 138 0
 1404 0210 3368     		ldr	r3, [r6, #0]
 1405              		.loc 1 314 0
 1406 0212 2A46     		mov	r2, r5
 1407              	.LVL128:
 1408 0214 0135     		adds	r5, r5, #1
 1409              		.loc 1 138 0
 1410 0216 9A42     		cmp	r2, r3
 1411 0218 F4D3     		bcc	.L116
 1412              	.LVL129:
 1413              	.L117:
ARM GAS  /tmp/ccgMNJpB.s 			page 26


 1414              	.LBE153:
 1415              	.LBE154:
 1416              		.loc 1 371 0
 1417 021a 3848     		ldr	r0, .L157+128
 1418 021c FFF7FEFF 		bl	test_println
 1419              	.LVL130:
 1420              		.loc 1 353 0
 1421 0220 57F8043B 		ldr	r3, [r7], #4
 1422 0224 002B     		cmp	r3, #0
 1423 0226 7FF47BAF 		bne	.L118
 1424              	.LVL131:
 1425              	.L155:
 1426              		.loc 1 351 0
 1427 022a 019A     		ldr	r2, [sp, #4]
 1428 022c 52F8047F 		ldr	r7, [r2, #4]!
 1429 0230 0192     		str	r2, [sp, #4]
 1430 0232 002F     		cmp	r7, #0
 1431 0234 7FF46BAF 		bne	.L124
 1432              		.loc 1 379 0
 1433 0238 FFF7FEFF 		bl	print_line
 1434              	.LVL132:
 1435 023c 304D     		ldr	r5, .L157+132
 1436              		.loc 1 380 0
 1437 023e 1148     		ldr	r0, .L157+8
 1438 0240 FFF7FEFF 		bl	test_println
 1439              	.LVL133:
 1440              		.loc 1 112 0
 1441 0244 4621     		movs	r1, #70
 1442              	.LVL134:
 1443              	.L121:
 1444              	.LBB155:
 1445              	.LBB156:
 1446              		.loc 1 113 0
 1447 0246 2068     		ldr	r0, [r4, #0]
 1448 0248 0368     		ldr	r3, [r0, #0]
 1449 024a 9B68     		ldr	r3, [r3, #8]
 1450 024c 9847     		blx	r3
 1451              	.LVL135:
 1452              		.loc 1 112 0
 1453 024e 15F8011F 		ldrb	r1, [r5, #1]!	@ zero_extendqisi2
 1454 0252 0029     		cmp	r1, #0
 1455 0254 F7D1     		bne	.L121
 1456              	.LBE156:
 1457              	.LBE155:
 1458              		.loc 1 382 0
 1459 0256 40F20002 		movw	r2, #:lower16:.LANCHOR4
 1460 025a C0F20002 		movt	r2, #:upper16:.LANCHOR4
 1461 025e 1378     		ldrb	r3, [r2, #0]	@ zero_extendqisi2
 1462 0260 002B     		cmp	r3, #0
 1463 0262 57D1     		bne	.L156
 1464              		.loc 1 385 0
 1465 0264 2748     		ldr	r0, .L157+136
 1466 0266 FFF7FEFF 		bl	test_println
 1467              	.LVL136:
 1468              	.L123:
 1469              		.loc 1 387 0
 1470 026a 40F20003 		movw	r3, #:lower16:.LANCHOR4
ARM GAS  /tmp/ccgMNJpB.s 			page 27


 1471 026e C0F20003 		movt	r3, #:upper16:.LANCHOR4
 1472 0272 1878     		ldrb	r0, [r3, #0]	@ zero_extendqisi2
 1473              		.loc 1 388 0
 1474 0274 03B0     		add	sp, sp, #12
 1475 0276 BDE8F08F 		pop	{r4, r5, r6, r7, r8, r9, sl, fp, pc}
 1476              	.L158:
 1477 027a 00BF     		.align	2
 1478              	.L157:
 1479 027c 00000000 		.word	.LANCHOR1
 1480 0280 28000000 		.word	.LC4
 1481 0284 04000000 		.word	.LC1
 1482 0288 08000000 		.word	.LC2
 1483 028c 24000000 		.word	.LC3
 1484 0290 90000000 		.word	.LC12
 1485 0294 98000000 		.word	.LC13
 1486 0298 AC000000 		.word	.LC14
 1487 029c C4000000 		.word	.LC15
 1488 02a0 D8000000 		.word	.LC16
 1489 02a4 E4000000 		.word	.LC17
 1490 02a8 F8000000 		.word	.LC18
 1491 02ac 04010000 		.word	.LC19
 1492 02b0 18010000 		.word	.LC20
 1493 02b4 24010000 		.word	.LC21
 1494 02b8 38010000 		.word	.LC22
 1495 02bc 50010000 		.word	.LC23
 1496 02c0 64010000 		.word	.LC24
 1497 02c4 98010000 		.word	.LC25
 1498 02c8 00000000 		.word	.LANCHOR9
 1499 02cc AC010000 		.word	.LC26
 1500 02d0 00000000 		.word	.LANCHOR2
 1501 02d4 00000000 		.word	patternthd
 1502 02d8 3C000000 		.word	.LC5
 1503 02dc D4010000 		.word	.LC27
 1504 02e0 4C000000 		.word	.LC6
 1505 02e4 00000000 		.word	.LANCHOR3
 1506 02e8 00000000 		.word	.LANCHOR7
 1507 02ec 50000000 		.word	.LC7
 1508 02f0 00000000 		.word	.LANCHOR5
 1509 02f4 D8010000 		.word	.LC28
 1510 02f8 01000000 		.word	.LANCHOR6+1
 1511 02fc 68000000 		.word	.LC8
 1512 0300 DC010000 		.word	.LC29
 1513 0304 88000000 		.word	.LC11
 1514 0308 00000000 		.word	.LANCHOR6
 1515              	.LVL137:
 1516              	.L110:
 1517              		.loc 1 374 0
 1518 030c 0348     		ldr	r0, .L159
 1519 030e FFF7FEFF 		bl	test_println
 1520              	.LVL138:
 1521 0312 00E7     		b	.L153
 1522              	.LVL139:
 1523              	.L156:
 1524              		.loc 1 383 0
 1525 0314 0248     		ldr	r0, .L159+4
 1526 0316 FFF7FEFF 		bl	test_println
 1527              	.LVL140:
ARM GAS  /tmp/ccgMNJpB.s 			page 28


 1528 031a A6E7     		b	.L123
 1529              	.L160:
 1530              		.align	2
 1531              	.L159:
 1532 031c 6C000000 		.word	.LC9
 1533 0320 80000000 		.word	.LC10
 1534              		.cfi_endproc
 1535              	.LFE136:
 1536              		.size	TestThread, .-TestThread
 1537              		.global	test_timer_done
 1538              		.global	wa
 1539              		.global	threads
 1540              		.global	test
 1541 0324 AFF30080 		.section	.bss.test,"aw",%nobits
 1541      AFF30080 
 1541      AFF30080 
 1542              		.align	3
 1543              		.type	test, %object
 1544              		.size	test, 1520
 1545              	test:
 1546 0000 00000000 		.space	1520
 1546      00000000 
 1546      00000000 
 1546      00000000 
 1546      00000000 
 1547              		.section	.bss.failpoint,"aw",%nobits
 1548              		.align	2
 1549              		.set	.LANCHOR5,. + 0
 1550              		.type	failpoint, %object
 1551              		.size	failpoint, 4
 1552              	failpoint:
 1553 0000 00000000 		.space	4
 1554              		.section	.bss.local_fail,"aw",%nobits
 1555              		.set	.LANCHOR3,. + 0
 1556              		.type	local_fail, %object
 1557              		.size	local_fail, 1
 1558              	local_fail:
 1559 0000 00       		.space	1
 1560              		.section	.bss.test_timer_done,"aw",%nobits
 1561              		.set	.LANCHOR0,. + 0
 1562              		.type	test_timer_done, %object
 1563              		.size	test_timer_done, 1
 1564              	test_timer_done:
 1565 0000 00       		.space	1
 1566              		.section	.rodata.wa,"a",%progbits
 1567              		.align	2
 1568              		.type	wa, %object
 1569              		.size	wa, 20
 1570              	wa:
 1571 0000 00000000 		.word	test
 1572 0004 30010000 		.word	test+304
 1573 0008 60020000 		.word	test+608
 1574 000c 90030000 		.word	test+912
 1575 0010 C0040000 		.word	test+1216
 1576              		.section	.bss.tokp,"aw",%nobits
 1577              		.align	2
 1578              		.set	.LANCHOR2,. + 0
ARM GAS  /tmp/ccgMNJpB.s 			page 29


 1579              		.type	tokp, %object
 1580              		.size	tokp, 4
 1581              	tokp:
 1582 0000 00000000 		.space	4
 1583              		.section	.bss.global_fail,"aw",%nobits
 1584              		.set	.LANCHOR4,. + 0
 1585              		.type	global_fail, %object
 1586              		.size	global_fail, 1
 1587              	global_fail:
 1588 0000 00       		.space	1
 1589              		.section	.rodata.str1.4,"aMS",%progbits,1
 1590              		.align	2
 1591              	.LC0:
 1592 0000 0D0A00   		.ascii	"\015\012\000"
 1593 0003 00       		.space	1
 1594              	.LC1:
 1595 0004 00       		.ascii	"\000"
 1596 0005 000000   		.space	3
 1597              	.LC2:
 1598 0008 2A2A2A20 		.ascii	"*** ChibiOS/RT test suite\000"
 1598      43686962 
 1598      694F532F 
 1598      52542074 
 1598      65737420 
 1599 0022 0000     		.space	2
 1600              	.LC3:
 1601 0024 2A2A2A00 		.ascii	"***\000"
 1602              	.LC4:
 1603 0028 2A2A2A20 		.ascii	"*** Kernel:       \000"
 1603      4B65726E 
 1603      656C3A20 
 1603      20202020 
 1603      202000
 1604 003b 00       		.space	1
 1605              	.LC5:
 1606 003c 2D2D2D20 		.ascii	"--- Test Case \000"
 1606      54657374 
 1606      20436173 
 1606      652000
 1607 004b 00       		.space	1
 1608              	.LC6:
 1609 004c 2900     		.ascii	")\000"
 1610 004e 0000     		.space	2
 1611              	.LC7:
 1612 0050 2D2D2D20 		.ascii	"--- Result: FAILURE (#\000"
 1612      52657375 
 1612      6C743A20 
 1612      4641494C 
 1612      55524520 
 1613 0067 00       		.space	1
 1614              	.LC8:
 1615 0068 5D2900   		.ascii	"])\000"
 1616 006b 00       		.space	1
 1617              	.LC9:
 1618 006c 2D2D2D20 		.ascii	"--- Result: SUCCESS\000"
 1618      52657375 
 1618      6C743A20 
ARM GAS  /tmp/ccgMNJpB.s 			page 30


 1618      53554343 
 1618      45535300 
 1619              	.LC10:
 1620 0080 4641494C 		.ascii	"FAILURE\000"
 1620      55524500 
 1621              	.LC11:
 1622 0088 53554343 		.ascii	"SUCCESS\000"
 1622      45535300 
 1623              	.LC12:
 1624 0090 322E362E 		.ascii	"2.6.3\000"
 1624      3300
 1625 0096 0000     		.space	2
 1626              	.LC13:
 1627 0098 2A2A2A20 		.ascii	"*** Compiled:     \000"
 1627      436F6D70 
 1627      696C6564 
 1627      3A202020 
 1627      202000
 1628 00ab 00       		.space	1
 1629              	.LC14:
 1630 00ac 4D617220 		.ascii	"Mar  8 2014 - 16:55:35\000"
 1630      20382032 
 1630      30313420 
 1630      2D203136 
 1630      3A35353A 
 1631 00c3 00       		.space	1
 1632              	.LC15:
 1633 00c4 2A2A2A20 		.ascii	"*** Compiler:     \000"
 1633      436F6D70 
 1633      696C6572 
 1633      3A202020 
 1633      202000
 1634 00d7 00       		.space	1
 1635              	.LC16:
 1636 00d8 47434320 		.ascii	"GCC 4.7.2\000"
 1636      342E372E 
 1636      3200
 1637 00e2 0000     		.space	2
 1638              	.LC17:
 1639 00e4 2A2A2A20 		.ascii	"*** Architecture: \000"
 1639      41726368 
 1639      69746563 
 1639      74757265 
 1639      3A2000
 1640 00f7 00       		.space	1
 1641              	.LC18:
 1642 00f8 41524D76 		.ascii	"ARMv7-ME\000"
 1642      372D4D45 
 1642      00
 1643 0101 000000   		.space	3
 1644              	.LC19:
 1645 0104 2A2A2A20 		.ascii	"*** Core Variant: \000"
 1645      436F7265 
 1645      20566172 
 1645      69616E74 
 1645      3A2000
 1646 0117 00       		.space	1
ARM GAS  /tmp/ccgMNJpB.s 			page 31


 1647              	.LC20:
 1648 0118 436F7274 		.ascii	"Cortex-M4\000"
 1648      65782D4D 
 1648      3400
 1649 0122 0000     		.space	2
 1650              	.LC21:
 1651 0124 2A2A2A20 		.ascii	"*** Port Info:    \000"
 1651      506F7274 
 1651      20496E66 
 1651      6F3A2020 
 1651      202000
 1652 0137 00       		.space	1
 1653              	.LC22:
 1654 0138 41647661 		.ascii	"Advanced kernel mode\000"
 1654      6E636564 
 1654      206B6572 
 1654      6E656C20 
 1654      6D6F6465 
 1655 014d 000000   		.space	3
 1656              	.LC23:
 1657 0150 2A2A2A20 		.ascii	"*** Platform:     \000"
 1657      506C6174 
 1657      666F726D 
 1657      3A202020 
 1657      202000
 1658 0163 00       		.space	1
 1659              	.LC24:
 1660 0164 53544D33 		.ascii	"STM32F407/F417 High Performance with DSP and FPU\000"
 1660      32463430 
 1660      372F4634 
 1660      31372048 
 1660      69676820 
 1661 0195 000000   		.space	3
 1662              	.LC25:
 1663 0198 2A2A2A20 		.ascii	"*** Test Board:   \000"
 1663      54657374 
 1663      20426F61 
 1663      72643A20 
 1663      202000
 1664 01ab 00       		.space	1
 1665              	.LC26:
 1666 01ac 53544D69 		.ascii	"STMicroelectronics STM32F4-Discovery\000"
 1666      63726F65 
 1666      6C656374 
 1666      726F6E69 
 1666      63732053 
 1667 01d1 000000   		.space	3
 1668              	.LC27:
 1669 01d4 202800   		.ascii	" (\000"
 1670 01d7 00       		.space	1
 1671              	.LC28:
 1672 01d8 205B00   		.ascii	" [\000"
 1673 01db 00       		.space	1
 1674              	.LC29:
 1675 01dc 46696E61 		.ascii	"Final result: \000"
 1675      6C207265 
 1675      73756C74 
ARM GAS  /tmp/ccgMNJpB.s 			page 32


 1675      3A2000
 1676 01eb 00       		.section	.bss.vt,"aw",%nobits
 1677              		.align	2
 1678              		.set	.LANCHOR8,. + 0
 1679              		.type	vt, %object
 1680              		.size	vt, 20
 1681              	vt:
 1682 0000 00000000 		.space	20
 1682      00000000 
 1682      00000000 
 1682      00000000 
 1682      00000000 
 1683              		.section	.bss.threads,"aw",%nobits
 1684              		.align	2
 1685              		.set	.LANCHOR7,. + 0
 1686              		.type	threads, %object
 1687              		.size	threads, 20
 1688              	threads:
 1689 0000 00000000 		.space	20
 1689      00000000 
 1689      00000000 
 1689      00000000 
 1689      00000000 
 1690              		.section	.rodata.patterns,"a",%progbits
 1691              		.align	2
 1692              		.set	.LANCHOR9,. + 0
 1693              		.type	patterns, %object
 1694              		.size	patterns, 48
 1695              	patterns:
 1696 0000 00000000 		.word	patternthd
 1697 0004 00000000 		.word	patternsem
 1698 0008 00000000 		.word	patternmtx
 1699 000c 00000000 		.word	patternmsg
 1700 0010 00000000 		.word	patternmbox
 1701 0014 00000000 		.word	patternevt
 1702 0018 00000000 		.word	patternheap
 1703 001c 00000000 		.word	patternpools
 1704 0020 00000000 		.word	patterndyn
 1705 0024 00000000 		.word	patternqueues
 1706 0028 00000000 		.word	patternbmk
 1707 002c 00000000 		.word	0
 1708              		.section	.bss.chp,"aw",%nobits
 1709              		.align	2
 1710              		.set	.LANCHOR1,. + 0
 1711              		.type	chp, %object
 1712              		.size	chp, 4
 1713              	chp:
 1714 0000 00000000 		.space	4
 1715              		.section	.bss.tokens_buffer,"aw",%nobits
 1716              		.align	2
 1717              		.set	.LANCHOR6,. + 0
 1718              		.type	tokens_buffer, %object
 1719              		.size	tokens_buffer, 16
 1720              	tokens_buffer:
 1721 0000 00000000 		.space	16
 1721      00000000 
 1721      00000000 
ARM GAS  /tmp/ccgMNJpB.s 			page 33


 1721      00000000 
 1722              		.text
 1723              	.Letext0:
 1724              		.file 2 "/opt/psas/x-tools/stm32f407/arm-psas-eabi/bin/../lib/gcc/arm-psas-eabi/4.7.2/include/stdd
 1725              		.file 3 "/opt/psas/x-tools/stm32f407/arm-psas-eabi/bin/../lib/gcc/arm-psas-eabi/4.7.2/../../../../
 1726              		.file 4 "/home/wicker/tools/ChibiOS_2.6.3/os/ports/GCC/ARMCMx/chtypes.h"
 1727              		.file 5 "/home/wicker/tools/ChibiOS_2.6.3/os/kernel/include/chlists.h"
 1728              		.file 6 "/home/wicker/tools/ChibiOS_2.6.3/os/kernel/include/chthreads.h"
 1729              		.file 7 "/home/wicker/tools/ChibiOS_2.6.3/os/ports/GCC/ARMCMx/chcore_v7m.h"
 1730              		.file 8 "/home/wicker/tools/ChibiOS_2.6.3/os/kernel/include/chvt.h"
 1731              		.file 9 "/home/wicker/tools/ChibiOS_2.6.3/os/kernel/include/chschd.h"
 1732              		.file 10 "/home/wicker/tools/ChibiOS_2.6.3/os/kernel/include/chmtx.h"
 1733              		.file 11 "/home/wicker/tools/ChibiOS_2.6.3/os/kernel/include/chstreams.h"
 1734              		.file 12 "/home/wicker/tools/ChibiOS_2.6.3/test/test.h"
 1735              		.file 13 "/home/wicker/tools/ChibiOS_2.6.3/os/ports/common/ARMCMx/CMSIS/include/core_cm4.h"
 1736              		.file 14 "/home/wicker/tools/ChibiOS_2.6.3/test/testthd.h"
 1737              		.file 15 "/home/wicker/tools/ChibiOS_2.6.3/test/testsem.h"
 1738              		.file 16 "/home/wicker/tools/ChibiOS_2.6.3/test/testmtx.h"
 1739              		.file 17 "/home/wicker/tools/ChibiOS_2.6.3/test/testmsg.h"
 1740              		.file 18 "/home/wicker/tools/ChibiOS_2.6.3/test/testmbox.h"
 1741              		.file 19 "/home/wicker/tools/ChibiOS_2.6.3/test/testevt.h"
 1742              		.file 20 "/home/wicker/tools/ChibiOS_2.6.3/test/testheap.h"
 1743              		.file 21 "/home/wicker/tools/ChibiOS_2.6.3/test/testpools.h"
 1744              		.file 22 "/home/wicker/tools/ChibiOS_2.6.3/test/testdyn.h"
 1745              		.file 23 "/home/wicker/tools/ChibiOS_2.6.3/test/testqueues.h"
 1746              		.file 24 "/home/wicker/tools/ChibiOS_2.6.3/test/testbmk.h"